
WeActBlackPillExternalSPIFlashloader.elf:     file format elf32-littlearm

Sections:
Idx Name          Size      VMA       LMA       File off  Algn
  0 .isr_vector   000001fc  20000004  20000004  00010004  2**0
                  ALLOC
  1 .ARM          00000008  20000200  20000200  00010200  2**2
                  CONTENTS, ALLOC, LOAD, READONLY, DATA
  2 .init_array   00000004  20000208  20000208  00010208  2**2
                  CONTENTS, ALLOC, LOAD, DATA
  3 .fini_array   00000004  2000020c  2000020c  0001020c  2**2
                  CONTENTS, ALLOC, LOAD, DATA
  4 .data         0000000c  20000210  20000210  00010210  2**2
                  CONTENTS, ALLOC, LOAD, DATA
  5 .bss          00000078  2000021c  2000021c  0001021c  2**2
                  ALLOC
  6 .text         00005ce8  20000294  20000294  00010294  2**2
                  CONTENTS, ALLOC, LOAD, READONLY, CODE
  7 .Dev_info     000000c8  20005f7c  20005f7c  00025f7c  2**2
                  CONTENTS, ALLOC, LOAD, READONLY, DATA
  8 .rodata       00000020  20006044  20006044  00016044  2**2
                  CONTENTS, ALLOC, LOAD, READONLY, DATA
  9 ._user_heap_stack 00000600  20006064  20006064  00016064  2**0
                  ALLOC
 10 .ARM.attributes 0000002a  00000000  00000000  00026044  2**0
                  CONTENTS, READONLY
 11 .comment      00000053  00000000  00000000  0002606e  2**0
                  CONTENTS, READONLY
 12 .debug_frame  00000080  00000000  00000000  000260c4  2**2
                  CONTENTS, READONLY, DEBUGGING, OCTETS

Disassembly of section .text:

20000294 <__do_global_dtors_aux>:
20000294:	b510      	push	{r4, lr}
20000296:	4c05      	ldr	r4, [pc, #20]	; (200002ac <__do_global_dtors_aux+0x18>)
20000298:	7823      	ldrb	r3, [r4, #0]
2000029a:	b933      	cbnz	r3, 200002aa <__do_global_dtors_aux+0x16>
2000029c:	4b04      	ldr	r3, [pc, #16]	; (200002b0 <__do_global_dtors_aux+0x1c>)
2000029e:	b113      	cbz	r3, 200002a6 <__do_global_dtors_aux+0x12>
200002a0:	4804      	ldr	r0, [pc, #16]	; (200002b4 <__do_global_dtors_aux+0x20>)
200002a2:	f3af 8000 	nop.w
200002a6:	2301      	movs	r3, #1
200002a8:	7023      	strb	r3, [r4, #0]
200002aa:	bd10      	pop	{r4, pc}
200002ac:	2000021c 	.word	0x2000021c
200002b0:	00000000 	.word	0x00000000
200002b4:	20005f64 	.word	0x20005f64

200002b8 <frame_dummy>:
200002b8:	b508      	push	{r3, lr}
200002ba:	4b03      	ldr	r3, [pc, #12]	; (200002c8 <frame_dummy+0x10>)
200002bc:	b11b      	cbz	r3, 200002c6 <frame_dummy+0xe>
200002be:	4903      	ldr	r1, [pc, #12]	; (200002cc <frame_dummy+0x14>)
200002c0:	4803      	ldr	r0, [pc, #12]	; (200002d0 <frame_dummy+0x18>)
200002c2:	f3af 8000 	nop.w
200002c6:	bd08      	pop	{r3, pc}
200002c8:	00000000 	.word	0x00000000
200002cc:	20000220 	.word	0x20000220
200002d0:	20005f64 	.word	0x20005f64

200002d4 <Init>:
200002d4:	b580      	push	{r7, lr}
200002d6:	af00      	add	r7, sp, #0
200002d8:	f000 fd9e 	bl	20000e18 <SystemInit>
200002dc:	f000 fa36 	bl	2000074c <sys_init>
200002e0:	f000 fb60 	bl	200009a4 <sFLASH_Init>
200002e4:	2301      	movs	r3, #1
200002e6:	4618      	mov	r0, r3
200002e8:	bd80      	pop	{r7, pc}

200002ea <Read>:
200002ea:	b580      	push	{r7, lr}
200002ec:	b084      	sub	sp, #16
200002ee:	af00      	add	r7, sp, #0
200002f0:	60f8      	str	r0, [r7, #12]
200002f2:	60b9      	str	r1, [r7, #8]
200002f4:	607a      	str	r2, [r7, #4]
200002f6:	f44f 5100 	mov.w	r1, #8192	; 0x2000
200002fa:	4806      	ldr	r0, [pc, #24]	; (20000314 <Read+0x2a>)
200002fc:	f002 fbe3 	bl	20002ac6 <HAL_GPIO_TogglePin>
20000300:	68ba      	ldr	r2, [r7, #8]
20000302:	68f9      	ldr	r1, [r7, #12]
20000304:	6878      	ldr	r0, [r7, #4]
20000306:	f000 fc78 	bl	20000bfa <sFLASH_ReadBuffer>
2000030a:	2301      	movs	r3, #1
2000030c:	4618      	mov	r0, r3
2000030e:	3710      	adds	r7, #16
20000310:	46bd      	mov	sp, r7
20000312:	bd80      	pop	{r7, pc}
20000314:	40020800 	.word	0x40020800

20000318 <Write>:
20000318:	b580      	push	{r7, lr}
2000031a:	b084      	sub	sp, #16
2000031c:	af00      	add	r7, sp, #0
2000031e:	60f8      	str	r0, [r7, #12]
20000320:	60b9      	str	r1, [r7, #8]
20000322:	607a      	str	r2, [r7, #4]
20000324:	f44f 5100 	mov.w	r1, #8192	; 0x2000
20000328:	4806      	ldr	r0, [pc, #24]	; (20000344 <Write+0x2c>)
2000032a:	f002 fbcc 	bl	20002ac6 <HAL_GPIO_TogglePin>
2000032e:	68ba      	ldr	r2, [r7, #8]
20000330:	68f9      	ldr	r1, [r7, #12]
20000332:	6878      	ldr	r0, [r7, #4]
20000334:	f000 fbc4 	bl	20000ac0 <sFLASH_WriteBuffer>
20000338:	2301      	movs	r3, #1
2000033a:	4618      	mov	r0, r3
2000033c:	3710      	adds	r7, #16
2000033e:	46bd      	mov	sp, r7
20000340:	bd80      	pop	{r7, pc}
20000342:	bf00      	nop
20000344:	40020800 	.word	0x40020800

20000348 <MassErase>:
20000348:	b580      	push	{r7, lr}
2000034a:	af00      	add	r7, sp, #0
2000034c:	f000 fb64 	bl	20000a18 <sFLASH_EraseBulk>
20000350:	2301      	movs	r3, #1
20000352:	4618      	mov	r0, r3
20000354:	bd80      	pop	{r7, pc}

20000356 <SectorErase>:
20000356:	b580      	push	{r7, lr}
20000358:	b082      	sub	sp, #8
2000035a:	af00      	add	r7, sp, #0
2000035c:	6078      	str	r0, [r7, #4]
2000035e:	6039      	str	r1, [r7, #0]
20000360:	687b      	ldr	r3, [r7, #4]
20000362:	0c1b      	lsrs	r3, r3, #16
20000364:	041b      	lsls	r3, r3, #16
20000366:	607b      	str	r3, [r7, #4]
20000368:	e006      	b.n	20000378 <SectorErase+0x22>
2000036a:	6878      	ldr	r0, [r7, #4]
2000036c:	f000 fb28 	bl	200009c0 <sFLASH_EraseSector>
20000370:	687b      	ldr	r3, [r7, #4]
20000372:	f503 3380 	add.w	r3, r3, #65536	; 0x10000
20000376:	607b      	str	r3, [r7, #4]
20000378:	683a      	ldr	r2, [r7, #0]
2000037a:	687b      	ldr	r3, [r7, #4]
2000037c:	429a      	cmp	r2, r3
2000037e:	d2f4      	bcs.n	2000036a <SectorErase+0x14>
20000380:	2301      	movs	r3, #1
20000382:	4618      	mov	r0, r3
20000384:	3708      	adds	r7, #8
20000386:	46bd      	mov	sp, r7
20000388:	bd80      	pop	{r7, pc}

2000038a <CheckSum>:
2000038a:	b580      	push	{r7, lr}
2000038c:	b088      	sub	sp, #32
2000038e:	af00      	add	r7, sp, #0
20000390:	60f8      	str	r0, [r7, #12]
20000392:	60b9      	str	r1, [r7, #8]
20000394:	607a      	str	r2, [r7, #4]
20000396:	68fb      	ldr	r3, [r7, #12]
20000398:	b2db      	uxtb	r3, r3
2000039a:	f003 0303 	and.w	r3, r3, #3
2000039e:	77fb      	strb	r3, [r7, #31]
200003a0:	68bb      	ldr	r3, [r7, #8]
200003a2:	77bb      	strb	r3, [r7, #30]
200003a4:	68fb      	ldr	r3, [r7, #12]
200003a6:	f023 0303 	bic.w	r3, r3, #3
200003aa:	60fb      	str	r3, [r7, #12]
200003ac:	68bb      	ldr	r3, [r7, #8]
200003ae:	f003 0303 	and.w	r3, r3, #3
200003b2:	2b00      	cmp	r3, #0
200003b4:	d005      	beq.n	200003c2 <CheckSum+0x38>
200003b6:	68bb      	ldr	r3, [r7, #8]
200003b8:	f003 0303 	and.w	r3, r3, #3
200003bc:	f1c3 0304 	rsb	r3, r3, #4
200003c0:	e000      	b.n	200003c4 <CheckSum+0x3a>
200003c2:	2300      	movs	r3, #0
200003c4:	68ba      	ldr	r2, [r7, #8]
200003c6:	4413      	add	r3, r2
200003c8:	60bb      	str	r3, [r7, #8]
200003ca:	2300      	movs	r3, #0
200003cc:	61bb      	str	r3, [r7, #24]
200003ce:	e0e3      	b.n	20000598 <CheckSum+0x20e>
200003d0:	f107 0313 	add.w	r3, r7, #19
200003d4:	2201      	movs	r2, #1
200003d6:	68f9      	ldr	r1, [r7, #12]
200003d8:	4618      	mov	r0, r3
200003da:	f000 fc0e 	bl	20000bfa <sFLASH_ReadBuffer>
200003de:	7cfb      	ldrb	r3, [r7, #19]
200003e0:	617b      	str	r3, [r7, #20]
200003e2:	68fb      	ldr	r3, [r7, #12]
200003e4:	1c59      	adds	r1, r3, #1
200003e6:	f107 0313 	add.w	r3, r7, #19
200003ea:	2201      	movs	r2, #1
200003ec:	4618      	mov	r0, r3
200003ee:	f000 fc04 	bl	20000bfa <sFLASH_ReadBuffer>
200003f2:	7cfb      	ldrb	r3, [r7, #19]
200003f4:	021b      	lsls	r3, r3, #8
200003f6:	461a      	mov	r2, r3
200003f8:	697b      	ldr	r3, [r7, #20]
200003fa:	4413      	add	r3, r2
200003fc:	617b      	str	r3, [r7, #20]
200003fe:	68fb      	ldr	r3, [r7, #12]
20000400:	1c99      	adds	r1, r3, #2
20000402:	f107 0313 	add.w	r3, r7, #19
20000406:	2201      	movs	r2, #1
20000408:	4618      	mov	r0, r3
2000040a:	f000 fbf6 	bl	20000bfa <sFLASH_ReadBuffer>
2000040e:	7cfb      	ldrb	r3, [r7, #19]
20000410:	041b      	lsls	r3, r3, #16
20000412:	461a      	mov	r2, r3
20000414:	697b      	ldr	r3, [r7, #20]
20000416:	4413      	add	r3, r2
20000418:	617b      	str	r3, [r7, #20]
2000041a:	68fb      	ldr	r3, [r7, #12]
2000041c:	1cd9      	adds	r1, r3, #3
2000041e:	f107 0313 	add.w	r3, r7, #19
20000422:	2201      	movs	r2, #1
20000424:	4618      	mov	r0, r3
20000426:	f000 fbe8 	bl	20000bfa <sFLASH_ReadBuffer>
2000042a:	7cfb      	ldrb	r3, [r7, #19]
2000042c:	061b      	lsls	r3, r3, #24
2000042e:	461a      	mov	r2, r3
20000430:	697b      	ldr	r3, [r7, #20]
20000432:	4413      	add	r3, r2
20000434:	617b      	str	r3, [r7, #20]
20000436:	7ffb      	ldrb	r3, [r7, #31]
20000438:	2b00      	cmp	r3, #0
2000043a:	d040      	beq.n	200004be <CheckSum+0x134>
2000043c:	7ffb      	ldrb	r3, [r7, #31]
2000043e:	2b03      	cmp	r3, #3
20000440:	d032      	beq.n	200004a8 <CheckSum+0x11e>
20000442:	2b03      	cmp	r3, #3
20000444:	f300 80a2 	bgt.w	2000058c <CheckSum+0x202>
20000448:	2b01      	cmp	r3, #1
2000044a:	d002      	beq.n	20000452 <CheckSum+0xc8>
2000044c:	2b02      	cmp	r3, #2
2000044e:	d019      	beq.n	20000484 <CheckSum+0xfa>
20000450:	e09c      	b.n	2000058c <CheckSum+0x202>
20000452:	697b      	ldr	r3, [r7, #20]
20000454:	0a1b      	lsrs	r3, r3, #8
20000456:	b2db      	uxtb	r3, r3
20000458:	461a      	mov	r2, r3
2000045a:	687b      	ldr	r3, [r7, #4]
2000045c:	4413      	add	r3, r2
2000045e:	607b      	str	r3, [r7, #4]
20000460:	697b      	ldr	r3, [r7, #20]
20000462:	0c1b      	lsrs	r3, r3, #16
20000464:	b2db      	uxtb	r3, r3
20000466:	461a      	mov	r2, r3
20000468:	687b      	ldr	r3, [r7, #4]
2000046a:	4413      	add	r3, r2
2000046c:	607b      	str	r3, [r7, #4]
2000046e:	697b      	ldr	r3, [r7, #20]
20000470:	0e1b      	lsrs	r3, r3, #24
20000472:	b2db      	uxtb	r3, r3
20000474:	461a      	mov	r2, r3
20000476:	687b      	ldr	r3, [r7, #4]
20000478:	4413      	add	r3, r2
2000047a:	607b      	str	r3, [r7, #4]
2000047c:	7ffb      	ldrb	r3, [r7, #31]
2000047e:	3b01      	subs	r3, #1
20000480:	77fb      	strb	r3, [r7, #31]
20000482:	e083      	b.n	2000058c <CheckSum+0x202>
20000484:	697b      	ldr	r3, [r7, #20]
20000486:	0c1b      	lsrs	r3, r3, #16
20000488:	b2db      	uxtb	r3, r3
2000048a:	461a      	mov	r2, r3
2000048c:	687b      	ldr	r3, [r7, #4]
2000048e:	4413      	add	r3, r2
20000490:	607b      	str	r3, [r7, #4]
20000492:	697b      	ldr	r3, [r7, #20]
20000494:	0e1b      	lsrs	r3, r3, #24
20000496:	b2db      	uxtb	r3, r3
20000498:	461a      	mov	r2, r3
2000049a:	687b      	ldr	r3, [r7, #4]
2000049c:	4413      	add	r3, r2
2000049e:	607b      	str	r3, [r7, #4]
200004a0:	7ffb      	ldrb	r3, [r7, #31]
200004a2:	3b02      	subs	r3, #2
200004a4:	77fb      	strb	r3, [r7, #31]
200004a6:	e071      	b.n	2000058c <CheckSum+0x202>
200004a8:	697b      	ldr	r3, [r7, #20]
200004aa:	0e1b      	lsrs	r3, r3, #24
200004ac:	b2db      	uxtb	r3, r3
200004ae:	461a      	mov	r2, r3
200004b0:	687b      	ldr	r3, [r7, #4]
200004b2:	4413      	add	r3, r2
200004b4:	607b      	str	r3, [r7, #4]
200004b6:	7ffb      	ldrb	r3, [r7, #31]
200004b8:	3b03      	subs	r3, #3
200004ba:	77fb      	strb	r3, [r7, #31]
200004bc:	e066      	b.n	2000058c <CheckSum+0x202>
200004be:	7fbb      	ldrb	r3, [r7, #30]
200004c0:	68ba      	ldr	r2, [r7, #8]
200004c2:	1ad3      	subs	r3, r2, r3
200004c4:	f003 0303 	and.w	r3, r3, #3
200004c8:	2b00      	cmp	r3, #0
200004ca:	d044      	beq.n	20000556 <CheckSum+0x1cc>
200004cc:	69bb      	ldr	r3, [r7, #24]
200004ce:	68ba      	ldr	r2, [r7, #8]
200004d0:	1ad3      	subs	r3, r2, r3
200004d2:	2b04      	cmp	r3, #4
200004d4:	d83f      	bhi.n	20000556 <CheckSum+0x1cc>
200004d6:	7fbb      	ldrb	r3, [r7, #30]
200004d8:	68ba      	ldr	r2, [r7, #8]
200004da:	1ad3      	subs	r3, r2, r3
200004dc:	2b03      	cmp	r3, #3
200004de:	d02f      	beq.n	20000540 <CheckSum+0x1b6>
200004e0:	2b03      	cmp	r3, #3
200004e2:	d853      	bhi.n	2000058c <CheckSum+0x202>
200004e4:	2b01      	cmp	r3, #1
200004e6:	d002      	beq.n	200004ee <CheckSum+0x164>
200004e8:	2b02      	cmp	r3, #2
200004ea:	d018      	beq.n	2000051e <CheckSum+0x194>
200004ec:	e04e      	b.n	2000058c <CheckSum+0x202>
200004ee:	697b      	ldr	r3, [r7, #20]
200004f0:	b2db      	uxtb	r3, r3
200004f2:	461a      	mov	r2, r3
200004f4:	687b      	ldr	r3, [r7, #4]
200004f6:	4413      	add	r3, r2
200004f8:	607b      	str	r3, [r7, #4]
200004fa:	697b      	ldr	r3, [r7, #20]
200004fc:	0a1b      	lsrs	r3, r3, #8
200004fe:	b2db      	uxtb	r3, r3
20000500:	461a      	mov	r2, r3
20000502:	687b      	ldr	r3, [r7, #4]
20000504:	4413      	add	r3, r2
20000506:	607b      	str	r3, [r7, #4]
20000508:	697b      	ldr	r3, [r7, #20]
2000050a:	0c1b      	lsrs	r3, r3, #16
2000050c:	b2db      	uxtb	r3, r3
2000050e:	461a      	mov	r2, r3
20000510:	687b      	ldr	r3, [r7, #4]
20000512:	4413      	add	r3, r2
20000514:	607b      	str	r3, [r7, #4]
20000516:	7fbb      	ldrb	r3, [r7, #30]
20000518:	3b01      	subs	r3, #1
2000051a:	77bb      	strb	r3, [r7, #30]
2000051c:	e01a      	b.n	20000554 <CheckSum+0x1ca>
2000051e:	697b      	ldr	r3, [r7, #20]
20000520:	b2db      	uxtb	r3, r3
20000522:	461a      	mov	r2, r3
20000524:	687b      	ldr	r3, [r7, #4]
20000526:	4413      	add	r3, r2
20000528:	607b      	str	r3, [r7, #4]
2000052a:	697b      	ldr	r3, [r7, #20]
2000052c:	0a1b      	lsrs	r3, r3, #8
2000052e:	b2db      	uxtb	r3, r3
20000530:	461a      	mov	r2, r3
20000532:	687b      	ldr	r3, [r7, #4]
20000534:	4413      	add	r3, r2
20000536:	607b      	str	r3, [r7, #4]
20000538:	7fbb      	ldrb	r3, [r7, #30]
2000053a:	3b02      	subs	r3, #2
2000053c:	77bb      	strb	r3, [r7, #30]
2000053e:	e009      	b.n	20000554 <CheckSum+0x1ca>
20000540:	697b      	ldr	r3, [r7, #20]
20000542:	b2db      	uxtb	r3, r3
20000544:	461a      	mov	r2, r3
20000546:	687b      	ldr	r3, [r7, #4]
20000548:	4413      	add	r3, r2
2000054a:	607b      	str	r3, [r7, #4]
2000054c:	7fbb      	ldrb	r3, [r7, #30]
2000054e:	3b03      	subs	r3, #3
20000550:	77bb      	strb	r3, [r7, #30]
20000552:	bf00      	nop
20000554:	e01a      	b.n	2000058c <CheckSum+0x202>
20000556:	697b      	ldr	r3, [r7, #20]
20000558:	b2db      	uxtb	r3, r3
2000055a:	461a      	mov	r2, r3
2000055c:	687b      	ldr	r3, [r7, #4]
2000055e:	4413      	add	r3, r2
20000560:	607b      	str	r3, [r7, #4]
20000562:	697b      	ldr	r3, [r7, #20]
20000564:	0a1b      	lsrs	r3, r3, #8
20000566:	b2db      	uxtb	r3, r3
20000568:	461a      	mov	r2, r3
2000056a:	687b      	ldr	r3, [r7, #4]
2000056c:	4413      	add	r3, r2
2000056e:	607b      	str	r3, [r7, #4]
20000570:	697b      	ldr	r3, [r7, #20]
20000572:	0c1b      	lsrs	r3, r3, #16
20000574:	b2db      	uxtb	r3, r3
20000576:	461a      	mov	r2, r3
20000578:	687b      	ldr	r3, [r7, #4]
2000057a:	4413      	add	r3, r2
2000057c:	607b      	str	r3, [r7, #4]
2000057e:	697b      	ldr	r3, [r7, #20]
20000580:	0e1b      	lsrs	r3, r3, #24
20000582:	b2db      	uxtb	r3, r3
20000584:	461a      	mov	r2, r3
20000586:	687b      	ldr	r3, [r7, #4]
20000588:	4413      	add	r3, r2
2000058a:	607b      	str	r3, [r7, #4]
2000058c:	68fb      	ldr	r3, [r7, #12]
2000058e:	3304      	adds	r3, #4
20000590:	60fb      	str	r3, [r7, #12]
20000592:	69bb      	ldr	r3, [r7, #24]
20000594:	3304      	adds	r3, #4
20000596:	61bb      	str	r3, [r7, #24]
20000598:	69bb      	ldr	r3, [r7, #24]
2000059a:	68ba      	ldr	r2, [r7, #8]
2000059c:	429a      	cmp	r2, r3
2000059e:	f63f af17 	bhi.w	200003d0 <CheckSum+0x46>
200005a2:	687b      	ldr	r3, [r7, #4]
200005a4:	4618      	mov	r0, r3
200005a6:	3720      	adds	r7, #32
200005a8:	46bd      	mov	sp, r7
200005aa:	bd80      	pop	{r7, pc}

200005ac <Verify>:
200005ac:	e92d 43b0 	stmdb	sp!, {r4, r5, r7, r8, r9, lr}
200005b0:	b08a      	sub	sp, #40	; 0x28
200005b2:	af00      	add	r7, sp, #0
200005b4:	60f8      	str	r0, [r7, #12]
200005b6:	60b9      	str	r1, [r7, #8]
200005b8:	607a      	str	r2, [r7, #4]
200005ba:	603b      	str	r3, [r7, #0]
200005bc:	2300      	movs	r3, #0
200005be:	623b      	str	r3, [r7, #32]
200005c0:	2300      	movs	r3, #0
200005c2:	627b      	str	r3, [r7, #36]	; 0x24
200005c4:	2300      	movs	r3, #0
200005c6:	75fb      	strb	r3, [r7, #23]
200005c8:	687b      	ldr	r3, [r7, #4]
200005ca:	009b      	lsls	r3, r3, #2
200005cc:	607b      	str	r3, [r7, #4]
200005ce:	683b      	ldr	r3, [r7, #0]
200005d0:	f003 020f 	and.w	r2, r3, #15
200005d4:	68fb      	ldr	r3, [r7, #12]
200005d6:	18d0      	adds	r0, r2, r3
200005d8:	683b      	ldr	r3, [r7, #0]
200005da:	0c1b      	lsrs	r3, r3, #16
200005dc:	f003 030f 	and.w	r3, r3, #15
200005e0:	687a      	ldr	r2, [r7, #4]
200005e2:	1ad3      	subs	r3, r2, r3
200005e4:	6a3a      	ldr	r2, [r7, #32]
200005e6:	4619      	mov	r1, r3
200005e8:	f7ff fecf 	bl	2000038a <CheckSum>
200005ec:	4603      	mov	r3, r0
200005ee:	461a      	mov	r2, r3
200005f0:	f04f 0300 	mov.w	r3, #0
200005f4:	e9c7 2306 	strd	r2, r3, [r7, #24]
200005f8:	e02b      	b.n	20000652 <Verify+0xa6>
200005fa:	68fa      	ldr	r2, [r7, #12]
200005fc:	6a7b      	ldr	r3, [r7, #36]	; 0x24
200005fe:	18d1      	adds	r1, r2, r3
20000600:	f107 0317 	add.w	r3, r7, #23
20000604:	2201      	movs	r2, #1
20000606:	4618      	mov	r0, r3
20000608:	f000 faf7 	bl	20000bfa <sFLASH_ReadBuffer>
2000060c:	6a7a      	ldr	r2, [r7, #36]	; 0x24
2000060e:	68bb      	ldr	r3, [r7, #8]
20000610:	4413      	add	r3, r2
20000612:	781a      	ldrb	r2, [r3, #0]
20000614:	7dfb      	ldrb	r3, [r7, #23]
20000616:	429a      	cmp	r2, r3
20000618:	d018      	beq.n	2000064c <Verify+0xa0>
2000061a:	e9d7 0106 	ldrd	r0, r1, [r7, #24]
2000061e:	f04f 0200 	mov.w	r2, #0
20000622:	f04f 0300 	mov.w	r3, #0
20000626:	0003      	movs	r3, r0
20000628:	2200      	movs	r2, #0
2000062a:	68f9      	ldr	r1, [r7, #12]
2000062c:	4608      	mov	r0, r1
2000062e:	f04f 0100 	mov.w	r1, #0
20000632:	eb12 0800 	adds.w	r8, r2, r0
20000636:	eb43 0901 	adc.w	r9, r3, r1
2000063a:	6a7b      	ldr	r3, [r7, #36]	; 0x24
2000063c:	461a      	mov	r2, r3
2000063e:	f04f 0300 	mov.w	r3, #0
20000642:	eb18 0402 	adds.w	r4, r8, r2
20000646:	eb49 0503 	adc.w	r5, r9, r3
2000064a:	e00e      	b.n	2000066a <Verify+0xbe>
2000064c:	6a7b      	ldr	r3, [r7, #36]	; 0x24
2000064e:	3301      	adds	r3, #1
20000650:	627b      	str	r3, [r7, #36]	; 0x24
20000652:	687a      	ldr	r2, [r7, #4]
20000654:	6a7b      	ldr	r3, [r7, #36]	; 0x24
20000656:	429a      	cmp	r2, r3
20000658:	d8cf      	bhi.n	200005fa <Verify+0x4e>
2000065a:	e9d7 2306 	ldrd	r2, r3, [r7, #24]
2000065e:	f04f 0400 	mov.w	r4, #0
20000662:	f04f 0500 	mov.w	r5, #0
20000666:	0015      	movs	r5, r2
20000668:	2400      	movs	r4, #0
2000066a:	4622      	mov	r2, r4
2000066c:	462b      	mov	r3, r5
2000066e:	4610      	mov	r0, r2
20000670:	4619      	mov	r1, r3
20000672:	3728      	adds	r7, #40	; 0x28
20000674:	46bd      	mov	sp, r7
20000676:	e8bd 83b0 	ldmia.w	sp!, {r4, r5, r7, r8, r9, pc}
2000067a:	bf00      	nop

2000067c <MX_GPIO_Init>:
2000067c:	b580      	push	{r7, lr}
2000067e:	b088      	sub	sp, #32
20000680:	af00      	add	r7, sp, #0
20000682:	f107 030c 	add.w	r3, r7, #12
20000686:	2200      	movs	r2, #0
20000688:	601a      	str	r2, [r3, #0]
2000068a:	605a      	str	r2, [r3, #4]
2000068c:	609a      	str	r2, [r3, #8]
2000068e:	60da      	str	r2, [r3, #12]
20000690:	611a      	str	r2, [r3, #16]
20000692:	2300      	movs	r3, #0
20000694:	60bb      	str	r3, [r7, #8]
20000696:	4b2a      	ldr	r3, [pc, #168]	; (20000740 <MX_GPIO_Init+0xc4>)
20000698:	6b1b      	ldr	r3, [r3, #48]	; 0x30
2000069a:	4a29      	ldr	r2, [pc, #164]	; (20000740 <MX_GPIO_Init+0xc4>)
2000069c:	f043 0304 	orr.w	r3, r3, #4
200006a0:	6313      	str	r3, [r2, #48]	; 0x30
200006a2:	4b27      	ldr	r3, [pc, #156]	; (20000740 <MX_GPIO_Init+0xc4>)
200006a4:	6b1b      	ldr	r3, [r3, #48]	; 0x30
200006a6:	f003 0304 	and.w	r3, r3, #4
200006aa:	60bb      	str	r3, [r7, #8]
200006ac:	68bb      	ldr	r3, [r7, #8]
200006ae:	2300      	movs	r3, #0
200006b0:	607b      	str	r3, [r7, #4]
200006b2:	4b23      	ldr	r3, [pc, #140]	; (20000740 <MX_GPIO_Init+0xc4>)
200006b4:	6b1b      	ldr	r3, [r3, #48]	; 0x30
200006b6:	4a22      	ldr	r2, [pc, #136]	; (20000740 <MX_GPIO_Init+0xc4>)
200006b8:	f043 0380 	orr.w	r3, r3, #128	; 0x80
200006bc:	6313      	str	r3, [r2, #48]	; 0x30
200006be:	4b20      	ldr	r3, [pc, #128]	; (20000740 <MX_GPIO_Init+0xc4>)
200006c0:	6b1b      	ldr	r3, [r3, #48]	; 0x30
200006c2:	f003 0380 	and.w	r3, r3, #128	; 0x80
200006c6:	607b      	str	r3, [r7, #4]
200006c8:	687b      	ldr	r3, [r7, #4]
200006ca:	2300      	movs	r3, #0
200006cc:	603b      	str	r3, [r7, #0]
200006ce:	4b1c      	ldr	r3, [pc, #112]	; (20000740 <MX_GPIO_Init+0xc4>)
200006d0:	6b1b      	ldr	r3, [r3, #48]	; 0x30
200006d2:	4a1b      	ldr	r2, [pc, #108]	; (20000740 <MX_GPIO_Init+0xc4>)
200006d4:	f043 0301 	orr.w	r3, r3, #1
200006d8:	6313      	str	r3, [r2, #48]	; 0x30
200006da:	4b19      	ldr	r3, [pc, #100]	; (20000740 <MX_GPIO_Init+0xc4>)
200006dc:	6b1b      	ldr	r3, [r3, #48]	; 0x30
200006de:	f003 0301 	and.w	r3, r3, #1
200006e2:	603b      	str	r3, [r7, #0]
200006e4:	683b      	ldr	r3, [r7, #0]
200006e6:	2200      	movs	r2, #0
200006e8:	f44f 5100 	mov.w	r1, #8192	; 0x2000
200006ec:	4815      	ldr	r0, [pc, #84]	; (20000744 <MX_GPIO_Init+0xc8>)
200006ee:	f002 f9d2 	bl	20002a96 <HAL_GPIO_WritePin>
200006f2:	2200      	movs	r2, #0
200006f4:	2110      	movs	r1, #16
200006f6:	4814      	ldr	r0, [pc, #80]	; (20000748 <MX_GPIO_Init+0xcc>)
200006f8:	f002 f9cd 	bl	20002a96 <HAL_GPIO_WritePin>
200006fc:	f44f 5300 	mov.w	r3, #8192	; 0x2000
20000700:	60fb      	str	r3, [r7, #12]
20000702:	2301      	movs	r3, #1
20000704:	613b      	str	r3, [r7, #16]
20000706:	2300      	movs	r3, #0
20000708:	617b      	str	r3, [r7, #20]
2000070a:	2300      	movs	r3, #0
2000070c:	61bb      	str	r3, [r7, #24]
2000070e:	f107 030c 	add.w	r3, r7, #12
20000712:	4619      	mov	r1, r3
20000714:	480b      	ldr	r0, [pc, #44]	; (20000744 <MX_GPIO_Init+0xc8>)
20000716:	f001 ff43 	bl	200025a0 <HAL_GPIO_Init>
2000071a:	2310      	movs	r3, #16
2000071c:	60fb      	str	r3, [r7, #12]
2000071e:	2301      	movs	r3, #1
20000720:	613b      	str	r3, [r7, #16]
20000722:	2300      	movs	r3, #0
20000724:	617b      	str	r3, [r7, #20]
20000726:	2303      	movs	r3, #3
20000728:	61bb      	str	r3, [r7, #24]
2000072a:	f107 030c 	add.w	r3, r7, #12
2000072e:	4619      	mov	r1, r3
20000730:	4805      	ldr	r0, [pc, #20]	; (20000748 <MX_GPIO_Init+0xcc>)
20000732:	f001 ff35 	bl	200025a0 <HAL_GPIO_Init>
20000736:	bf00      	nop
20000738:	3720      	adds	r7, #32
2000073a:	46bd      	mov	sp, r7
2000073c:	bd80      	pop	{r7, pc}
2000073e:	bf00      	nop
20000740:	40023800 	.word	0x40023800
20000744:	40020800 	.word	0x40020800
20000748:	40020000 	.word	0x40020000

2000074c <sys_init>:
2000074c:	b580      	push	{r7, lr}
2000074e:	af00      	add	r7, sp, #0
20000750:	f000 fbe8 	bl	20000f24 <HAL_Init>
20000754:	f000 f811 	bl	2000077a <SystemClock_Config>
20000758:	f7ff ff90 	bl	2000067c <MX_GPIO_Init>
2000075c:	f000 f87c 	bl	20000858 <MX_SPI1_Init>
20000760:	bf00      	nop
20000762:	bd80      	pop	{r7, pc}

20000764 <main>:
20000764:	b580      	push	{r7, lr}
20000766:	af00      	add	r7, sp, #0
20000768:	f000 fbdc 	bl	20000f24 <HAL_Init>
2000076c:	f000 f805 	bl	2000077a <SystemClock_Config>
20000770:	f7ff ff84 	bl	2000067c <MX_GPIO_Init>
20000774:	f000 f870 	bl	20000858 <MX_SPI1_Init>
20000778:	e7fe      	b.n	20000778 <main+0x14>

2000077a <SystemClock_Config>:
2000077a:	b580      	push	{r7, lr}
2000077c:	b094      	sub	sp, #80	; 0x50
2000077e:	af00      	add	r7, sp, #0
20000780:	f107 0320 	add.w	r3, r7, #32
20000784:	2230      	movs	r2, #48	; 0x30
20000786:	2100      	movs	r1, #0
20000788:	4618      	mov	r0, r3
2000078a:	f005 fbe3 	bl	20005f54 <memset>
2000078e:	f107 030c 	add.w	r3, r7, #12
20000792:	2200      	movs	r2, #0
20000794:	601a      	str	r2, [r3, #0]
20000796:	605a      	str	r2, [r3, #4]
20000798:	609a      	str	r2, [r3, #8]
2000079a:	60da      	str	r2, [r3, #12]
2000079c:	611a      	str	r2, [r3, #16]
2000079e:	2300      	movs	r3, #0
200007a0:	60bb      	str	r3, [r7, #8]
200007a2:	4b28      	ldr	r3, [pc, #160]	; (20000844 <SystemClock_Config+0xca>)
200007a4:	6c1b      	ldr	r3, [r3, #64]	; 0x40
200007a6:	4a27      	ldr	r2, [pc, #156]	; (20000844 <SystemClock_Config+0xca>)
200007a8:	f043 5380 	orr.w	r3, r3, #268435456	; 0x10000000
200007ac:	6413      	str	r3, [r2, #64]	; 0x40
200007ae:	4b25      	ldr	r3, [pc, #148]	; (20000844 <SystemClock_Config+0xca>)
200007b0:	6c1b      	ldr	r3, [r3, #64]	; 0x40
200007b2:	f003 5380 	and.w	r3, r3, #268435456	; 0x10000000
200007b6:	60bb      	str	r3, [r7, #8]
200007b8:	68bb      	ldr	r3, [r7, #8]
200007ba:	2300      	movs	r3, #0
200007bc:	607b      	str	r3, [r7, #4]
200007be:	4b22      	ldr	r3, [pc, #136]	; (20000848 <SystemClock_Config+0xce>)
200007c0:	681b      	ldr	r3, [r3, #0]
200007c2:	4a21      	ldr	r2, [pc, #132]	; (20000848 <SystemClock_Config+0xce>)
200007c4:	f443 4340 	orr.w	r3, r3, #49152	; 0xc000
200007c8:	6013      	str	r3, [r2, #0]
200007ca:	4b1f      	ldr	r3, [pc, #124]	; (20000848 <SystemClock_Config+0xce>)
200007cc:	681b      	ldr	r3, [r3, #0]
200007ce:	f403 4340 	and.w	r3, r3, #49152	; 0xc000
200007d2:	607b      	str	r3, [r7, #4]
200007d4:	687b      	ldr	r3, [r7, #4]
200007d6:	2301      	movs	r3, #1
200007d8:	623b      	str	r3, [r7, #32]
200007da:	f44f 3380 	mov.w	r3, #65536	; 0x10000
200007de:	627b      	str	r3, [r7, #36]	; 0x24
200007e0:	2302      	movs	r3, #2
200007e2:	63bb      	str	r3, [r7, #56]	; 0x38
200007e4:	f44f 0380 	mov.w	r3, #4194304	; 0x400000
200007e8:	63fb      	str	r3, [r7, #60]	; 0x3c
200007ea:	230c      	movs	r3, #12
200007ec:	643b      	str	r3, [r7, #64]	; 0x40
200007ee:	2360      	movs	r3, #96	; 0x60
200007f0:	647b      	str	r3, [r7, #68]	; 0x44
200007f2:	2302      	movs	r3, #2
200007f4:	64bb      	str	r3, [r7, #72]	; 0x48
200007f6:	2304      	movs	r3, #4
200007f8:	64fb      	str	r3, [r7, #76]	; 0x4c
200007fa:	f107 0320 	add.w	r3, r7, #32
200007fe:	4618      	mov	r0, r3
20000800:	f002 f9cb 	bl	20002b9a <HAL_RCC_OscConfig>
20000804:	4603      	mov	r3, r0
20000806:	2b00      	cmp	r3, #0
20000808:	d001      	beq.n	2000080e <SystemClock_Config+0x94>
2000080a:	f000 f81f 	bl	2000084c <Error_Handler>
2000080e:	230f      	movs	r3, #15
20000810:	60fb      	str	r3, [r7, #12]
20000812:	2302      	movs	r3, #2
20000814:	613b      	str	r3, [r7, #16]
20000816:	2300      	movs	r3, #0
20000818:	617b      	str	r3, [r7, #20]
2000081a:	f44f 5380 	mov.w	r3, #4096	; 0x1000
2000081e:	61bb      	str	r3, [r7, #24]
20000820:	2300      	movs	r3, #0
20000822:	61fb      	str	r3, [r7, #28]
20000824:	f107 030c 	add.w	r3, r7, #12
20000828:	2103      	movs	r1, #3
2000082a:	4618      	mov	r0, r3
2000082c:	f002 fc2c 	bl	20003088 <HAL_RCC_ClockConfig>
20000830:	4603      	mov	r3, r0
20000832:	2b00      	cmp	r3, #0
20000834:	d001      	beq.n	2000083a <SystemClock_Config+0xc0>
20000836:	f000 f809 	bl	2000084c <Error_Handler>
2000083a:	bf00      	nop
2000083c:	3750      	adds	r7, #80	; 0x50
2000083e:	46bd      	mov	sp, r7
20000840:	bd80      	pop	{r7, pc}
20000842:	bf00      	nop
20000844:	40023800 	.word	0x40023800
20000848:	40007000 	.word	0x40007000

2000084c <Error_Handler>:
2000084c:	b480      	push	{r7}
2000084e:	af00      	add	r7, sp, #0
20000850:	b672      	cpsid	i
20000852:	bf00      	nop
20000854:	e7fe      	b.n	20000854 <Error_Handler+0x8>
20000856:	bf00      	nop

20000858 <MX_SPI1_Init>:
20000858:	b580      	push	{r7, lr}
2000085a:	af00      	add	r7, sp, #0
2000085c:	4b17      	ldr	r3, [pc, #92]	; (200008bc <MX_SPI1_Init+0x64>)
2000085e:	4a18      	ldr	r2, [pc, #96]	; (200008c0 <MX_SPI1_Init+0x68>)
20000860:	601a      	str	r2, [r3, #0]
20000862:	4b16      	ldr	r3, [pc, #88]	; (200008bc <MX_SPI1_Init+0x64>)
20000864:	f44f 7282 	mov.w	r2, #260	; 0x104
20000868:	605a      	str	r2, [r3, #4]
2000086a:	4b14      	ldr	r3, [pc, #80]	; (200008bc <MX_SPI1_Init+0x64>)
2000086c:	2200      	movs	r2, #0
2000086e:	609a      	str	r2, [r3, #8]
20000870:	4b12      	ldr	r3, [pc, #72]	; (200008bc <MX_SPI1_Init+0x64>)
20000872:	2200      	movs	r2, #0
20000874:	60da      	str	r2, [r3, #12]
20000876:	4b11      	ldr	r3, [pc, #68]	; (200008bc <MX_SPI1_Init+0x64>)
20000878:	2200      	movs	r2, #0
2000087a:	611a      	str	r2, [r3, #16]
2000087c:	4b0f      	ldr	r3, [pc, #60]	; (200008bc <MX_SPI1_Init+0x64>)
2000087e:	2200      	movs	r2, #0
20000880:	615a      	str	r2, [r3, #20]
20000882:	4b0e      	ldr	r3, [pc, #56]	; (200008bc <MX_SPI1_Init+0x64>)
20000884:	f44f 7200 	mov.w	r2, #512	; 0x200
20000888:	619a      	str	r2, [r3, #24]
2000088a:	4b0c      	ldr	r3, [pc, #48]	; (200008bc <MX_SPI1_Init+0x64>)
2000088c:	2200      	movs	r2, #0
2000088e:	61da      	str	r2, [r3, #28]
20000890:	4b0a      	ldr	r3, [pc, #40]	; (200008bc <MX_SPI1_Init+0x64>)
20000892:	2200      	movs	r2, #0
20000894:	621a      	str	r2, [r3, #32]
20000896:	4b09      	ldr	r3, [pc, #36]	; (200008bc <MX_SPI1_Init+0x64>)
20000898:	2200      	movs	r2, #0
2000089a:	625a      	str	r2, [r3, #36]	; 0x24
2000089c:	4b07      	ldr	r3, [pc, #28]	; (200008bc <MX_SPI1_Init+0x64>)
2000089e:	2200      	movs	r2, #0
200008a0:	629a      	str	r2, [r3, #40]	; 0x28
200008a2:	4b06      	ldr	r3, [pc, #24]	; (200008bc <MX_SPI1_Init+0x64>)
200008a4:	220a      	movs	r2, #10
200008a6:	62da      	str	r2, [r3, #44]	; 0x2c
200008a8:	4804      	ldr	r0, [pc, #16]	; (200008bc <MX_SPI1_Init+0x64>)
200008aa:	f002 ff19 	bl	200036e0 <HAL_SPI_Init>
200008ae:	4603      	mov	r3, r0
200008b0:	2b00      	cmp	r3, #0
200008b2:	d001      	beq.n	200008b8 <MX_SPI1_Init+0x60>
200008b4:	f7ff ffca 	bl	2000084c <Error_Handler>
200008b8:	bf00      	nop
200008ba:	bd80      	pop	{r7, pc}
200008bc:	20000238 	.word	0x20000238
200008c0:	40013000 	.word	0x40013000

200008c4 <HAL_SPI_MspInit>:
200008c4:	b580      	push	{r7, lr}
200008c6:	b08a      	sub	sp, #40	; 0x28
200008c8:	af00      	add	r7, sp, #0
200008ca:	6078      	str	r0, [r7, #4]
200008cc:	f107 0314 	add.w	r3, r7, #20
200008d0:	2200      	movs	r2, #0
200008d2:	601a      	str	r2, [r3, #0]
200008d4:	605a      	str	r2, [r3, #4]
200008d6:	609a      	str	r2, [r3, #8]
200008d8:	60da      	str	r2, [r3, #12]
200008da:	611a      	str	r2, [r3, #16]
200008dc:	687b      	ldr	r3, [r7, #4]
200008de:	681b      	ldr	r3, [r3, #0]
200008e0:	4a19      	ldr	r2, [pc, #100]	; (20000948 <HAL_SPI_MspInit+0x84>)
200008e2:	4293      	cmp	r3, r2
200008e4:	d12b      	bne.n	2000093e <HAL_SPI_MspInit+0x7a>
200008e6:	2300      	movs	r3, #0
200008e8:	613b      	str	r3, [r7, #16]
200008ea:	4b18      	ldr	r3, [pc, #96]	; (2000094c <HAL_SPI_MspInit+0x88>)
200008ec:	6c5b      	ldr	r3, [r3, #68]	; 0x44
200008ee:	4a17      	ldr	r2, [pc, #92]	; (2000094c <HAL_SPI_MspInit+0x88>)
200008f0:	f443 5380 	orr.w	r3, r3, #4096	; 0x1000
200008f4:	6453      	str	r3, [r2, #68]	; 0x44
200008f6:	4b15      	ldr	r3, [pc, #84]	; (2000094c <HAL_SPI_MspInit+0x88>)
200008f8:	6c5b      	ldr	r3, [r3, #68]	; 0x44
200008fa:	f403 5380 	and.w	r3, r3, #4096	; 0x1000
200008fe:	613b      	str	r3, [r7, #16]
20000900:	693b      	ldr	r3, [r7, #16]
20000902:	2300      	movs	r3, #0
20000904:	60fb      	str	r3, [r7, #12]
20000906:	4b11      	ldr	r3, [pc, #68]	; (2000094c <HAL_SPI_MspInit+0x88>)
20000908:	6b1b      	ldr	r3, [r3, #48]	; 0x30
2000090a:	4a10      	ldr	r2, [pc, #64]	; (2000094c <HAL_SPI_MspInit+0x88>)
2000090c:	f043 0301 	orr.w	r3, r3, #1
20000910:	6313      	str	r3, [r2, #48]	; 0x30
20000912:	4b0e      	ldr	r3, [pc, #56]	; (2000094c <HAL_SPI_MspInit+0x88>)
20000914:	6b1b      	ldr	r3, [r3, #48]	; 0x30
20000916:	f003 0301 	and.w	r3, r3, #1
2000091a:	60fb      	str	r3, [r7, #12]
2000091c:	68fb      	ldr	r3, [r7, #12]
2000091e:	23e0      	movs	r3, #224	; 0xe0
20000920:	617b      	str	r3, [r7, #20]
20000922:	2302      	movs	r3, #2
20000924:	61bb      	str	r3, [r7, #24]
20000926:	2300      	movs	r3, #0
20000928:	61fb      	str	r3, [r7, #28]
2000092a:	2303      	movs	r3, #3
2000092c:	623b      	str	r3, [r7, #32]
2000092e:	2305      	movs	r3, #5
20000930:	627b      	str	r3, [r7, #36]	; 0x24
20000932:	f107 0314 	add.w	r3, r7, #20
20000936:	4619      	mov	r1, r3
20000938:	4805      	ldr	r0, [pc, #20]	; (20000950 <HAL_SPI_MspInit+0x8c>)
2000093a:	f001 fe31 	bl	200025a0 <HAL_GPIO_Init>
2000093e:	bf00      	nop
20000940:	3728      	adds	r7, #40	; 0x28
20000942:	46bd      	mov	sp, r7
20000944:	bd80      	pop	{r7, pc}
20000946:	bf00      	nop
20000948:	40013000 	.word	0x40013000
2000094c:	40023800 	.word	0x40023800
20000950:	40020000 	.word	0x40020000

20000954 <HAL_SPI_MspDeInit>:
20000954:	b580      	push	{r7, lr}
20000956:	b082      	sub	sp, #8
20000958:	af00      	add	r7, sp, #0
2000095a:	6078      	str	r0, [r7, #4]
2000095c:	687b      	ldr	r3, [r7, #4]
2000095e:	681b      	ldr	r3, [r3, #0]
20000960:	4a08      	ldr	r2, [pc, #32]	; (20000984 <HAL_SPI_MspDeInit+0x30>)
20000962:	4293      	cmp	r3, r2
20000964:	d109      	bne.n	2000097a <HAL_SPI_MspDeInit+0x26>
20000966:	4b08      	ldr	r3, [pc, #32]	; (20000988 <HAL_SPI_MspDeInit+0x34>)
20000968:	6c5b      	ldr	r3, [r3, #68]	; 0x44
2000096a:	4a07      	ldr	r2, [pc, #28]	; (20000988 <HAL_SPI_MspDeInit+0x34>)
2000096c:	f423 5380 	bic.w	r3, r3, #4096	; 0x1000
20000970:	6453      	str	r3, [r2, #68]	; 0x44
20000972:	21e0      	movs	r1, #224	; 0xe0
20000974:	4805      	ldr	r0, [pc, #20]	; (2000098c <HAL_SPI_MspDeInit+0x38>)
20000976:	f001 ff95 	bl	200028a4 <HAL_GPIO_DeInit>
2000097a:	bf00      	nop
2000097c:	3708      	adds	r7, #8
2000097e:	46bd      	mov	sp, r7
20000980:	bd80      	pop	{r7, pc}
20000982:	bf00      	nop
20000984:	40013000 	.word	0x40013000
20000988:	40023800 	.word	0x40023800
2000098c:	40020000 	.word	0x40020000

20000990 <sFLASH_DeInit>:
20000990:	b580      	push	{r7, lr}
20000992:	af00      	add	r7, sp, #0
20000994:	4802      	ldr	r0, [pc, #8]	; (200009a0 <sFLASH_DeInit+0x10>)
20000996:	f7ff ffdd 	bl	20000954 <HAL_SPI_MspDeInit>
2000099a:	bf00      	nop
2000099c:	bd80      	pop	{r7, pc}
2000099e:	bf00      	nop
200009a0:	20000238 	.word	0x20000238

200009a4 <sFLASH_Init>:
200009a4:	b580      	push	{r7, lr}
200009a6:	af00      	add	r7, sp, #0
200009a8:	f7ff ff56 	bl	20000858 <MX_SPI1_Init>
200009ac:	2201      	movs	r2, #1
200009ae:	2110      	movs	r1, #16
200009b0:	4802      	ldr	r0, [pc, #8]	; (200009bc <sFLASH_Init+0x18>)
200009b2:	f002 f870 	bl	20002a96 <HAL_GPIO_WritePin>
200009b6:	bf00      	nop
200009b8:	bd80      	pop	{r7, pc}
200009ba:	bf00      	nop
200009bc:	40020000 	.word	0x40020000

200009c0 <sFLASH_EraseSector>:
200009c0:	b580      	push	{r7, lr}
200009c2:	b082      	sub	sp, #8
200009c4:	af00      	add	r7, sp, #0
200009c6:	6078      	str	r0, [r7, #4]
200009c8:	f000 f9ca 	bl	20000d60 <sFLASH_WriteEnable>
200009cc:	2200      	movs	r2, #0
200009ce:	2110      	movs	r1, #16
200009d0:	4810      	ldr	r0, [pc, #64]	; (20000a14 <sFLASH_EraseSector+0x54>)
200009d2:	f002 f860 	bl	20002a96 <HAL_GPIO_WritePin>
200009d6:	20d8      	movs	r0, #216	; 0xd8
200009d8:	f000 f9ac 	bl	20000d34 <sFLASH_SendByte>
200009dc:	687b      	ldr	r3, [r7, #4]
200009de:	0c1b      	lsrs	r3, r3, #16
200009e0:	b2db      	uxtb	r3, r3
200009e2:	4618      	mov	r0, r3
200009e4:	f000 f9a6 	bl	20000d34 <sFLASH_SendByte>
200009e8:	687b      	ldr	r3, [r7, #4]
200009ea:	0a1b      	lsrs	r3, r3, #8
200009ec:	b2db      	uxtb	r3, r3
200009ee:	4618      	mov	r0, r3
200009f0:	f000 f9a0 	bl	20000d34 <sFLASH_SendByte>
200009f4:	687b      	ldr	r3, [r7, #4]
200009f6:	b2db      	uxtb	r3, r3
200009f8:	4618      	mov	r0, r3
200009fa:	f000 f99b 	bl	20000d34 <sFLASH_SendByte>
200009fe:	2201      	movs	r2, #1
20000a00:	2110      	movs	r1, #16
20000a02:	4804      	ldr	r0, [pc, #16]	; (20000a14 <sFLASH_EraseSector+0x54>)
20000a04:	f002 f847 	bl	20002a96 <HAL_GPIO_WritePin>
20000a08:	f000 f9be 	bl	20000d88 <sFLASH_WaitForWriteEnd>
20000a0c:	bf00      	nop
20000a0e:	3708      	adds	r7, #8
20000a10:	46bd      	mov	sp, r7
20000a12:	bd80      	pop	{r7, pc}
20000a14:	40020000 	.word	0x40020000

20000a18 <sFLASH_EraseBulk>:
20000a18:	b580      	push	{r7, lr}
20000a1a:	af00      	add	r7, sp, #0
20000a1c:	f000 f9a0 	bl	20000d60 <sFLASH_WriteEnable>
20000a20:	2200      	movs	r2, #0
20000a22:	2110      	movs	r1, #16
20000a24:	4807      	ldr	r0, [pc, #28]	; (20000a44 <sFLASH_EraseBulk+0x2c>)
20000a26:	f002 f836 	bl	20002a96 <HAL_GPIO_WritePin>
20000a2a:	20c7      	movs	r0, #199	; 0xc7
20000a2c:	f000 f982 	bl	20000d34 <sFLASH_SendByte>
20000a30:	2201      	movs	r2, #1
20000a32:	2110      	movs	r1, #16
20000a34:	4803      	ldr	r0, [pc, #12]	; (20000a44 <sFLASH_EraseBulk+0x2c>)
20000a36:	f002 f82e 	bl	20002a96 <HAL_GPIO_WritePin>
20000a3a:	f000 f9a5 	bl	20000d88 <sFLASH_WaitForWriteEnd>
20000a3e:	bf00      	nop
20000a40:	bd80      	pop	{r7, pc}
20000a42:	bf00      	nop
20000a44:	40020000 	.word	0x40020000

20000a48 <sFLASH_WritePage>:
20000a48:	b580      	push	{r7, lr}
20000a4a:	b084      	sub	sp, #16
20000a4c:	af00      	add	r7, sp, #0
20000a4e:	60f8      	str	r0, [r7, #12]
20000a50:	60b9      	str	r1, [r7, #8]
20000a52:	607a      	str	r2, [r7, #4]
20000a54:	f000 f984 	bl	20000d60 <sFLASH_WriteEnable>
20000a58:	2200      	movs	r2, #0
20000a5a:	2110      	movs	r1, #16
20000a5c:	4817      	ldr	r0, [pc, #92]	; (20000abc <sFLASH_WritePage+0x74>)
20000a5e:	f002 f81a 	bl	20002a96 <HAL_GPIO_WritePin>
20000a62:	2002      	movs	r0, #2
20000a64:	f000 f966 	bl	20000d34 <sFLASH_SendByte>
20000a68:	68bb      	ldr	r3, [r7, #8]
20000a6a:	0c1b      	lsrs	r3, r3, #16
20000a6c:	b2db      	uxtb	r3, r3
20000a6e:	4618      	mov	r0, r3
20000a70:	f000 f960 	bl	20000d34 <sFLASH_SendByte>
20000a74:	68bb      	ldr	r3, [r7, #8]
20000a76:	0a1b      	lsrs	r3, r3, #8
20000a78:	b2db      	uxtb	r3, r3
20000a7a:	4618      	mov	r0, r3
20000a7c:	f000 f95a 	bl	20000d34 <sFLASH_SendByte>
20000a80:	68bb      	ldr	r3, [r7, #8]
20000a82:	b2db      	uxtb	r3, r3
20000a84:	4618      	mov	r0, r3
20000a86:	f000 f955 	bl	20000d34 <sFLASH_SendByte>
20000a8a:	e007      	b.n	20000a9c <sFLASH_WritePage+0x54>
20000a8c:	68fb      	ldr	r3, [r7, #12]
20000a8e:	781b      	ldrb	r3, [r3, #0]
20000a90:	4618      	mov	r0, r3
20000a92:	f000 f94f 	bl	20000d34 <sFLASH_SendByte>
20000a96:	68fb      	ldr	r3, [r7, #12]
20000a98:	3301      	adds	r3, #1
20000a9a:	60fb      	str	r3, [r7, #12]
20000a9c:	687b      	ldr	r3, [r7, #4]
20000a9e:	1e5a      	subs	r2, r3, #1
20000aa0:	607a      	str	r2, [r7, #4]
20000aa2:	2b00      	cmp	r3, #0
20000aa4:	d1f2      	bne.n	20000a8c <sFLASH_WritePage+0x44>
20000aa6:	2201      	movs	r2, #1
20000aa8:	2110      	movs	r1, #16
20000aaa:	4804      	ldr	r0, [pc, #16]	; (20000abc <sFLASH_WritePage+0x74>)
20000aac:	f001 fff3 	bl	20002a96 <HAL_GPIO_WritePin>
20000ab0:	f000 f96a 	bl	20000d88 <sFLASH_WaitForWriteEnd>
20000ab4:	bf00      	nop
20000ab6:	3710      	adds	r7, #16
20000ab8:	46bd      	mov	sp, r7
20000aba:	bd80      	pop	{r7, pc}
20000abc:	40020000 	.word	0x40020000

20000ac0 <sFLASH_WriteBuffer>:
20000ac0:	b580      	push	{r7, lr}
20000ac2:	b08a      	sub	sp, #40	; 0x28
20000ac4:	af00      	add	r7, sp, #0
20000ac6:	60f8      	str	r0, [r7, #12]
20000ac8:	60b9      	str	r1, [r7, #8]
20000aca:	607a      	str	r2, [r7, #4]
20000acc:	2300      	movs	r3, #0
20000ace:	627b      	str	r3, [r7, #36]	; 0x24
20000ad0:	2300      	movs	r3, #0
20000ad2:	623b      	str	r3, [r7, #32]
20000ad4:	2300      	movs	r3, #0
20000ad6:	61fb      	str	r3, [r7, #28]
20000ad8:	2300      	movs	r3, #0
20000ada:	61bb      	str	r3, [r7, #24]
20000adc:	2300      	movs	r3, #0
20000ade:	617b      	str	r3, [r7, #20]
20000ae0:	68bb      	ldr	r3, [r7, #8]
20000ae2:	b2db      	uxtb	r3, r3
20000ae4:	61fb      	str	r3, [r7, #28]
20000ae6:	69fb      	ldr	r3, [r7, #28]
20000ae8:	f5c3 7380 	rsb	r3, r3, #256	; 0x100
20000aec:	61bb      	str	r3, [r7, #24]
20000aee:	687b      	ldr	r3, [r7, #4]
20000af0:	0a1b      	lsrs	r3, r3, #8
20000af2:	627b      	str	r3, [r7, #36]	; 0x24
20000af4:	687b      	ldr	r3, [r7, #4]
20000af6:	b2db      	uxtb	r3, r3
20000af8:	623b      	str	r3, [r7, #32]
20000afa:	69fb      	ldr	r3, [r7, #28]
20000afc:	2b00      	cmp	r3, #0
20000afe:	d121      	bne.n	20000b44 <sFLASH_WriteBuffer+0x84>
20000b00:	6a7b      	ldr	r3, [r7, #36]	; 0x24
20000b02:	2b00      	cmp	r3, #0
20000b04:	d113      	bne.n	20000b2e <sFLASH_WriteBuffer+0x6e>
20000b06:	687a      	ldr	r2, [r7, #4]
20000b08:	68b9      	ldr	r1, [r7, #8]
20000b0a:	68f8      	ldr	r0, [r7, #12]
20000b0c:	f7ff ff9c 	bl	20000a48 <sFLASH_WritePage>
20000b10:	e06f      	b.n	20000bf2 <sFLASH_WriteBuffer+0x132>
20000b12:	f44f 7280 	mov.w	r2, #256	; 0x100
20000b16:	68b9      	ldr	r1, [r7, #8]
20000b18:	68f8      	ldr	r0, [r7, #12]
20000b1a:	f7ff ff95 	bl	20000a48 <sFLASH_WritePage>
20000b1e:	68bb      	ldr	r3, [r7, #8]
20000b20:	f503 7380 	add.w	r3, r3, #256	; 0x100
20000b24:	60bb      	str	r3, [r7, #8]
20000b26:	68fb      	ldr	r3, [r7, #12]
20000b28:	f503 7380 	add.w	r3, r3, #256	; 0x100
20000b2c:	60fb      	str	r3, [r7, #12]
20000b2e:	6a7b      	ldr	r3, [r7, #36]	; 0x24
20000b30:	1e5a      	subs	r2, r3, #1
20000b32:	627a      	str	r2, [r7, #36]	; 0x24
20000b34:	2b00      	cmp	r3, #0
20000b36:	d1ec      	bne.n	20000b12 <sFLASH_WriteBuffer+0x52>
20000b38:	6a3a      	ldr	r2, [r7, #32]
20000b3a:	68b9      	ldr	r1, [r7, #8]
20000b3c:	68f8      	ldr	r0, [r7, #12]
20000b3e:	f7ff ff83 	bl	20000a48 <sFLASH_WritePage>
20000b42:	e056      	b.n	20000bf2 <sFLASH_WriteBuffer+0x132>
20000b44:	6a7b      	ldr	r3, [r7, #36]	; 0x24
20000b46:	2b00      	cmp	r3, #0
20000b48:	d120      	bne.n	20000b8c <sFLASH_WriteBuffer+0xcc>
20000b4a:	6a3a      	ldr	r2, [r7, #32]
20000b4c:	69bb      	ldr	r3, [r7, #24]
20000b4e:	429a      	cmp	r2, r3
20000b50:	d916      	bls.n	20000b80 <sFLASH_WriteBuffer+0xc0>
20000b52:	6a3a      	ldr	r2, [r7, #32]
20000b54:	69bb      	ldr	r3, [r7, #24]
20000b56:	1ad3      	subs	r3, r2, r3
20000b58:	617b      	str	r3, [r7, #20]
20000b5a:	69ba      	ldr	r2, [r7, #24]
20000b5c:	68b9      	ldr	r1, [r7, #8]
20000b5e:	68f8      	ldr	r0, [r7, #12]
20000b60:	f7ff ff72 	bl	20000a48 <sFLASH_WritePage>
20000b64:	68ba      	ldr	r2, [r7, #8]
20000b66:	69bb      	ldr	r3, [r7, #24]
20000b68:	4413      	add	r3, r2
20000b6a:	60bb      	str	r3, [r7, #8]
20000b6c:	68fa      	ldr	r2, [r7, #12]
20000b6e:	69bb      	ldr	r3, [r7, #24]
20000b70:	4413      	add	r3, r2
20000b72:	60fb      	str	r3, [r7, #12]
20000b74:	697a      	ldr	r2, [r7, #20]
20000b76:	68b9      	ldr	r1, [r7, #8]
20000b78:	68f8      	ldr	r0, [r7, #12]
20000b7a:	f7ff ff65 	bl	20000a48 <sFLASH_WritePage>
20000b7e:	e038      	b.n	20000bf2 <sFLASH_WriteBuffer+0x132>
20000b80:	687a      	ldr	r2, [r7, #4]
20000b82:	68b9      	ldr	r1, [r7, #8]
20000b84:	68f8      	ldr	r0, [r7, #12]
20000b86:	f7ff ff5f 	bl	20000a48 <sFLASH_WritePage>
20000b8a:	e032      	b.n	20000bf2 <sFLASH_WriteBuffer+0x132>
20000b8c:	687a      	ldr	r2, [r7, #4]
20000b8e:	69bb      	ldr	r3, [r7, #24]
20000b90:	1ad3      	subs	r3, r2, r3
20000b92:	607b      	str	r3, [r7, #4]
20000b94:	687b      	ldr	r3, [r7, #4]
20000b96:	0a1b      	lsrs	r3, r3, #8
20000b98:	627b      	str	r3, [r7, #36]	; 0x24
20000b9a:	687b      	ldr	r3, [r7, #4]
20000b9c:	b2db      	uxtb	r3, r3
20000b9e:	623b      	str	r3, [r7, #32]
20000ba0:	69ba      	ldr	r2, [r7, #24]
20000ba2:	68b9      	ldr	r1, [r7, #8]
20000ba4:	68f8      	ldr	r0, [r7, #12]
20000ba6:	f7ff ff4f 	bl	20000a48 <sFLASH_WritePage>
20000baa:	68ba      	ldr	r2, [r7, #8]
20000bac:	69bb      	ldr	r3, [r7, #24]
20000bae:	4413      	add	r3, r2
20000bb0:	60bb      	str	r3, [r7, #8]
20000bb2:	68fa      	ldr	r2, [r7, #12]
20000bb4:	69bb      	ldr	r3, [r7, #24]
20000bb6:	4413      	add	r3, r2
20000bb8:	60fb      	str	r3, [r7, #12]
20000bba:	e00d      	b.n	20000bd8 <sFLASH_WriteBuffer+0x118>
20000bbc:	f44f 7280 	mov.w	r2, #256	; 0x100
20000bc0:	68b9      	ldr	r1, [r7, #8]
20000bc2:	68f8      	ldr	r0, [r7, #12]
20000bc4:	f7ff ff40 	bl	20000a48 <sFLASH_WritePage>
20000bc8:	68bb      	ldr	r3, [r7, #8]
20000bca:	f503 7380 	add.w	r3, r3, #256	; 0x100
20000bce:	60bb      	str	r3, [r7, #8]
20000bd0:	68fb      	ldr	r3, [r7, #12]
20000bd2:	f503 7380 	add.w	r3, r3, #256	; 0x100
20000bd6:	60fb      	str	r3, [r7, #12]
20000bd8:	6a7b      	ldr	r3, [r7, #36]	; 0x24
20000bda:	1e5a      	subs	r2, r3, #1
20000bdc:	627a      	str	r2, [r7, #36]	; 0x24
20000bde:	2b00      	cmp	r3, #0
20000be0:	d1ec      	bne.n	20000bbc <sFLASH_WriteBuffer+0xfc>
20000be2:	6a3b      	ldr	r3, [r7, #32]
20000be4:	2b00      	cmp	r3, #0
20000be6:	d004      	beq.n	20000bf2 <sFLASH_WriteBuffer+0x132>
20000be8:	6a3a      	ldr	r2, [r7, #32]
20000bea:	68b9      	ldr	r1, [r7, #8]
20000bec:	68f8      	ldr	r0, [r7, #12]
20000bee:	f7ff ff2b 	bl	20000a48 <sFLASH_WritePage>
20000bf2:	bf00      	nop
20000bf4:	3728      	adds	r7, #40	; 0x28
20000bf6:	46bd      	mov	sp, r7
20000bf8:	bd80      	pop	{r7, pc}

20000bfa <sFLASH_ReadBuffer>:
20000bfa:	b580      	push	{r7, lr}
20000bfc:	b084      	sub	sp, #16
20000bfe:	af00      	add	r7, sp, #0
20000c00:	60f8      	str	r0, [r7, #12]
20000c02:	60b9      	str	r1, [r7, #8]
20000c04:	607a      	str	r2, [r7, #4]
20000c06:	2200      	movs	r2, #0
20000c08:	2110      	movs	r1, #16
20000c0a:	4818      	ldr	r0, [pc, #96]	; (20000c6c <sFLASH_ReadBuffer+0x72>)
20000c0c:	f001 ff43 	bl	20002a96 <HAL_GPIO_WritePin>
20000c10:	2003      	movs	r0, #3
20000c12:	f000 f88f 	bl	20000d34 <sFLASH_SendByte>
20000c16:	68bb      	ldr	r3, [r7, #8]
20000c18:	0c1b      	lsrs	r3, r3, #16
20000c1a:	b2db      	uxtb	r3, r3
20000c1c:	4618      	mov	r0, r3
20000c1e:	f000 f889 	bl	20000d34 <sFLASH_SendByte>
20000c22:	68bb      	ldr	r3, [r7, #8]
20000c24:	0a1b      	lsrs	r3, r3, #8
20000c26:	b2db      	uxtb	r3, r3
20000c28:	4618      	mov	r0, r3
20000c2a:	f000 f883 	bl	20000d34 <sFLASH_SendByte>
20000c2e:	68bb      	ldr	r3, [r7, #8]
20000c30:	b2db      	uxtb	r3, r3
20000c32:	4618      	mov	r0, r3
20000c34:	f000 f87e 	bl	20000d34 <sFLASH_SendByte>
20000c38:	e009      	b.n	20000c4e <sFLASH_ReadBuffer+0x54>
20000c3a:	20a5      	movs	r0, #165	; 0xa5
20000c3c:	f000 f87a 	bl	20000d34 <sFLASH_SendByte>
20000c40:	4603      	mov	r3, r0
20000c42:	461a      	mov	r2, r3
20000c44:	68fb      	ldr	r3, [r7, #12]
20000c46:	701a      	strb	r2, [r3, #0]
20000c48:	68fb      	ldr	r3, [r7, #12]
20000c4a:	3301      	adds	r3, #1
20000c4c:	60fb      	str	r3, [r7, #12]
20000c4e:	687b      	ldr	r3, [r7, #4]
20000c50:	1e5a      	subs	r2, r3, #1
20000c52:	607a      	str	r2, [r7, #4]
20000c54:	2b00      	cmp	r3, #0
20000c56:	d1f0      	bne.n	20000c3a <sFLASH_ReadBuffer+0x40>
20000c58:	2201      	movs	r2, #1
20000c5a:	2110      	movs	r1, #16
20000c5c:	4803      	ldr	r0, [pc, #12]	; (20000c6c <sFLASH_ReadBuffer+0x72>)
20000c5e:	f001 ff1a 	bl	20002a96 <HAL_GPIO_WritePin>
20000c62:	bf00      	nop
20000c64:	3710      	adds	r7, #16
20000c66:	46bd      	mov	sp, r7
20000c68:	bd80      	pop	{r7, pc}
20000c6a:	bf00      	nop
20000c6c:	40020000 	.word	0x40020000

20000c70 <sFLASH_ReadID>:
20000c70:	b580      	push	{r7, lr}
20000c72:	b084      	sub	sp, #16
20000c74:	af00      	add	r7, sp, #0
20000c76:	2300      	movs	r3, #0
20000c78:	60fb      	str	r3, [r7, #12]
20000c7a:	2300      	movs	r3, #0
20000c7c:	60bb      	str	r3, [r7, #8]
20000c7e:	2300      	movs	r3, #0
20000c80:	607b      	str	r3, [r7, #4]
20000c82:	2300      	movs	r3, #0
20000c84:	603b      	str	r3, [r7, #0]
20000c86:	2200      	movs	r2, #0
20000c88:	2110      	movs	r1, #16
20000c8a:	4813      	ldr	r0, [pc, #76]	; (20000cd8 <sFLASH_ReadID+0x68>)
20000c8c:	f001 ff03 	bl	20002a96 <HAL_GPIO_WritePin>
20000c90:	209f      	movs	r0, #159	; 0x9f
20000c92:	f000 f84f 	bl	20000d34 <sFLASH_SendByte>
20000c96:	20a5      	movs	r0, #165	; 0xa5
20000c98:	f000 f84c 	bl	20000d34 <sFLASH_SendByte>
20000c9c:	4603      	mov	r3, r0
20000c9e:	60bb      	str	r3, [r7, #8]
20000ca0:	20a5      	movs	r0, #165	; 0xa5
20000ca2:	f000 f847 	bl	20000d34 <sFLASH_SendByte>
20000ca6:	4603      	mov	r3, r0
20000ca8:	607b      	str	r3, [r7, #4]
20000caa:	20a5      	movs	r0, #165	; 0xa5
20000cac:	f000 f842 	bl	20000d34 <sFLASH_SendByte>
20000cb0:	4603      	mov	r3, r0
20000cb2:	603b      	str	r3, [r7, #0]
20000cb4:	2201      	movs	r2, #1
20000cb6:	2110      	movs	r1, #16
20000cb8:	4807      	ldr	r0, [pc, #28]	; (20000cd8 <sFLASH_ReadID+0x68>)
20000cba:	f001 feec 	bl	20002a96 <HAL_GPIO_WritePin>
20000cbe:	68bb      	ldr	r3, [r7, #8]
20000cc0:	041a      	lsls	r2, r3, #16
20000cc2:	687b      	ldr	r3, [r7, #4]
20000cc4:	021b      	lsls	r3, r3, #8
20000cc6:	4313      	orrs	r3, r2
20000cc8:	683a      	ldr	r2, [r7, #0]
20000cca:	4313      	orrs	r3, r2
20000ccc:	60fb      	str	r3, [r7, #12]
20000cce:	68fb      	ldr	r3, [r7, #12]
20000cd0:	4618      	mov	r0, r3
20000cd2:	3710      	adds	r7, #16
20000cd4:	46bd      	mov	sp, r7
20000cd6:	bd80      	pop	{r7, pc}
20000cd8:	40020000 	.word	0x40020000

20000cdc <sFLASH_StartReadSequence>:
20000cdc:	b580      	push	{r7, lr}
20000cde:	b082      	sub	sp, #8
20000ce0:	af00      	add	r7, sp, #0
20000ce2:	6078      	str	r0, [r7, #4]
20000ce4:	2200      	movs	r2, #0
20000ce6:	2110      	movs	r1, #16
20000ce8:	480d      	ldr	r0, [pc, #52]	; (20000d20 <sFLASH_StartReadSequence+0x44>)
20000cea:	f001 fed4 	bl	20002a96 <HAL_GPIO_WritePin>
20000cee:	2003      	movs	r0, #3
20000cf0:	f000 f820 	bl	20000d34 <sFLASH_SendByte>
20000cf4:	687b      	ldr	r3, [r7, #4]
20000cf6:	0c1b      	lsrs	r3, r3, #16
20000cf8:	b2db      	uxtb	r3, r3
20000cfa:	4618      	mov	r0, r3
20000cfc:	f000 f81a 	bl	20000d34 <sFLASH_SendByte>
20000d00:	687b      	ldr	r3, [r7, #4]
20000d02:	0a1b      	lsrs	r3, r3, #8
20000d04:	b2db      	uxtb	r3, r3
20000d06:	4618      	mov	r0, r3
20000d08:	f000 f814 	bl	20000d34 <sFLASH_SendByte>
20000d0c:	687b      	ldr	r3, [r7, #4]
20000d0e:	b2db      	uxtb	r3, r3
20000d10:	4618      	mov	r0, r3
20000d12:	f000 f80f 	bl	20000d34 <sFLASH_SendByte>
20000d16:	bf00      	nop
20000d18:	3708      	adds	r7, #8
20000d1a:	46bd      	mov	sp, r7
20000d1c:	bd80      	pop	{r7, pc}
20000d1e:	bf00      	nop
20000d20:	40020000 	.word	0x40020000

20000d24 <sFLASH_ReadByte>:
20000d24:	b580      	push	{r7, lr}
20000d26:	af00      	add	r7, sp, #0
20000d28:	20a5      	movs	r0, #165	; 0xa5
20000d2a:	f000 f803 	bl	20000d34 <sFLASH_SendByte>
20000d2e:	4603      	mov	r3, r0
20000d30:	4618      	mov	r0, r3
20000d32:	bd80      	pop	{r7, pc}

20000d34 <sFLASH_SendByte>:
20000d34:	b580      	push	{r7, lr}
20000d36:	b086      	sub	sp, #24
20000d38:	af02      	add	r7, sp, #8
20000d3a:	4603      	mov	r3, r0
20000d3c:	71fb      	strb	r3, [r7, #7]
20000d3e:	f107 020f 	add.w	r2, r7, #15
20000d42:	1df9      	adds	r1, r7, #7
20000d44:	f44f 737a 	mov.w	r3, #1000	; 0x3e8
20000d48:	9300      	str	r3, [sp, #0]
20000d4a:	2301      	movs	r3, #1
20000d4c:	4803      	ldr	r0, [pc, #12]	; (20000d5c <sFLASH_SendByte+0x28>)
20000d4e:	f002 ffd7 	bl	20003d00 <HAL_SPI_TransmitReceive>
20000d52:	7bfb      	ldrb	r3, [r7, #15]
20000d54:	4618      	mov	r0, r3
20000d56:	3710      	adds	r7, #16
20000d58:	46bd      	mov	sp, r7
20000d5a:	bd80      	pop	{r7, pc}
20000d5c:	20000238 	.word	0x20000238

20000d60 <sFLASH_WriteEnable>:
20000d60:	b580      	push	{r7, lr}
20000d62:	af00      	add	r7, sp, #0
20000d64:	2200      	movs	r2, #0
20000d66:	2110      	movs	r1, #16
20000d68:	4806      	ldr	r0, [pc, #24]	; (20000d84 <sFLASH_WriteEnable+0x24>)
20000d6a:	f001 fe94 	bl	20002a96 <HAL_GPIO_WritePin>
20000d6e:	2006      	movs	r0, #6
20000d70:	f7ff ffe0 	bl	20000d34 <sFLASH_SendByte>
20000d74:	2201      	movs	r2, #1
20000d76:	2110      	movs	r1, #16
20000d78:	4802      	ldr	r0, [pc, #8]	; (20000d84 <sFLASH_WriteEnable+0x24>)
20000d7a:	f001 fe8c 	bl	20002a96 <HAL_GPIO_WritePin>
20000d7e:	bf00      	nop
20000d80:	bd80      	pop	{r7, pc}
20000d82:	bf00      	nop
20000d84:	40020000 	.word	0x40020000

20000d88 <sFLASH_WaitForWriteEnd>:
20000d88:	b580      	push	{r7, lr}
20000d8a:	b082      	sub	sp, #8
20000d8c:	af00      	add	r7, sp, #0
20000d8e:	2300      	movs	r3, #0
20000d90:	71fb      	strb	r3, [r7, #7]
20000d92:	2200      	movs	r2, #0
20000d94:	2110      	movs	r1, #16
20000d96:	480c      	ldr	r0, [pc, #48]	; (20000dc8 <sFLASH_WaitForWriteEnd+0x40>)
20000d98:	f001 fe7d 	bl	20002a96 <HAL_GPIO_WritePin>
20000d9c:	2005      	movs	r0, #5
20000d9e:	f7ff ffc9 	bl	20000d34 <sFLASH_SendByte>
20000da2:	20a5      	movs	r0, #165	; 0xa5
20000da4:	f7ff ffc6 	bl	20000d34 <sFLASH_SendByte>
20000da8:	4603      	mov	r3, r0
20000daa:	71fb      	strb	r3, [r7, #7]
20000dac:	79fb      	ldrb	r3, [r7, #7]
20000dae:	f003 0301 	and.w	r3, r3, #1
20000db2:	2b00      	cmp	r3, #0
20000db4:	d1f5      	bne.n	20000da2 <sFLASH_WaitForWriteEnd+0x1a>
20000db6:	2201      	movs	r2, #1
20000db8:	2110      	movs	r1, #16
20000dba:	4803      	ldr	r0, [pc, #12]	; (20000dc8 <sFLASH_WaitForWriteEnd+0x40>)
20000dbc:	f001 fe6b 	bl	20002a96 <HAL_GPIO_WritePin>
20000dc0:	bf00      	nop
20000dc2:	3708      	adds	r7, #8
20000dc4:	46bd      	mov	sp, r7
20000dc6:	bd80      	pop	{r7, pc}
20000dc8:	40020000 	.word	0x40020000

20000dcc <HAL_MspInit>:
20000dcc:	b480      	push	{r7}
20000dce:	b083      	sub	sp, #12
20000dd0:	af00      	add	r7, sp, #0
20000dd2:	2300      	movs	r3, #0
20000dd4:	607b      	str	r3, [r7, #4]
20000dd6:	4b0f      	ldr	r3, [pc, #60]	; (20000e14 <HAL_MspInit+0x48>)
20000dd8:	6c5b      	ldr	r3, [r3, #68]	; 0x44
20000dda:	4a0e      	ldr	r2, [pc, #56]	; (20000e14 <HAL_MspInit+0x48>)
20000ddc:	f443 4380 	orr.w	r3, r3, #16384	; 0x4000
20000de0:	6453      	str	r3, [r2, #68]	; 0x44
20000de2:	4b0c      	ldr	r3, [pc, #48]	; (20000e14 <HAL_MspInit+0x48>)
20000de4:	6c5b      	ldr	r3, [r3, #68]	; 0x44
20000de6:	f403 4380 	and.w	r3, r3, #16384	; 0x4000
20000dea:	607b      	str	r3, [r7, #4]
20000dec:	687b      	ldr	r3, [r7, #4]
20000dee:	2300      	movs	r3, #0
20000df0:	603b      	str	r3, [r7, #0]
20000df2:	4b08      	ldr	r3, [pc, #32]	; (20000e14 <HAL_MspInit+0x48>)
20000df4:	6c1b      	ldr	r3, [r3, #64]	; 0x40
20000df6:	4a07      	ldr	r2, [pc, #28]	; (20000e14 <HAL_MspInit+0x48>)
20000df8:	f043 5380 	orr.w	r3, r3, #268435456	; 0x10000000
20000dfc:	6413      	str	r3, [r2, #64]	; 0x40
20000dfe:	4b05      	ldr	r3, [pc, #20]	; (20000e14 <HAL_MspInit+0x48>)
20000e00:	6c1b      	ldr	r3, [r3, #64]	; 0x40
20000e02:	f003 5380 	and.w	r3, r3, #268435456	; 0x10000000
20000e06:	603b      	str	r3, [r7, #0]
20000e08:	683b      	ldr	r3, [r7, #0]
20000e0a:	bf00      	nop
20000e0c:	370c      	adds	r7, #12
20000e0e:	46bd      	mov	sp, r7
20000e10:	bc80      	pop	{r7}
20000e12:	4770      	bx	lr
20000e14:	40023800 	.word	0x40023800

20000e18 <SystemInit>:
20000e18:	b480      	push	{r7}
20000e1a:	af00      	add	r7, sp, #0
20000e1c:	bf00      	nop
20000e1e:	46bd      	mov	sp, r7
20000e20:	bc80      	pop	{r7}
20000e22:	4770      	bx	lr

20000e24 <SystemCoreClockUpdate>:
20000e24:	b480      	push	{r7}
20000e26:	b087      	sub	sp, #28
20000e28:	af00      	add	r7, sp, #0
20000e2a:	2300      	movs	r3, #0
20000e2c:	613b      	str	r3, [r7, #16]
20000e2e:	2300      	movs	r3, #0
20000e30:	617b      	str	r3, [r7, #20]
20000e32:	2302      	movs	r3, #2
20000e34:	60fb      	str	r3, [r7, #12]
20000e36:	2300      	movs	r3, #0
20000e38:	60bb      	str	r3, [r7, #8]
20000e3a:	2302      	movs	r3, #2
20000e3c:	607b      	str	r3, [r7, #4]
20000e3e:	4b34      	ldr	r3, [pc, #208]	; (20000f10 <SystemCoreClockUpdate+0xec>)
20000e40:	689b      	ldr	r3, [r3, #8]
20000e42:	f003 030c 	and.w	r3, r3, #12
20000e46:	613b      	str	r3, [r7, #16]
20000e48:	693b      	ldr	r3, [r7, #16]
20000e4a:	2b08      	cmp	r3, #8
20000e4c:	d011      	beq.n	20000e72 <SystemCoreClockUpdate+0x4e>
20000e4e:	693b      	ldr	r3, [r7, #16]
20000e50:	2b08      	cmp	r3, #8
20000e52:	d844      	bhi.n	20000ede <SystemCoreClockUpdate+0xba>
20000e54:	693b      	ldr	r3, [r7, #16]
20000e56:	2b00      	cmp	r3, #0
20000e58:	d003      	beq.n	20000e62 <SystemCoreClockUpdate+0x3e>
20000e5a:	693b      	ldr	r3, [r7, #16]
20000e5c:	2b04      	cmp	r3, #4
20000e5e:	d004      	beq.n	20000e6a <SystemCoreClockUpdate+0x46>
20000e60:	e03d      	b.n	20000ede <SystemCoreClockUpdate+0xba>
20000e62:	4b2c      	ldr	r3, [pc, #176]	; (20000f14 <SystemCoreClockUpdate+0xf0>)
20000e64:	4a2c      	ldr	r2, [pc, #176]	; (20000f18 <SystemCoreClockUpdate+0xf4>)
20000e66:	601a      	str	r2, [r3, #0]
20000e68:	e03d      	b.n	20000ee6 <SystemCoreClockUpdate+0xc2>
20000e6a:	4b2a      	ldr	r3, [pc, #168]	; (20000f14 <SystemCoreClockUpdate+0xf0>)
20000e6c:	4a2b      	ldr	r2, [pc, #172]	; (20000f1c <SystemCoreClockUpdate+0xf8>)
20000e6e:	601a      	str	r2, [r3, #0]
20000e70:	e039      	b.n	20000ee6 <SystemCoreClockUpdate+0xc2>
20000e72:	4b27      	ldr	r3, [pc, #156]	; (20000f10 <SystemCoreClockUpdate+0xec>)
20000e74:	685b      	ldr	r3, [r3, #4]
20000e76:	0d9b      	lsrs	r3, r3, #22
20000e78:	f003 0301 	and.w	r3, r3, #1
20000e7c:	60bb      	str	r3, [r7, #8]
20000e7e:	4b24      	ldr	r3, [pc, #144]	; (20000f10 <SystemCoreClockUpdate+0xec>)
20000e80:	685b      	ldr	r3, [r3, #4]
20000e82:	f003 033f 	and.w	r3, r3, #63	; 0x3f
20000e86:	607b      	str	r3, [r7, #4]
20000e88:	68bb      	ldr	r3, [r7, #8]
20000e8a:	2b00      	cmp	r3, #0
20000e8c:	d00c      	beq.n	20000ea8 <SystemCoreClockUpdate+0x84>
20000e8e:	4a23      	ldr	r2, [pc, #140]	; (20000f1c <SystemCoreClockUpdate+0xf8>)
20000e90:	687b      	ldr	r3, [r7, #4]
20000e92:	fbb2 f3f3 	udiv	r3, r2, r3
20000e96:	4a1e      	ldr	r2, [pc, #120]	; (20000f10 <SystemCoreClockUpdate+0xec>)
20000e98:	6852      	ldr	r2, [r2, #4]
20000e9a:	0992      	lsrs	r2, r2, #6
20000e9c:	f3c2 0208 	ubfx	r2, r2, #0, #9
20000ea0:	fb02 f303 	mul.w	r3, r2, r3
20000ea4:	617b      	str	r3, [r7, #20]
20000ea6:	e00b      	b.n	20000ec0 <SystemCoreClockUpdate+0x9c>
20000ea8:	4a1b      	ldr	r2, [pc, #108]	; (20000f18 <SystemCoreClockUpdate+0xf4>)
20000eaa:	687b      	ldr	r3, [r7, #4]
20000eac:	fbb2 f3f3 	udiv	r3, r2, r3
20000eb0:	4a17      	ldr	r2, [pc, #92]	; (20000f10 <SystemCoreClockUpdate+0xec>)
20000eb2:	6852      	ldr	r2, [r2, #4]
20000eb4:	0992      	lsrs	r2, r2, #6
20000eb6:	f3c2 0208 	ubfx	r2, r2, #0, #9
20000eba:	fb02 f303 	mul.w	r3, r2, r3
20000ebe:	617b      	str	r3, [r7, #20]
20000ec0:	4b13      	ldr	r3, [pc, #76]	; (20000f10 <SystemCoreClockUpdate+0xec>)
20000ec2:	685b      	ldr	r3, [r3, #4]
20000ec4:	0c1b      	lsrs	r3, r3, #16
20000ec6:	f003 0303 	and.w	r3, r3, #3
20000eca:	3301      	adds	r3, #1
20000ecc:	005b      	lsls	r3, r3, #1
20000ece:	60fb      	str	r3, [r7, #12]
20000ed0:	697a      	ldr	r2, [r7, #20]
20000ed2:	68fb      	ldr	r3, [r7, #12]
20000ed4:	fbb2 f3f3 	udiv	r3, r2, r3
20000ed8:	4a0e      	ldr	r2, [pc, #56]	; (20000f14 <SystemCoreClockUpdate+0xf0>)
20000eda:	6013      	str	r3, [r2, #0]
20000edc:	e003      	b.n	20000ee6 <SystemCoreClockUpdate+0xc2>
20000ede:	4b0d      	ldr	r3, [pc, #52]	; (20000f14 <SystemCoreClockUpdate+0xf0>)
20000ee0:	4a0d      	ldr	r2, [pc, #52]	; (20000f18 <SystemCoreClockUpdate+0xf4>)
20000ee2:	601a      	str	r2, [r3, #0]
20000ee4:	bf00      	nop
20000ee6:	4b0a      	ldr	r3, [pc, #40]	; (20000f10 <SystemCoreClockUpdate+0xec>)
20000ee8:	689b      	ldr	r3, [r3, #8]
20000eea:	091b      	lsrs	r3, r3, #4
20000eec:	f003 030f 	and.w	r3, r3, #15
20000ef0:	4a0b      	ldr	r2, [pc, #44]	; (20000f20 <SystemCoreClockUpdate+0xfc>)
20000ef2:	5cd3      	ldrb	r3, [r2, r3]
20000ef4:	613b      	str	r3, [r7, #16]
20000ef6:	4b07      	ldr	r3, [pc, #28]	; (20000f14 <SystemCoreClockUpdate+0xf0>)
20000ef8:	681a      	ldr	r2, [r3, #0]
20000efa:	693b      	ldr	r3, [r7, #16]
20000efc:	fa22 f303 	lsr.w	r3, r2, r3
20000f00:	4a04      	ldr	r2, [pc, #16]	; (20000f14 <SystemCoreClockUpdate+0xf0>)
20000f02:	6013      	str	r3, [r2, #0]
20000f04:	bf00      	nop
20000f06:	371c      	adds	r7, #28
20000f08:	46bd      	mov	sp, r7
20000f0a:	bc80      	pop	{r7}
20000f0c:	4770      	bx	lr
20000f0e:	bf00      	nop
20000f10:	40023800 	.word	0x40023800
20000f14:	20000210 	.word	0x20000210
20000f18:	00f42400 	.word	0x00f42400
20000f1c:	017d7840 	.word	0x017d7840
20000f20:	20006044 	.word	0x20006044

20000f24 <HAL_Init>:
20000f24:	b580      	push	{r7, lr}
20000f26:	af00      	add	r7, sp, #0
20000f28:	4b0e      	ldr	r3, [pc, #56]	; (20000f64 <HAL_Init+0x40>)
20000f2a:	681b      	ldr	r3, [r3, #0]
20000f2c:	4a0d      	ldr	r2, [pc, #52]	; (20000f64 <HAL_Init+0x40>)
20000f2e:	f443 7300 	orr.w	r3, r3, #512	; 0x200
20000f32:	6013      	str	r3, [r2, #0]
20000f34:	4b0b      	ldr	r3, [pc, #44]	; (20000f64 <HAL_Init+0x40>)
20000f36:	681b      	ldr	r3, [r3, #0]
20000f38:	4a0a      	ldr	r2, [pc, #40]	; (20000f64 <HAL_Init+0x40>)
20000f3a:	f443 6380 	orr.w	r3, r3, #1024	; 0x400
20000f3e:	6013      	str	r3, [r2, #0]
20000f40:	4b08      	ldr	r3, [pc, #32]	; (20000f64 <HAL_Init+0x40>)
20000f42:	681b      	ldr	r3, [r3, #0]
20000f44:	4a07      	ldr	r2, [pc, #28]	; (20000f64 <HAL_Init+0x40>)
20000f46:	f443 7380 	orr.w	r3, r3, #256	; 0x100
20000f4a:	6013      	str	r3, [r2, #0]
20000f4c:	2003      	movs	r0, #3
20000f4e:	f000 fb95 	bl	2000167c <HAL_NVIC_SetPriorityGrouping>
20000f52:	2000      	movs	r0, #0
20000f54:	f000 f840 	bl	20000fd8 <HAL_InitTick>
20000f58:	f7ff ff38 	bl	20000dcc <HAL_MspInit>
20000f5c:	2300      	movs	r3, #0
20000f5e:	4618      	mov	r0, r3
20000f60:	bd80      	pop	{r7, pc}
20000f62:	bf00      	nop
20000f64:	40023c00 	.word	0x40023c00

20000f68 <HAL_DeInit>:
20000f68:	b580      	push	{r7, lr}
20000f6a:	af00      	add	r7, sp, #0
20000f6c:	4b13      	ldr	r3, [pc, #76]	; (20000fbc <HAL_DeInit+0x54>)
20000f6e:	f04f 32ff 	mov.w	r2, #4294967295
20000f72:	621a      	str	r2, [r3, #32]
20000f74:	4b11      	ldr	r3, [pc, #68]	; (20000fbc <HAL_DeInit+0x54>)
20000f76:	2200      	movs	r2, #0
20000f78:	621a      	str	r2, [r3, #32]
20000f7a:	4b10      	ldr	r3, [pc, #64]	; (20000fbc <HAL_DeInit+0x54>)
20000f7c:	f04f 32ff 	mov.w	r2, #4294967295
20000f80:	625a      	str	r2, [r3, #36]	; 0x24
20000f82:	4b0e      	ldr	r3, [pc, #56]	; (20000fbc <HAL_DeInit+0x54>)
20000f84:	2200      	movs	r2, #0
20000f86:	625a      	str	r2, [r3, #36]	; 0x24
20000f88:	4b0c      	ldr	r3, [pc, #48]	; (20000fbc <HAL_DeInit+0x54>)
20000f8a:	f04f 32ff 	mov.w	r2, #4294967295
20000f8e:	611a      	str	r2, [r3, #16]
20000f90:	4b0a      	ldr	r3, [pc, #40]	; (20000fbc <HAL_DeInit+0x54>)
20000f92:	2200      	movs	r2, #0
20000f94:	611a      	str	r2, [r3, #16]
20000f96:	4b09      	ldr	r3, [pc, #36]	; (20000fbc <HAL_DeInit+0x54>)
20000f98:	f04f 32ff 	mov.w	r2, #4294967295
20000f9c:	615a      	str	r2, [r3, #20]
20000f9e:	4b07      	ldr	r3, [pc, #28]	; (20000fbc <HAL_DeInit+0x54>)
20000fa0:	2200      	movs	r2, #0
20000fa2:	615a      	str	r2, [r3, #20]
20000fa4:	4b05      	ldr	r3, [pc, #20]	; (20000fbc <HAL_DeInit+0x54>)
20000fa6:	f04f 32ff 	mov.w	r2, #4294967295
20000faa:	619a      	str	r2, [r3, #24]
20000fac:	4b03      	ldr	r3, [pc, #12]	; (20000fbc <HAL_DeInit+0x54>)
20000fae:	2200      	movs	r2, #0
20000fb0:	619a      	str	r2, [r3, #24]
20000fb2:	f000 f80b 	bl	20000fcc <HAL_MspDeInit>
20000fb6:	2300      	movs	r3, #0
20000fb8:	4618      	mov	r0, r3
20000fba:	bd80      	pop	{r7, pc}
20000fbc:	40023800 	.word	0x40023800
20000fc0:	b480      	push	{r7}
20000fc2:	af00      	add	r7, sp, #0
20000fc4:	bf00      	nop
20000fc6:	46bd      	mov	sp, r7
20000fc8:	bc80      	pop	{r7}
20000fca:	4770      	bx	lr

20000fcc <HAL_MspDeInit>:
20000fcc:	b480      	push	{r7}
20000fce:	af00      	add	r7, sp, #0
20000fd0:	bf00      	nop
20000fd2:	46bd      	mov	sp, r7
20000fd4:	bc80      	pop	{r7}
20000fd6:	4770      	bx	lr

20000fd8 <HAL_InitTick>:
20000fd8:	b580      	push	{r7, lr}
20000fda:	b082      	sub	sp, #8
20000fdc:	af00      	add	r7, sp, #0
20000fde:	6078      	str	r0, [r7, #4]
20000fe0:	4b12      	ldr	r3, [pc, #72]	; (2000102c <HAL_InitTick+0x54>)
20000fe2:	681a      	ldr	r2, [r3, #0]
20000fe4:	4b12      	ldr	r3, [pc, #72]	; (20001030 <HAL_InitTick+0x58>)
20000fe6:	781b      	ldrb	r3, [r3, #0]
20000fe8:	4619      	mov	r1, r3
20000fea:	f44f 737a 	mov.w	r3, #1000	; 0x3e8
20000fee:	fbb3 f3f1 	udiv	r3, r3, r1
20000ff2:	fbb2 f3f3 	udiv	r3, r2, r3
20000ff6:	4618      	mov	r0, r3
20000ff8:	f000 fb87 	bl	2000170a <HAL_SYSTICK_Config>
20000ffc:	4603      	mov	r3, r0
20000ffe:	2b00      	cmp	r3, #0
20001000:	d001      	beq.n	20001006 <HAL_InitTick+0x2e>
20001002:	2301      	movs	r3, #1
20001004:	e00e      	b.n	20001024 <HAL_InitTick+0x4c>
20001006:	687b      	ldr	r3, [r7, #4]
20001008:	2b0f      	cmp	r3, #15
2000100a:	d80a      	bhi.n	20001022 <HAL_InitTick+0x4a>
2000100c:	2200      	movs	r2, #0
2000100e:	6879      	ldr	r1, [r7, #4]
20001010:	f04f 30ff 	mov.w	r0, #4294967295
20001014:	f000 fb3d 	bl	20001692 <HAL_NVIC_SetPriority>
20001018:	4a06      	ldr	r2, [pc, #24]	; (20001034 <HAL_InitTick+0x5c>)
2000101a:	687b      	ldr	r3, [r7, #4]
2000101c:	6013      	str	r3, [r2, #0]
2000101e:	2300      	movs	r3, #0
20001020:	e000      	b.n	20001024 <HAL_InitTick+0x4c>
20001022:	2301      	movs	r3, #1
20001024:	4618      	mov	r0, r3
20001026:	3708      	adds	r7, #8
20001028:	46bd      	mov	sp, r7
2000102a:	bd80      	pop	{r7, pc}
2000102c:	20000210 	.word	0x20000210
20001030:	20000218 	.word	0x20000218
20001034:	20000214 	.word	0x20000214

20001038 <HAL_IncTick>:
20001038:	b480      	push	{r7}
2000103a:	af00      	add	r7, sp, #0
2000103c:	4b05      	ldr	r3, [pc, #20]	; (20001054 <HAL_IncTick+0x1c>)
2000103e:	781b      	ldrb	r3, [r3, #0]
20001040:	461a      	mov	r2, r3
20001042:	4b05      	ldr	r3, [pc, #20]	; (20001058 <HAL_IncTick+0x20>)
20001044:	681b      	ldr	r3, [r3, #0]
20001046:	4413      	add	r3, r2
20001048:	4a03      	ldr	r2, [pc, #12]	; (20001058 <HAL_IncTick+0x20>)
2000104a:	6013      	str	r3, [r2, #0]
2000104c:	bf00      	nop
2000104e:	46bd      	mov	sp, r7
20001050:	bc80      	pop	{r7}
20001052:	4770      	bx	lr
20001054:	20000218 	.word	0x20000218
20001058:	20000290 	.word	0x20000290

2000105c <HAL_GetTick>:
2000105c:	b480      	push	{r7}
2000105e:	af00      	add	r7, sp, #0
20001060:	4b02      	ldr	r3, [pc, #8]	; (2000106c <HAL_GetTick+0x10>)
20001062:	681b      	ldr	r3, [r3, #0]
20001064:	4618      	mov	r0, r3
20001066:	46bd      	mov	sp, r7
20001068:	bc80      	pop	{r7}
2000106a:	4770      	bx	lr
2000106c:	20000290 	.word	0x20000290

20001070 <HAL_GetTickPrio>:
20001070:	b480      	push	{r7}
20001072:	af00      	add	r7, sp, #0
20001074:	4b02      	ldr	r3, [pc, #8]	; (20001080 <HAL_GetTickPrio+0x10>)
20001076:	681b      	ldr	r3, [r3, #0]
20001078:	4618      	mov	r0, r3
2000107a:	46bd      	mov	sp, r7
2000107c:	bc80      	pop	{r7}
2000107e:	4770      	bx	lr
20001080:	20000214 	.word	0x20000214

20001084 <HAL_SetTickFreq>:
20001084:	b580      	push	{r7, lr}
20001086:	b084      	sub	sp, #16
20001088:	af00      	add	r7, sp, #0
2000108a:	4603      	mov	r3, r0
2000108c:	71fb      	strb	r3, [r7, #7]
2000108e:	2300      	movs	r3, #0
20001090:	73fb      	strb	r3, [r7, #15]
20001092:	4b0e      	ldr	r3, [pc, #56]	; (200010cc <HAL_SetTickFreq+0x48>)
20001094:	781b      	ldrb	r3, [r3, #0]
20001096:	79fa      	ldrb	r2, [r7, #7]
20001098:	429a      	cmp	r2, r3
2000109a:	d012      	beq.n	200010c2 <HAL_SetTickFreq+0x3e>
2000109c:	4b0b      	ldr	r3, [pc, #44]	; (200010cc <HAL_SetTickFreq+0x48>)
2000109e:	781b      	ldrb	r3, [r3, #0]
200010a0:	73bb      	strb	r3, [r7, #14]
200010a2:	4a0a      	ldr	r2, [pc, #40]	; (200010cc <HAL_SetTickFreq+0x48>)
200010a4:	79fb      	ldrb	r3, [r7, #7]
200010a6:	7013      	strb	r3, [r2, #0]
200010a8:	4b09      	ldr	r3, [pc, #36]	; (200010d0 <HAL_SetTickFreq+0x4c>)
200010aa:	681b      	ldr	r3, [r3, #0]
200010ac:	4618      	mov	r0, r3
200010ae:	f7ff ff93 	bl	20000fd8 <HAL_InitTick>
200010b2:	4603      	mov	r3, r0
200010b4:	73fb      	strb	r3, [r7, #15]
200010b6:	7bfb      	ldrb	r3, [r7, #15]
200010b8:	2b00      	cmp	r3, #0
200010ba:	d002      	beq.n	200010c2 <HAL_SetTickFreq+0x3e>
200010bc:	4a03      	ldr	r2, [pc, #12]	; (200010cc <HAL_SetTickFreq+0x48>)
200010be:	7bbb      	ldrb	r3, [r7, #14]
200010c0:	7013      	strb	r3, [r2, #0]
200010c2:	7bfb      	ldrb	r3, [r7, #15]
200010c4:	4618      	mov	r0, r3
200010c6:	3710      	adds	r7, #16
200010c8:	46bd      	mov	sp, r7
200010ca:	bd80      	pop	{r7, pc}
200010cc:	20000218 	.word	0x20000218
200010d0:	20000214 	.word	0x20000214

200010d4 <HAL_GetTickFreq>:
200010d4:	b480      	push	{r7}
200010d6:	af00      	add	r7, sp, #0
200010d8:	4b02      	ldr	r3, [pc, #8]	; (200010e4 <HAL_GetTickFreq+0x10>)
200010da:	781b      	ldrb	r3, [r3, #0]
200010dc:	4618      	mov	r0, r3
200010de:	46bd      	mov	sp, r7
200010e0:	bc80      	pop	{r7}
200010e2:	4770      	bx	lr
200010e4:	20000218 	.word	0x20000218

200010e8 <HAL_Delay>:
200010e8:	b580      	push	{r7, lr}
200010ea:	b084      	sub	sp, #16
200010ec:	af00      	add	r7, sp, #0
200010ee:	6078      	str	r0, [r7, #4]
200010f0:	f7ff ffb4 	bl	2000105c <HAL_GetTick>
200010f4:	60b8      	str	r0, [r7, #8]
200010f6:	687b      	ldr	r3, [r7, #4]
200010f8:	60fb      	str	r3, [r7, #12]
200010fa:	68fb      	ldr	r3, [r7, #12]
200010fc:	f1b3 3fff 	cmp.w	r3, #4294967295
20001100:	d005      	beq.n	2000110e <HAL_Delay+0x26>
20001102:	4b0a      	ldr	r3, [pc, #40]	; (2000112c <HAL_Delay+0x44>)
20001104:	781b      	ldrb	r3, [r3, #0]
20001106:	461a      	mov	r2, r3
20001108:	68fb      	ldr	r3, [r7, #12]
2000110a:	4413      	add	r3, r2
2000110c:	60fb      	str	r3, [r7, #12]
2000110e:	bf00      	nop
20001110:	f7ff ffa4 	bl	2000105c <HAL_GetTick>
20001114:	4602      	mov	r2, r0
20001116:	68bb      	ldr	r3, [r7, #8]
20001118:	1ad3      	subs	r3, r2, r3
2000111a:	68fa      	ldr	r2, [r7, #12]
2000111c:	429a      	cmp	r2, r3
2000111e:	d8f7      	bhi.n	20001110 <HAL_Delay+0x28>
20001120:	bf00      	nop
20001122:	bf00      	nop
20001124:	3710      	adds	r7, #16
20001126:	46bd      	mov	sp, r7
20001128:	bd80      	pop	{r7, pc}
2000112a:	bf00      	nop
2000112c:	20000218 	.word	0x20000218

20001130 <HAL_SuspendTick>:
20001130:	b480      	push	{r7}
20001132:	af00      	add	r7, sp, #0
20001134:	4b04      	ldr	r3, [pc, #16]	; (20001148 <HAL_SuspendTick+0x18>)
20001136:	681b      	ldr	r3, [r3, #0]
20001138:	4a03      	ldr	r2, [pc, #12]	; (20001148 <HAL_SuspendTick+0x18>)
2000113a:	f023 0302 	bic.w	r3, r3, #2
2000113e:	6013      	str	r3, [r2, #0]
20001140:	bf00      	nop
20001142:	46bd      	mov	sp, r7
20001144:	bc80      	pop	{r7}
20001146:	4770      	bx	lr
20001148:	e000e010 	.word	0xe000e010

2000114c <HAL_ResumeTick>:
2000114c:	b480      	push	{r7}
2000114e:	af00      	add	r7, sp, #0
20001150:	4b04      	ldr	r3, [pc, #16]	; (20001164 <HAL_ResumeTick+0x18>)
20001152:	681b      	ldr	r3, [r3, #0]
20001154:	4a03      	ldr	r2, [pc, #12]	; (20001164 <HAL_ResumeTick+0x18>)
20001156:	f043 0302 	orr.w	r3, r3, #2
2000115a:	6013      	str	r3, [r2, #0]
2000115c:	bf00      	nop
2000115e:	46bd      	mov	sp, r7
20001160:	bc80      	pop	{r7}
20001162:	4770      	bx	lr
20001164:	e000e010 	.word	0xe000e010

20001168 <HAL_GetHalVersion>:
20001168:	b480      	push	{r7}
2000116a:	af00      	add	r7, sp, #0
2000116c:	4b02      	ldr	r3, [pc, #8]	; (20001178 <HAL_GetHalVersion+0x10>)
2000116e:	4618      	mov	r0, r3
20001170:	46bd      	mov	sp, r7
20001172:	bc80      	pop	{r7}
20001174:	4770      	bx	lr
20001176:	bf00      	nop
20001178:	01070c00 	.word	0x01070c00

2000117c <HAL_GetREVID>:
2000117c:	b480      	push	{r7}
2000117e:	af00      	add	r7, sp, #0
20001180:	4b03      	ldr	r3, [pc, #12]	; (20001190 <HAL_GetREVID+0x14>)
20001182:	681b      	ldr	r3, [r3, #0]
20001184:	0c1b      	lsrs	r3, r3, #16
20001186:	4618      	mov	r0, r3
20001188:	46bd      	mov	sp, r7
2000118a:	bc80      	pop	{r7}
2000118c:	4770      	bx	lr
2000118e:	bf00      	nop
20001190:	e0042000 	.word	0xe0042000

20001194 <HAL_GetDEVID>:
20001194:	b480      	push	{r7}
20001196:	af00      	add	r7, sp, #0
20001198:	4b03      	ldr	r3, [pc, #12]	; (200011a8 <HAL_GetDEVID+0x14>)
2000119a:	681b      	ldr	r3, [r3, #0]
2000119c:	f3c3 030b 	ubfx	r3, r3, #0, #12
200011a0:	4618      	mov	r0, r3
200011a2:	46bd      	mov	sp, r7
200011a4:	bc80      	pop	{r7}
200011a6:	4770      	bx	lr
200011a8:	e0042000 	.word	0xe0042000

200011ac <HAL_DBGMCU_EnableDBGSleepMode>:
200011ac:	b480      	push	{r7}
200011ae:	af00      	add	r7, sp, #0
200011b0:	4b04      	ldr	r3, [pc, #16]	; (200011c4 <HAL_DBGMCU_EnableDBGSleepMode+0x18>)
200011b2:	685b      	ldr	r3, [r3, #4]
200011b4:	4a03      	ldr	r2, [pc, #12]	; (200011c4 <HAL_DBGMCU_EnableDBGSleepMode+0x18>)
200011b6:	f043 0301 	orr.w	r3, r3, #1
200011ba:	6053      	str	r3, [r2, #4]
200011bc:	bf00      	nop
200011be:	46bd      	mov	sp, r7
200011c0:	bc80      	pop	{r7}
200011c2:	4770      	bx	lr
200011c4:	e0042000 	.word	0xe0042000

200011c8 <HAL_DBGMCU_DisableDBGSleepMode>:
200011c8:	b480      	push	{r7}
200011ca:	af00      	add	r7, sp, #0
200011cc:	4b04      	ldr	r3, [pc, #16]	; (200011e0 <HAL_DBGMCU_DisableDBGSleepMode+0x18>)
200011ce:	685b      	ldr	r3, [r3, #4]
200011d0:	4a03      	ldr	r2, [pc, #12]	; (200011e0 <HAL_DBGMCU_DisableDBGSleepMode+0x18>)
200011d2:	f023 0301 	bic.w	r3, r3, #1
200011d6:	6053      	str	r3, [r2, #4]
200011d8:	bf00      	nop
200011da:	46bd      	mov	sp, r7
200011dc:	bc80      	pop	{r7}
200011de:	4770      	bx	lr
200011e0:	e0042000 	.word	0xe0042000

200011e4 <HAL_DBGMCU_EnableDBGStopMode>:
200011e4:	b480      	push	{r7}
200011e6:	af00      	add	r7, sp, #0
200011e8:	4b04      	ldr	r3, [pc, #16]	; (200011fc <HAL_DBGMCU_EnableDBGStopMode+0x18>)
200011ea:	685b      	ldr	r3, [r3, #4]
200011ec:	4a03      	ldr	r2, [pc, #12]	; (200011fc <HAL_DBGMCU_EnableDBGStopMode+0x18>)
200011ee:	f043 0302 	orr.w	r3, r3, #2
200011f2:	6053      	str	r3, [r2, #4]
200011f4:	bf00      	nop
200011f6:	46bd      	mov	sp, r7
200011f8:	bc80      	pop	{r7}
200011fa:	4770      	bx	lr
200011fc:	e0042000 	.word	0xe0042000

20001200 <HAL_DBGMCU_DisableDBGStopMode>:
20001200:	b480      	push	{r7}
20001202:	af00      	add	r7, sp, #0
20001204:	4b04      	ldr	r3, [pc, #16]	; (20001218 <HAL_DBGMCU_DisableDBGStopMode+0x18>)
20001206:	685b      	ldr	r3, [r3, #4]
20001208:	4a03      	ldr	r2, [pc, #12]	; (20001218 <HAL_DBGMCU_DisableDBGStopMode+0x18>)
2000120a:	f023 0302 	bic.w	r3, r3, #2
2000120e:	6053      	str	r3, [r2, #4]
20001210:	bf00      	nop
20001212:	46bd      	mov	sp, r7
20001214:	bc80      	pop	{r7}
20001216:	4770      	bx	lr
20001218:	e0042000 	.word	0xe0042000

2000121c <HAL_DBGMCU_EnableDBGStandbyMode>:
2000121c:	b480      	push	{r7}
2000121e:	af00      	add	r7, sp, #0
20001220:	4b04      	ldr	r3, [pc, #16]	; (20001234 <HAL_DBGMCU_EnableDBGStandbyMode+0x18>)
20001222:	685b      	ldr	r3, [r3, #4]
20001224:	4a03      	ldr	r2, [pc, #12]	; (20001234 <HAL_DBGMCU_EnableDBGStandbyMode+0x18>)
20001226:	f043 0304 	orr.w	r3, r3, #4
2000122a:	6053      	str	r3, [r2, #4]
2000122c:	bf00      	nop
2000122e:	46bd      	mov	sp, r7
20001230:	bc80      	pop	{r7}
20001232:	4770      	bx	lr
20001234:	e0042000 	.word	0xe0042000

20001238 <HAL_DBGMCU_DisableDBGStandbyMode>:
20001238:	b480      	push	{r7}
2000123a:	af00      	add	r7, sp, #0
2000123c:	4b04      	ldr	r3, [pc, #16]	; (20001250 <HAL_DBGMCU_DisableDBGStandbyMode+0x18>)
2000123e:	685b      	ldr	r3, [r3, #4]
20001240:	4a03      	ldr	r2, [pc, #12]	; (20001250 <HAL_DBGMCU_DisableDBGStandbyMode+0x18>)
20001242:	f023 0304 	bic.w	r3, r3, #4
20001246:	6053      	str	r3, [r2, #4]
20001248:	bf00      	nop
2000124a:	46bd      	mov	sp, r7
2000124c:	bc80      	pop	{r7}
2000124e:	4770      	bx	lr
20001250:	e0042000 	.word	0xe0042000

20001254 <HAL_EnableCompensationCell>:
20001254:	b480      	push	{r7}
20001256:	af00      	add	r7, sp, #0
20001258:	4b03      	ldr	r3, [pc, #12]	; (20001268 <HAL_EnableCompensationCell+0x14>)
2000125a:	2201      	movs	r2, #1
2000125c:	601a      	str	r2, [r3, #0]
2000125e:	bf00      	nop
20001260:	46bd      	mov	sp, r7
20001262:	bc80      	pop	{r7}
20001264:	4770      	bx	lr
20001266:	bf00      	nop
20001268:	42270400 	.word	0x42270400

2000126c <HAL_DisableCompensationCell>:
2000126c:	b480      	push	{r7}
2000126e:	af00      	add	r7, sp, #0
20001270:	4b03      	ldr	r3, [pc, #12]	; (20001280 <HAL_DisableCompensationCell+0x14>)
20001272:	2200      	movs	r2, #0
20001274:	601a      	str	r2, [r3, #0]
20001276:	bf00      	nop
20001278:	46bd      	mov	sp, r7
2000127a:	bc80      	pop	{r7}
2000127c:	4770      	bx	lr
2000127e:	bf00      	nop
20001280:	42270400 	.word	0x42270400

20001284 <HAL_GetUIDw0>:
20001284:	b480      	push	{r7}
20001286:	af00      	add	r7, sp, #0
20001288:	4b02      	ldr	r3, [pc, #8]	; (20001294 <HAL_GetUIDw0+0x10>)
2000128a:	681b      	ldr	r3, [r3, #0]
2000128c:	4618      	mov	r0, r3
2000128e:	46bd      	mov	sp, r7
20001290:	bc80      	pop	{r7}
20001292:	4770      	bx	lr
20001294:	1fff7a10 	.word	0x1fff7a10

20001298 <HAL_GetUIDw1>:
20001298:	b480      	push	{r7}
2000129a:	af00      	add	r7, sp, #0
2000129c:	4b02      	ldr	r3, [pc, #8]	; (200012a8 <HAL_GetUIDw1+0x10>)
2000129e:	681b      	ldr	r3, [r3, #0]
200012a0:	4618      	mov	r0, r3
200012a2:	46bd      	mov	sp, r7
200012a4:	bc80      	pop	{r7}
200012a6:	4770      	bx	lr
200012a8:	1fff7a14 	.word	0x1fff7a14

200012ac <HAL_GetUIDw2>:
200012ac:	b480      	push	{r7}
200012ae:	af00      	add	r7, sp, #0
200012b0:	4b02      	ldr	r3, [pc, #8]	; (200012bc <HAL_GetUIDw2+0x10>)
200012b2:	681b      	ldr	r3, [r3, #0]
200012b4:	4618      	mov	r0, r3
200012b6:	46bd      	mov	sp, r7
200012b8:	bc80      	pop	{r7}
200012ba:	4770      	bx	lr
200012bc:	1fff7a18 	.word	0x1fff7a18

200012c0 <__NVIC_SetPriorityGrouping>:
200012c0:	b480      	push	{r7}
200012c2:	b085      	sub	sp, #20
200012c4:	af00      	add	r7, sp, #0
200012c6:	6078      	str	r0, [r7, #4]
200012c8:	687b      	ldr	r3, [r7, #4]
200012ca:	f003 0307 	and.w	r3, r3, #7
200012ce:	60fb      	str	r3, [r7, #12]
200012d0:	4b0c      	ldr	r3, [pc, #48]	; (20001304 <__NVIC_SetPriorityGrouping+0x44>)
200012d2:	68db      	ldr	r3, [r3, #12]
200012d4:	60bb      	str	r3, [r7, #8]
200012d6:	68ba      	ldr	r2, [r7, #8]
200012d8:	f64f 03ff 	movw	r3, #63743	; 0xf8ff
200012dc:	4013      	ands	r3, r2
200012de:	60bb      	str	r3, [r7, #8]
200012e0:	68fb      	ldr	r3, [r7, #12]
200012e2:	021a      	lsls	r2, r3, #8
200012e4:	68bb      	ldr	r3, [r7, #8]
200012e6:	4313      	orrs	r3, r2
200012e8:	f043 63bf 	orr.w	r3, r3, #100139008	; 0x5f80000
200012ec:	f443 3300 	orr.w	r3, r3, #131072	; 0x20000
200012f0:	60bb      	str	r3, [r7, #8]
200012f2:	4a04      	ldr	r2, [pc, #16]	; (20001304 <__NVIC_SetPriorityGrouping+0x44>)
200012f4:	68bb      	ldr	r3, [r7, #8]
200012f6:	60d3      	str	r3, [r2, #12]
200012f8:	bf00      	nop
200012fa:	3714      	adds	r7, #20
200012fc:	46bd      	mov	sp, r7
200012fe:	bc80      	pop	{r7}
20001300:	4770      	bx	lr
20001302:	bf00      	nop
20001304:	e000ed00 	.word	0xe000ed00

20001308 <__NVIC_GetPriorityGrouping>:
20001308:	b480      	push	{r7}
2000130a:	af00      	add	r7, sp, #0
2000130c:	4b04      	ldr	r3, [pc, #16]	; (20001320 <__NVIC_GetPriorityGrouping+0x18>)
2000130e:	68db      	ldr	r3, [r3, #12]
20001310:	0a1b      	lsrs	r3, r3, #8
20001312:	f003 0307 	and.w	r3, r3, #7
20001316:	4618      	mov	r0, r3
20001318:	46bd      	mov	sp, r7
2000131a:	bc80      	pop	{r7}
2000131c:	4770      	bx	lr
2000131e:	bf00      	nop
20001320:	e000ed00 	.word	0xe000ed00

20001324 <__NVIC_EnableIRQ>:
20001324:	b480      	push	{r7}
20001326:	b083      	sub	sp, #12
20001328:	af00      	add	r7, sp, #0
2000132a:	4603      	mov	r3, r0
2000132c:	71fb      	strb	r3, [r7, #7]
2000132e:	f997 3007 	ldrsb.w	r3, [r7, #7]
20001332:	2b00      	cmp	r3, #0
20001334:	db0b      	blt.n	2000134e <__NVIC_EnableIRQ+0x2a>
20001336:	79fb      	ldrb	r3, [r7, #7]
20001338:	f003 021f 	and.w	r2, r3, #31
2000133c:	4906      	ldr	r1, [pc, #24]	; (20001358 <__NVIC_EnableIRQ+0x34>)
2000133e:	f997 3007 	ldrsb.w	r3, [r7, #7]
20001342:	095b      	lsrs	r3, r3, #5
20001344:	2001      	movs	r0, #1
20001346:	fa00 f202 	lsl.w	r2, r0, r2
2000134a:	f841 2023 	str.w	r2, [r1, r3, lsl #2]
2000134e:	bf00      	nop
20001350:	370c      	adds	r7, #12
20001352:	46bd      	mov	sp, r7
20001354:	bc80      	pop	{r7}
20001356:	4770      	bx	lr
20001358:	e000e100 	.word	0xe000e100

2000135c <__NVIC_DisableIRQ>:
2000135c:	b480      	push	{r7}
2000135e:	b083      	sub	sp, #12
20001360:	af00      	add	r7, sp, #0
20001362:	4603      	mov	r3, r0
20001364:	71fb      	strb	r3, [r7, #7]
20001366:	f997 3007 	ldrsb.w	r3, [r7, #7]
2000136a:	2b00      	cmp	r3, #0
2000136c:	db12      	blt.n	20001394 <__NVIC_DisableIRQ+0x38>
2000136e:	79fb      	ldrb	r3, [r7, #7]
20001370:	f003 021f 	and.w	r2, r3, #31
20001374:	490a      	ldr	r1, [pc, #40]	; (200013a0 <__NVIC_DisableIRQ+0x44>)
20001376:	f997 3007 	ldrsb.w	r3, [r7, #7]
2000137a:	095b      	lsrs	r3, r3, #5
2000137c:	2001      	movs	r0, #1
2000137e:	fa00 f202 	lsl.w	r2, r0, r2
20001382:	3320      	adds	r3, #32
20001384:	f841 2023 	str.w	r2, [r1, r3, lsl #2]
20001388:	f3bf 8f4f 	dsb	sy
2000138c:	bf00      	nop
2000138e:	f3bf 8f6f 	isb	sy
20001392:	bf00      	nop
20001394:	bf00      	nop
20001396:	370c      	adds	r7, #12
20001398:	46bd      	mov	sp, r7
2000139a:	bc80      	pop	{r7}
2000139c:	4770      	bx	lr
2000139e:	bf00      	nop
200013a0:	e000e100 	.word	0xe000e100

200013a4 <__NVIC_GetPendingIRQ>:
200013a4:	b480      	push	{r7}
200013a6:	b083      	sub	sp, #12
200013a8:	af00      	add	r7, sp, #0
200013aa:	4603      	mov	r3, r0
200013ac:	71fb      	strb	r3, [r7, #7]
200013ae:	f997 3007 	ldrsb.w	r3, [r7, #7]
200013b2:	2b00      	cmp	r3, #0
200013b4:	db0e      	blt.n	200013d4 <__NVIC_GetPendingIRQ+0x30>
200013b6:	4a0a      	ldr	r2, [pc, #40]	; (200013e0 <__NVIC_GetPendingIRQ+0x3c>)
200013b8:	f997 3007 	ldrsb.w	r3, [r7, #7]
200013bc:	095b      	lsrs	r3, r3, #5
200013be:	3340      	adds	r3, #64	; 0x40
200013c0:	f852 2023 	ldr.w	r2, [r2, r3, lsl #2]
200013c4:	79fb      	ldrb	r3, [r7, #7]
200013c6:	f003 031f 	and.w	r3, r3, #31
200013ca:	fa22 f303 	lsr.w	r3, r2, r3
200013ce:	f003 0301 	and.w	r3, r3, #1
200013d2:	e000      	b.n	200013d6 <__NVIC_GetPendingIRQ+0x32>
200013d4:	2300      	movs	r3, #0
200013d6:	4618      	mov	r0, r3
200013d8:	370c      	adds	r7, #12
200013da:	46bd      	mov	sp, r7
200013dc:	bc80      	pop	{r7}
200013de:	4770      	bx	lr
200013e0:	e000e100 	.word	0xe000e100

200013e4 <__NVIC_SetPendingIRQ>:
200013e4:	b480      	push	{r7}
200013e6:	b083      	sub	sp, #12
200013e8:	af00      	add	r7, sp, #0
200013ea:	4603      	mov	r3, r0
200013ec:	71fb      	strb	r3, [r7, #7]
200013ee:	f997 3007 	ldrsb.w	r3, [r7, #7]
200013f2:	2b00      	cmp	r3, #0
200013f4:	db0c      	blt.n	20001410 <__NVIC_SetPendingIRQ+0x2c>
200013f6:	79fb      	ldrb	r3, [r7, #7]
200013f8:	f003 021f 	and.w	r2, r3, #31
200013fc:	4907      	ldr	r1, [pc, #28]	; (2000141c <__NVIC_SetPendingIRQ+0x38>)
200013fe:	f997 3007 	ldrsb.w	r3, [r7, #7]
20001402:	095b      	lsrs	r3, r3, #5
20001404:	2001      	movs	r0, #1
20001406:	fa00 f202 	lsl.w	r2, r0, r2
2000140a:	3340      	adds	r3, #64	; 0x40
2000140c:	f841 2023 	str.w	r2, [r1, r3, lsl #2]
20001410:	bf00      	nop
20001412:	370c      	adds	r7, #12
20001414:	46bd      	mov	sp, r7
20001416:	bc80      	pop	{r7}
20001418:	4770      	bx	lr
2000141a:	bf00      	nop
2000141c:	e000e100 	.word	0xe000e100

20001420 <__NVIC_ClearPendingIRQ>:
20001420:	b480      	push	{r7}
20001422:	b083      	sub	sp, #12
20001424:	af00      	add	r7, sp, #0
20001426:	4603      	mov	r3, r0
20001428:	71fb      	strb	r3, [r7, #7]
2000142a:	f997 3007 	ldrsb.w	r3, [r7, #7]
2000142e:	2b00      	cmp	r3, #0
20001430:	db0c      	blt.n	2000144c <__NVIC_ClearPendingIRQ+0x2c>
20001432:	79fb      	ldrb	r3, [r7, #7]
20001434:	f003 021f 	and.w	r2, r3, #31
20001438:	4907      	ldr	r1, [pc, #28]	; (20001458 <__NVIC_ClearPendingIRQ+0x38>)
2000143a:	f997 3007 	ldrsb.w	r3, [r7, #7]
2000143e:	095b      	lsrs	r3, r3, #5
20001440:	2001      	movs	r0, #1
20001442:	fa00 f202 	lsl.w	r2, r0, r2
20001446:	3360      	adds	r3, #96	; 0x60
20001448:	f841 2023 	str.w	r2, [r1, r3, lsl #2]
2000144c:	bf00      	nop
2000144e:	370c      	adds	r7, #12
20001450:	46bd      	mov	sp, r7
20001452:	bc80      	pop	{r7}
20001454:	4770      	bx	lr
20001456:	bf00      	nop
20001458:	e000e100 	.word	0xe000e100

2000145c <__NVIC_GetActive>:
2000145c:	b480      	push	{r7}
2000145e:	b083      	sub	sp, #12
20001460:	af00      	add	r7, sp, #0
20001462:	4603      	mov	r3, r0
20001464:	71fb      	strb	r3, [r7, #7]
20001466:	f997 3007 	ldrsb.w	r3, [r7, #7]
2000146a:	2b00      	cmp	r3, #0
2000146c:	db0e      	blt.n	2000148c <__NVIC_GetActive+0x30>
2000146e:	4a0a      	ldr	r2, [pc, #40]	; (20001498 <__NVIC_GetActive+0x3c>)
20001470:	f997 3007 	ldrsb.w	r3, [r7, #7]
20001474:	095b      	lsrs	r3, r3, #5
20001476:	3380      	adds	r3, #128	; 0x80
20001478:	f852 2023 	ldr.w	r2, [r2, r3, lsl #2]
2000147c:	79fb      	ldrb	r3, [r7, #7]
2000147e:	f003 031f 	and.w	r3, r3, #31
20001482:	fa22 f303 	lsr.w	r3, r2, r3
20001486:	f003 0301 	and.w	r3, r3, #1
2000148a:	e000      	b.n	2000148e <__NVIC_GetActive+0x32>
2000148c:	2300      	movs	r3, #0
2000148e:	4618      	mov	r0, r3
20001490:	370c      	adds	r7, #12
20001492:	46bd      	mov	sp, r7
20001494:	bc80      	pop	{r7}
20001496:	4770      	bx	lr
20001498:	e000e100 	.word	0xe000e100

2000149c <__NVIC_SetPriority>:
2000149c:	b480      	push	{r7}
2000149e:	b083      	sub	sp, #12
200014a0:	af00      	add	r7, sp, #0
200014a2:	4603      	mov	r3, r0
200014a4:	6039      	str	r1, [r7, #0]
200014a6:	71fb      	strb	r3, [r7, #7]
200014a8:	f997 3007 	ldrsb.w	r3, [r7, #7]
200014ac:	2b00      	cmp	r3, #0
200014ae:	db0a      	blt.n	200014c6 <__NVIC_SetPriority+0x2a>
200014b0:	683b      	ldr	r3, [r7, #0]
200014b2:	b2da      	uxtb	r2, r3
200014b4:	490c      	ldr	r1, [pc, #48]	; (200014e8 <__NVIC_SetPriority+0x4c>)
200014b6:	f997 3007 	ldrsb.w	r3, [r7, #7]
200014ba:	0112      	lsls	r2, r2, #4
200014bc:	b2d2      	uxtb	r2, r2
200014be:	440b      	add	r3, r1
200014c0:	f883 2300 	strb.w	r2, [r3, #768]	; 0x300
200014c4:	e00a      	b.n	200014dc <__NVIC_SetPriority+0x40>
200014c6:	683b      	ldr	r3, [r7, #0]
200014c8:	b2da      	uxtb	r2, r3
200014ca:	4908      	ldr	r1, [pc, #32]	; (200014ec <__NVIC_SetPriority+0x50>)
200014cc:	79fb      	ldrb	r3, [r7, #7]
200014ce:	f003 030f 	and.w	r3, r3, #15
200014d2:	3b04      	subs	r3, #4
200014d4:	0112      	lsls	r2, r2, #4
200014d6:	b2d2      	uxtb	r2, r2
200014d8:	440b      	add	r3, r1
200014da:	761a      	strb	r2, [r3, #24]
200014dc:	bf00      	nop
200014de:	370c      	adds	r7, #12
200014e0:	46bd      	mov	sp, r7
200014e2:	bc80      	pop	{r7}
200014e4:	4770      	bx	lr
200014e6:	bf00      	nop
200014e8:	e000e100 	.word	0xe000e100
200014ec:	e000ed00 	.word	0xe000ed00

200014f0 <__NVIC_GetPriority>:
200014f0:	b480      	push	{r7}
200014f2:	b083      	sub	sp, #12
200014f4:	af00      	add	r7, sp, #0
200014f6:	4603      	mov	r3, r0
200014f8:	71fb      	strb	r3, [r7, #7]
200014fa:	f997 3007 	ldrsb.w	r3, [r7, #7]
200014fe:	2b00      	cmp	r3, #0
20001500:	db09      	blt.n	20001516 <__NVIC_GetPriority+0x26>
20001502:	4a0c      	ldr	r2, [pc, #48]	; (20001534 <__NVIC_GetPriority+0x44>)
20001504:	f997 3007 	ldrsb.w	r3, [r7, #7]
20001508:	4413      	add	r3, r2
2000150a:	f893 3300 	ldrb.w	r3, [r3, #768]	; 0x300
2000150e:	b2db      	uxtb	r3, r3
20001510:	091b      	lsrs	r3, r3, #4
20001512:	b2db      	uxtb	r3, r3
20001514:	e009      	b.n	2000152a <__NVIC_GetPriority+0x3a>
20001516:	4a08      	ldr	r2, [pc, #32]	; (20001538 <__NVIC_GetPriority+0x48>)
20001518:	79fb      	ldrb	r3, [r7, #7]
2000151a:	f003 030f 	and.w	r3, r3, #15
2000151e:	3b04      	subs	r3, #4
20001520:	4413      	add	r3, r2
20001522:	7e1b      	ldrb	r3, [r3, #24]
20001524:	b2db      	uxtb	r3, r3
20001526:	091b      	lsrs	r3, r3, #4
20001528:	b2db      	uxtb	r3, r3
2000152a:	4618      	mov	r0, r3
2000152c:	370c      	adds	r7, #12
2000152e:	46bd      	mov	sp, r7
20001530:	bc80      	pop	{r7}
20001532:	4770      	bx	lr
20001534:	e000e100 	.word	0xe000e100
20001538:	e000ed00 	.word	0xe000ed00

2000153c <NVIC_EncodePriority>:
2000153c:	b480      	push	{r7}
2000153e:	b089      	sub	sp, #36	; 0x24
20001540:	af00      	add	r7, sp, #0
20001542:	60f8      	str	r0, [r7, #12]
20001544:	60b9      	str	r1, [r7, #8]
20001546:	607a      	str	r2, [r7, #4]
20001548:	68fb      	ldr	r3, [r7, #12]
2000154a:	f003 0307 	and.w	r3, r3, #7
2000154e:	61fb      	str	r3, [r7, #28]
20001550:	69fb      	ldr	r3, [r7, #28]
20001552:	f1c3 0307 	rsb	r3, r3, #7
20001556:	2b04      	cmp	r3, #4
20001558:	bf28      	it	cs
2000155a:	2304      	movcs	r3, #4
2000155c:	61bb      	str	r3, [r7, #24]
2000155e:	69fb      	ldr	r3, [r7, #28]
20001560:	3304      	adds	r3, #4
20001562:	2b06      	cmp	r3, #6
20001564:	d902      	bls.n	2000156c <NVIC_EncodePriority+0x30>
20001566:	69fb      	ldr	r3, [r7, #28]
20001568:	3b03      	subs	r3, #3
2000156a:	e000      	b.n	2000156e <NVIC_EncodePriority+0x32>
2000156c:	2300      	movs	r3, #0
2000156e:	617b      	str	r3, [r7, #20]
20001570:	f04f 32ff 	mov.w	r2, #4294967295
20001574:	69bb      	ldr	r3, [r7, #24]
20001576:	fa02 f303 	lsl.w	r3, r2, r3
2000157a:	43da      	mvns	r2, r3
2000157c:	68bb      	ldr	r3, [r7, #8]
2000157e:	401a      	ands	r2, r3
20001580:	697b      	ldr	r3, [r7, #20]
20001582:	409a      	lsls	r2, r3
20001584:	f04f 31ff 	mov.w	r1, #4294967295
20001588:	697b      	ldr	r3, [r7, #20]
2000158a:	fa01 f303 	lsl.w	r3, r1, r3
2000158e:	43d9      	mvns	r1, r3
20001590:	687b      	ldr	r3, [r7, #4]
20001592:	400b      	ands	r3, r1
20001594:	4313      	orrs	r3, r2
20001596:	4618      	mov	r0, r3
20001598:	3724      	adds	r7, #36	; 0x24
2000159a:	46bd      	mov	sp, r7
2000159c:	bc80      	pop	{r7}
2000159e:	4770      	bx	lr

200015a0 <NVIC_DecodePriority>:
200015a0:	b480      	push	{r7}
200015a2:	b089      	sub	sp, #36	; 0x24
200015a4:	af00      	add	r7, sp, #0
200015a6:	60f8      	str	r0, [r7, #12]
200015a8:	60b9      	str	r1, [r7, #8]
200015aa:	607a      	str	r2, [r7, #4]
200015ac:	603b      	str	r3, [r7, #0]
200015ae:	68bb      	ldr	r3, [r7, #8]
200015b0:	f003 0307 	and.w	r3, r3, #7
200015b4:	61fb      	str	r3, [r7, #28]
200015b6:	69fb      	ldr	r3, [r7, #28]
200015b8:	f1c3 0307 	rsb	r3, r3, #7
200015bc:	2b04      	cmp	r3, #4
200015be:	bf28      	it	cs
200015c0:	2304      	movcs	r3, #4
200015c2:	61bb      	str	r3, [r7, #24]
200015c4:	69fb      	ldr	r3, [r7, #28]
200015c6:	3304      	adds	r3, #4
200015c8:	2b06      	cmp	r3, #6
200015ca:	d902      	bls.n	200015d2 <NVIC_DecodePriority+0x32>
200015cc:	69fb      	ldr	r3, [r7, #28]
200015ce:	3b03      	subs	r3, #3
200015d0:	e000      	b.n	200015d4 <NVIC_DecodePriority+0x34>
200015d2:	2300      	movs	r3, #0
200015d4:	617b      	str	r3, [r7, #20]
200015d6:	68fa      	ldr	r2, [r7, #12]
200015d8:	697b      	ldr	r3, [r7, #20]
200015da:	40da      	lsrs	r2, r3
200015dc:	f04f 31ff 	mov.w	r1, #4294967295
200015e0:	69bb      	ldr	r3, [r7, #24]
200015e2:	fa01 f303 	lsl.w	r3, r1, r3
200015e6:	43db      	mvns	r3, r3
200015e8:	401a      	ands	r2, r3
200015ea:	687b      	ldr	r3, [r7, #4]
200015ec:	601a      	str	r2, [r3, #0]
200015ee:	f04f 32ff 	mov.w	r2, #4294967295
200015f2:	697b      	ldr	r3, [r7, #20]
200015f4:	fa02 f303 	lsl.w	r3, r2, r3
200015f8:	43da      	mvns	r2, r3
200015fa:	68fb      	ldr	r3, [r7, #12]
200015fc:	401a      	ands	r2, r3
200015fe:	683b      	ldr	r3, [r7, #0]
20001600:	601a      	str	r2, [r3, #0]
20001602:	bf00      	nop
20001604:	3724      	adds	r7, #36	; 0x24
20001606:	46bd      	mov	sp, r7
20001608:	bc80      	pop	{r7}
2000160a:	4770      	bx	lr

2000160c <__NVIC_SystemReset>:
2000160c:	b480      	push	{r7}
2000160e:	af00      	add	r7, sp, #0
20001610:	f3bf 8f4f 	dsb	sy
20001614:	bf00      	nop
20001616:	4b06      	ldr	r3, [pc, #24]	; (20001630 <__NVIC_SystemReset+0x24>)
20001618:	68db      	ldr	r3, [r3, #12]
2000161a:	f403 62e0 	and.w	r2, r3, #1792	; 0x700
2000161e:	4904      	ldr	r1, [pc, #16]	; (20001630 <__NVIC_SystemReset+0x24>)
20001620:	4b04      	ldr	r3, [pc, #16]	; (20001634 <__NVIC_SystemReset+0x28>)
20001622:	4313      	orrs	r3, r2
20001624:	60cb      	str	r3, [r1, #12]
20001626:	f3bf 8f4f 	dsb	sy
2000162a:	bf00      	nop
2000162c:	bf00      	nop
2000162e:	e7fd      	b.n	2000162c <__NVIC_SystemReset+0x20>
20001630:	e000ed00 	.word	0xe000ed00
20001634:	05fa0004 	.word	0x05fa0004

20001638 <SysTick_Config>:
20001638:	b580      	push	{r7, lr}
2000163a:	b082      	sub	sp, #8
2000163c:	af00      	add	r7, sp, #0
2000163e:	6078      	str	r0, [r7, #4]
20001640:	687b      	ldr	r3, [r7, #4]
20001642:	3b01      	subs	r3, #1
20001644:	f1b3 7f80 	cmp.w	r3, #16777216	; 0x1000000
20001648:	d301      	bcc.n	2000164e <SysTick_Config+0x16>
2000164a:	2301      	movs	r3, #1
2000164c:	e00f      	b.n	2000166e <SysTick_Config+0x36>
2000164e:	4a0a      	ldr	r2, [pc, #40]	; (20001678 <SysTick_Config+0x40>)
20001650:	687b      	ldr	r3, [r7, #4]
20001652:	3b01      	subs	r3, #1
20001654:	6053      	str	r3, [r2, #4]
20001656:	210f      	movs	r1, #15
20001658:	f04f 30ff 	mov.w	r0, #4294967295
2000165c:	f7ff ff1e 	bl	2000149c <__NVIC_SetPriority>
20001660:	4b05      	ldr	r3, [pc, #20]	; (20001678 <SysTick_Config+0x40>)
20001662:	2200      	movs	r2, #0
20001664:	609a      	str	r2, [r3, #8]
20001666:	4b04      	ldr	r3, [pc, #16]	; (20001678 <SysTick_Config+0x40>)
20001668:	2207      	movs	r2, #7
2000166a:	601a      	str	r2, [r3, #0]
2000166c:	2300      	movs	r3, #0
2000166e:	4618      	mov	r0, r3
20001670:	3708      	adds	r7, #8
20001672:	46bd      	mov	sp, r7
20001674:	bd80      	pop	{r7, pc}
20001676:	bf00      	nop
20001678:	e000e010 	.word	0xe000e010

2000167c <HAL_NVIC_SetPriorityGrouping>:
2000167c:	b580      	push	{r7, lr}
2000167e:	b082      	sub	sp, #8
20001680:	af00      	add	r7, sp, #0
20001682:	6078      	str	r0, [r7, #4]
20001684:	6878      	ldr	r0, [r7, #4]
20001686:	f7ff fe1b 	bl	200012c0 <__NVIC_SetPriorityGrouping>
2000168a:	bf00      	nop
2000168c:	3708      	adds	r7, #8
2000168e:	46bd      	mov	sp, r7
20001690:	bd80      	pop	{r7, pc}

20001692 <HAL_NVIC_SetPriority>:
20001692:	b580      	push	{r7, lr}
20001694:	b086      	sub	sp, #24
20001696:	af00      	add	r7, sp, #0
20001698:	4603      	mov	r3, r0
2000169a:	60b9      	str	r1, [r7, #8]
2000169c:	607a      	str	r2, [r7, #4]
2000169e:	73fb      	strb	r3, [r7, #15]
200016a0:	2300      	movs	r3, #0
200016a2:	617b      	str	r3, [r7, #20]
200016a4:	f7ff fe30 	bl	20001308 <__NVIC_GetPriorityGrouping>
200016a8:	6178      	str	r0, [r7, #20]
200016aa:	687a      	ldr	r2, [r7, #4]
200016ac:	68b9      	ldr	r1, [r7, #8]
200016ae:	6978      	ldr	r0, [r7, #20]
200016b0:	f7ff ff44 	bl	2000153c <NVIC_EncodePriority>
200016b4:	4602      	mov	r2, r0
200016b6:	f997 300f 	ldrsb.w	r3, [r7, #15]
200016ba:	4611      	mov	r1, r2
200016bc:	4618      	mov	r0, r3
200016be:	f7ff feed 	bl	2000149c <__NVIC_SetPriority>
200016c2:	bf00      	nop
200016c4:	3718      	adds	r7, #24
200016c6:	46bd      	mov	sp, r7
200016c8:	bd80      	pop	{r7, pc}

200016ca <HAL_NVIC_EnableIRQ>:
200016ca:	b580      	push	{r7, lr}
200016cc:	b082      	sub	sp, #8
200016ce:	af00      	add	r7, sp, #0
200016d0:	4603      	mov	r3, r0
200016d2:	71fb      	strb	r3, [r7, #7]
200016d4:	f997 3007 	ldrsb.w	r3, [r7, #7]
200016d8:	4618      	mov	r0, r3
200016da:	f7ff fe23 	bl	20001324 <__NVIC_EnableIRQ>
200016de:	bf00      	nop
200016e0:	3708      	adds	r7, #8
200016e2:	46bd      	mov	sp, r7
200016e4:	bd80      	pop	{r7, pc}

200016e6 <HAL_NVIC_DisableIRQ>:
200016e6:	b580      	push	{r7, lr}
200016e8:	b082      	sub	sp, #8
200016ea:	af00      	add	r7, sp, #0
200016ec:	4603      	mov	r3, r0
200016ee:	71fb      	strb	r3, [r7, #7]
200016f0:	f997 3007 	ldrsb.w	r3, [r7, #7]
200016f4:	4618      	mov	r0, r3
200016f6:	f7ff fe31 	bl	2000135c <__NVIC_DisableIRQ>
200016fa:	bf00      	nop
200016fc:	3708      	adds	r7, #8
200016fe:	46bd      	mov	sp, r7
20001700:	bd80      	pop	{r7, pc}

20001702 <HAL_NVIC_SystemReset>:
20001702:	b580      	push	{r7, lr}
20001704:	af00      	add	r7, sp, #0
20001706:	f7ff ff81 	bl	2000160c <__NVIC_SystemReset>

2000170a <HAL_SYSTICK_Config>:
2000170a:	b580      	push	{r7, lr}
2000170c:	b082      	sub	sp, #8
2000170e:	af00      	add	r7, sp, #0
20001710:	6078      	str	r0, [r7, #4]
20001712:	6878      	ldr	r0, [r7, #4]
20001714:	f7ff ff90 	bl	20001638 <SysTick_Config>
20001718:	4603      	mov	r3, r0
2000171a:	4618      	mov	r0, r3
2000171c:	3708      	adds	r7, #8
2000171e:	46bd      	mov	sp, r7
20001720:	bd80      	pop	{r7, pc}

20001722 <HAL_MPU_Disable>:
20001722:	b480      	push	{r7}
20001724:	af00      	add	r7, sp, #0
20001726:	f3bf 8f5f 	dmb	sy
2000172a:	bf00      	nop
2000172c:	4b06      	ldr	r3, [pc, #24]	; (20001748 <HAL_MPU_Disable+0x26>)
2000172e:	6a5b      	ldr	r3, [r3, #36]	; 0x24
20001730:	4a05      	ldr	r2, [pc, #20]	; (20001748 <HAL_MPU_Disable+0x26>)
20001732:	f423 3380 	bic.w	r3, r3, #65536	; 0x10000
20001736:	6253      	str	r3, [r2, #36]	; 0x24
20001738:	4b04      	ldr	r3, [pc, #16]	; (2000174c <HAL_MPU_Disable+0x2a>)
2000173a:	2200      	movs	r2, #0
2000173c:	605a      	str	r2, [r3, #4]
2000173e:	bf00      	nop
20001740:	46bd      	mov	sp, r7
20001742:	bc80      	pop	{r7}
20001744:	4770      	bx	lr
20001746:	bf00      	nop
20001748:	e000ed00 	.word	0xe000ed00
2000174c:	e000ed90 	.word	0xe000ed90

20001750 <HAL_MPU_Enable>:
20001750:	b480      	push	{r7}
20001752:	b083      	sub	sp, #12
20001754:	af00      	add	r7, sp, #0
20001756:	6078      	str	r0, [r7, #4]
20001758:	4a0a      	ldr	r2, [pc, #40]	; (20001784 <HAL_MPU_Enable+0x34>)
2000175a:	687b      	ldr	r3, [r7, #4]
2000175c:	f043 0301 	orr.w	r3, r3, #1
20001760:	6053      	str	r3, [r2, #4]
20001762:	4b09      	ldr	r3, [pc, #36]	; (20001788 <HAL_MPU_Enable+0x38>)
20001764:	6a5b      	ldr	r3, [r3, #36]	; 0x24
20001766:	4a08      	ldr	r2, [pc, #32]	; (20001788 <HAL_MPU_Enable+0x38>)
20001768:	f443 3380 	orr.w	r3, r3, #65536	; 0x10000
2000176c:	6253      	str	r3, [r2, #36]	; 0x24
2000176e:	f3bf 8f4f 	dsb	sy
20001772:	bf00      	nop
20001774:	f3bf 8f6f 	isb	sy
20001778:	bf00      	nop
2000177a:	bf00      	nop
2000177c:	370c      	adds	r7, #12
2000177e:	46bd      	mov	sp, r7
20001780:	bc80      	pop	{r7}
20001782:	4770      	bx	lr
20001784:	e000ed90 	.word	0xe000ed90
20001788:	e000ed00 	.word	0xe000ed00

2000178c <HAL_MPU_ConfigRegion>:
2000178c:	b480      	push	{r7}
2000178e:	b083      	sub	sp, #12
20001790:	af00      	add	r7, sp, #0
20001792:	6078      	str	r0, [r7, #4]
20001794:	687b      	ldr	r3, [r7, #4]
20001796:	785a      	ldrb	r2, [r3, #1]
20001798:	4b1d      	ldr	r3, [pc, #116]	; (20001810 <HAL_MPU_ConfigRegion+0x84>)
2000179a:	609a      	str	r2, [r3, #8]
2000179c:	687b      	ldr	r3, [r7, #4]
2000179e:	781b      	ldrb	r3, [r3, #0]
200017a0:	2b00      	cmp	r3, #0
200017a2:	d029      	beq.n	200017f8 <HAL_MPU_ConfigRegion+0x6c>
200017a4:	4a1a      	ldr	r2, [pc, #104]	; (20001810 <HAL_MPU_ConfigRegion+0x84>)
200017a6:	687b      	ldr	r3, [r7, #4]
200017a8:	685b      	ldr	r3, [r3, #4]
200017aa:	60d3      	str	r3, [r2, #12]
200017ac:	687b      	ldr	r3, [r7, #4]
200017ae:	7b1b      	ldrb	r3, [r3, #12]
200017b0:	071a      	lsls	r2, r3, #28
200017b2:	687b      	ldr	r3, [r7, #4]
200017b4:	7adb      	ldrb	r3, [r3, #11]
200017b6:	061b      	lsls	r3, r3, #24
200017b8:	431a      	orrs	r2, r3
200017ba:	687b      	ldr	r3, [r7, #4]
200017bc:	7a9b      	ldrb	r3, [r3, #10]
200017be:	04db      	lsls	r3, r3, #19
200017c0:	431a      	orrs	r2, r3
200017c2:	687b      	ldr	r3, [r7, #4]
200017c4:	7b5b      	ldrb	r3, [r3, #13]
200017c6:	049b      	lsls	r3, r3, #18
200017c8:	431a      	orrs	r2, r3
200017ca:	687b      	ldr	r3, [r7, #4]
200017cc:	7b9b      	ldrb	r3, [r3, #14]
200017ce:	045b      	lsls	r3, r3, #17
200017d0:	431a      	orrs	r2, r3
200017d2:	687b      	ldr	r3, [r7, #4]
200017d4:	7bdb      	ldrb	r3, [r3, #15]
200017d6:	041b      	lsls	r3, r3, #16
200017d8:	431a      	orrs	r2, r3
200017da:	687b      	ldr	r3, [r7, #4]
200017dc:	7a5b      	ldrb	r3, [r3, #9]
200017de:	021b      	lsls	r3, r3, #8
200017e0:	431a      	orrs	r2, r3
200017e2:	687b      	ldr	r3, [r7, #4]
200017e4:	7a1b      	ldrb	r3, [r3, #8]
200017e6:	005b      	lsls	r3, r3, #1
200017e8:	4313      	orrs	r3, r2
200017ea:	687a      	ldr	r2, [r7, #4]
200017ec:	7812      	ldrb	r2, [r2, #0]
200017ee:	4611      	mov	r1, r2
200017f0:	4a07      	ldr	r2, [pc, #28]	; (20001810 <HAL_MPU_ConfigRegion+0x84>)
200017f2:	430b      	orrs	r3, r1
200017f4:	6113      	str	r3, [r2, #16]
200017f6:	e005      	b.n	20001804 <HAL_MPU_ConfigRegion+0x78>
200017f8:	4b05      	ldr	r3, [pc, #20]	; (20001810 <HAL_MPU_ConfigRegion+0x84>)
200017fa:	2200      	movs	r2, #0
200017fc:	60da      	str	r2, [r3, #12]
200017fe:	4b04      	ldr	r3, [pc, #16]	; (20001810 <HAL_MPU_ConfigRegion+0x84>)
20001800:	2200      	movs	r2, #0
20001802:	611a      	str	r2, [r3, #16]
20001804:	bf00      	nop
20001806:	370c      	adds	r7, #12
20001808:	46bd      	mov	sp, r7
2000180a:	bc80      	pop	{r7}
2000180c:	4770      	bx	lr
2000180e:	bf00      	nop
20001810:	e000ed90 	.word	0xe000ed90

20001814 <HAL_NVIC_GetPriorityGrouping>:
20001814:	b580      	push	{r7, lr}
20001816:	af00      	add	r7, sp, #0
20001818:	f7ff fd76 	bl	20001308 <__NVIC_GetPriorityGrouping>
2000181c:	4603      	mov	r3, r0
2000181e:	4618      	mov	r0, r3
20001820:	bd80      	pop	{r7, pc}

20001822 <HAL_NVIC_GetPriority>:
20001822:	b580      	push	{r7, lr}
20001824:	b084      	sub	sp, #16
20001826:	af00      	add	r7, sp, #0
20001828:	60b9      	str	r1, [r7, #8]
2000182a:	607a      	str	r2, [r7, #4]
2000182c:	603b      	str	r3, [r7, #0]
2000182e:	4603      	mov	r3, r0
20001830:	73fb      	strb	r3, [r7, #15]
20001832:	f997 300f 	ldrsb.w	r3, [r7, #15]
20001836:	4618      	mov	r0, r3
20001838:	f7ff fe5a 	bl	200014f0 <__NVIC_GetPriority>
2000183c:	683b      	ldr	r3, [r7, #0]
2000183e:	687a      	ldr	r2, [r7, #4]
20001840:	68b9      	ldr	r1, [r7, #8]
20001842:	f7ff fead 	bl	200015a0 <NVIC_DecodePriority>
20001846:	bf00      	nop
20001848:	3710      	adds	r7, #16
2000184a:	46bd      	mov	sp, r7
2000184c:	bd80      	pop	{r7, pc}

2000184e <HAL_NVIC_SetPendingIRQ>:
2000184e:	b580      	push	{r7, lr}
20001850:	b082      	sub	sp, #8
20001852:	af00      	add	r7, sp, #0
20001854:	4603      	mov	r3, r0
20001856:	71fb      	strb	r3, [r7, #7]
20001858:	f997 3007 	ldrsb.w	r3, [r7, #7]
2000185c:	4618      	mov	r0, r3
2000185e:	f7ff fdc1 	bl	200013e4 <__NVIC_SetPendingIRQ>
20001862:	bf00      	nop
20001864:	3708      	adds	r7, #8
20001866:	46bd      	mov	sp, r7
20001868:	bd80      	pop	{r7, pc}

2000186a <HAL_NVIC_GetPendingIRQ>:
2000186a:	b580      	push	{r7, lr}
2000186c:	b082      	sub	sp, #8
2000186e:	af00      	add	r7, sp, #0
20001870:	4603      	mov	r3, r0
20001872:	71fb      	strb	r3, [r7, #7]
20001874:	f997 3007 	ldrsb.w	r3, [r7, #7]
20001878:	4618      	mov	r0, r3
2000187a:	f7ff fd93 	bl	200013a4 <__NVIC_GetPendingIRQ>
2000187e:	4603      	mov	r3, r0
20001880:	4618      	mov	r0, r3
20001882:	3708      	adds	r7, #8
20001884:	46bd      	mov	sp, r7
20001886:	bd80      	pop	{r7, pc}

20001888 <HAL_NVIC_ClearPendingIRQ>:
20001888:	b580      	push	{r7, lr}
2000188a:	b082      	sub	sp, #8
2000188c:	af00      	add	r7, sp, #0
2000188e:	4603      	mov	r3, r0
20001890:	71fb      	strb	r3, [r7, #7]
20001892:	f997 3007 	ldrsb.w	r3, [r7, #7]
20001896:	4618      	mov	r0, r3
20001898:	f7ff fdc2 	bl	20001420 <__NVIC_ClearPendingIRQ>
2000189c:	bf00      	nop
2000189e:	3708      	adds	r7, #8
200018a0:	46bd      	mov	sp, r7
200018a2:	bd80      	pop	{r7, pc}

200018a4 <HAL_NVIC_GetActive>:
200018a4:	b580      	push	{r7, lr}
200018a6:	b082      	sub	sp, #8
200018a8:	af00      	add	r7, sp, #0
200018aa:	4603      	mov	r3, r0
200018ac:	71fb      	strb	r3, [r7, #7]
200018ae:	f997 3007 	ldrsb.w	r3, [r7, #7]
200018b2:	4618      	mov	r0, r3
200018b4:	f7ff fdd2 	bl	2000145c <__NVIC_GetActive>
200018b8:	4603      	mov	r3, r0
200018ba:	4618      	mov	r0, r3
200018bc:	3708      	adds	r7, #8
200018be:	46bd      	mov	sp, r7
200018c0:	bd80      	pop	{r7, pc}

200018c2 <HAL_SYSTICK_CLKSourceConfig>:
200018c2:	b480      	push	{r7}
200018c4:	b083      	sub	sp, #12
200018c6:	af00      	add	r7, sp, #0
200018c8:	6078      	str	r0, [r7, #4]
200018ca:	687b      	ldr	r3, [r7, #4]
200018cc:	2b04      	cmp	r3, #4
200018ce:	d106      	bne.n	200018de <HAL_SYSTICK_CLKSourceConfig+0x1c>
200018d0:	4b08      	ldr	r3, [pc, #32]	; (200018f4 <HAL_SYSTICK_CLKSourceConfig+0x32>)
200018d2:	681b      	ldr	r3, [r3, #0]
200018d4:	4a07      	ldr	r2, [pc, #28]	; (200018f4 <HAL_SYSTICK_CLKSourceConfig+0x32>)
200018d6:	f043 0304 	orr.w	r3, r3, #4
200018da:	6013      	str	r3, [r2, #0]
200018dc:	e005      	b.n	200018ea <HAL_SYSTICK_CLKSourceConfig+0x28>
200018de:	4b05      	ldr	r3, [pc, #20]	; (200018f4 <HAL_SYSTICK_CLKSourceConfig+0x32>)
200018e0:	681b      	ldr	r3, [r3, #0]
200018e2:	4a04      	ldr	r2, [pc, #16]	; (200018f4 <HAL_SYSTICK_CLKSourceConfig+0x32>)
200018e4:	f023 0304 	bic.w	r3, r3, #4
200018e8:	6013      	str	r3, [r2, #0]
200018ea:	bf00      	nop
200018ec:	370c      	adds	r7, #12
200018ee:	46bd      	mov	sp, r7
200018f0:	bc80      	pop	{r7}
200018f2:	4770      	bx	lr
200018f4:	e000e010 	.word	0xe000e010

200018f8 <HAL_SYSTICK_IRQHandler>:
200018f8:	b580      	push	{r7, lr}
200018fa:	af00      	add	r7, sp, #0
200018fc:	f000 f802 	bl	20001904 <HAL_SYSTICK_Callback>
20001900:	bf00      	nop
20001902:	bd80      	pop	{r7, pc}

20001904 <HAL_SYSTICK_Callback>:
20001904:	b480      	push	{r7}
20001906:	af00      	add	r7, sp, #0
20001908:	bf00      	nop
2000190a:	46bd      	mov	sp, r7
2000190c:	bc80      	pop	{r7}
2000190e:	4770      	bx	lr

20001910 <HAL_DMA_Init>:
20001910:	b580      	push	{r7, lr}
20001912:	b086      	sub	sp, #24
20001914:	af00      	add	r7, sp, #0
20001916:	6078      	str	r0, [r7, #4]
20001918:	2300      	movs	r3, #0
2000191a:	617b      	str	r3, [r7, #20]
2000191c:	f7ff fb9e 	bl	2000105c <HAL_GetTick>
20001920:	6138      	str	r0, [r7, #16]
20001922:	687b      	ldr	r3, [r7, #4]
20001924:	2b00      	cmp	r3, #0
20001926:	d101      	bne.n	2000192c <HAL_DMA_Init+0x1c>
20001928:	2301      	movs	r3, #1
2000192a:	e099      	b.n	20001a60 <HAL_DMA_Init+0x150>
2000192c:	687b      	ldr	r3, [r7, #4]
2000192e:	2200      	movs	r2, #0
20001930:	f883 2034 	strb.w	r2, [r3, #52]	; 0x34
20001934:	687b      	ldr	r3, [r7, #4]
20001936:	2202      	movs	r2, #2
20001938:	f883 2035 	strb.w	r2, [r3, #53]	; 0x35
2000193c:	687b      	ldr	r3, [r7, #4]
2000193e:	681b      	ldr	r3, [r3, #0]
20001940:	681a      	ldr	r2, [r3, #0]
20001942:	687b      	ldr	r3, [r7, #4]
20001944:	681b      	ldr	r3, [r3, #0]
20001946:	f022 0201 	bic.w	r2, r2, #1
2000194a:	601a      	str	r2, [r3, #0]
2000194c:	e00f      	b.n	2000196e <HAL_DMA_Init+0x5e>
2000194e:	f7ff fb85 	bl	2000105c <HAL_GetTick>
20001952:	4602      	mov	r2, r0
20001954:	693b      	ldr	r3, [r7, #16]
20001956:	1ad3      	subs	r3, r2, r3
20001958:	2b05      	cmp	r3, #5
2000195a:	d908      	bls.n	2000196e <HAL_DMA_Init+0x5e>
2000195c:	687b      	ldr	r3, [r7, #4]
2000195e:	2220      	movs	r2, #32
20001960:	655a      	str	r2, [r3, #84]	; 0x54
20001962:	687b      	ldr	r3, [r7, #4]
20001964:	2203      	movs	r2, #3
20001966:	f883 2035 	strb.w	r2, [r3, #53]	; 0x35
2000196a:	2303      	movs	r3, #3
2000196c:	e078      	b.n	20001a60 <HAL_DMA_Init+0x150>
2000196e:	687b      	ldr	r3, [r7, #4]
20001970:	681b      	ldr	r3, [r3, #0]
20001972:	681b      	ldr	r3, [r3, #0]
20001974:	f003 0301 	and.w	r3, r3, #1
20001978:	2b00      	cmp	r3, #0
2000197a:	d1e8      	bne.n	2000194e <HAL_DMA_Init+0x3e>
2000197c:	687b      	ldr	r3, [r7, #4]
2000197e:	681b      	ldr	r3, [r3, #0]
20001980:	681b      	ldr	r3, [r3, #0]
20001982:	617b      	str	r3, [r7, #20]
20001984:	697a      	ldr	r2, [r7, #20]
20001986:	4b38      	ldr	r3, [pc, #224]	; (20001a68 <HAL_DMA_Init+0x158>)
20001988:	4013      	ands	r3, r2
2000198a:	617b      	str	r3, [r7, #20]
2000198c:	687b      	ldr	r3, [r7, #4]
2000198e:	685a      	ldr	r2, [r3, #4]
20001990:	687b      	ldr	r3, [r7, #4]
20001992:	689b      	ldr	r3, [r3, #8]
20001994:	431a      	orrs	r2, r3
20001996:	687b      	ldr	r3, [r7, #4]
20001998:	68db      	ldr	r3, [r3, #12]
2000199a:	431a      	orrs	r2, r3
2000199c:	687b      	ldr	r3, [r7, #4]
2000199e:	691b      	ldr	r3, [r3, #16]
200019a0:	431a      	orrs	r2, r3
200019a2:	687b      	ldr	r3, [r7, #4]
200019a4:	695b      	ldr	r3, [r3, #20]
200019a6:	431a      	orrs	r2, r3
200019a8:	687b      	ldr	r3, [r7, #4]
200019aa:	699b      	ldr	r3, [r3, #24]
200019ac:	431a      	orrs	r2, r3
200019ae:	687b      	ldr	r3, [r7, #4]
200019b0:	69db      	ldr	r3, [r3, #28]
200019b2:	431a      	orrs	r2, r3
200019b4:	687b      	ldr	r3, [r7, #4]
200019b6:	6a1b      	ldr	r3, [r3, #32]
200019b8:	4313      	orrs	r3, r2
200019ba:	697a      	ldr	r2, [r7, #20]
200019bc:	4313      	orrs	r3, r2
200019be:	617b      	str	r3, [r7, #20]
200019c0:	687b      	ldr	r3, [r7, #4]
200019c2:	6a5b      	ldr	r3, [r3, #36]	; 0x24
200019c4:	2b04      	cmp	r3, #4
200019c6:	d107      	bne.n	200019d8 <HAL_DMA_Init+0xc8>
200019c8:	687b      	ldr	r3, [r7, #4]
200019ca:	6ada      	ldr	r2, [r3, #44]	; 0x2c
200019cc:	687b      	ldr	r3, [r7, #4]
200019ce:	6b1b      	ldr	r3, [r3, #48]	; 0x30
200019d0:	4313      	orrs	r3, r2
200019d2:	697a      	ldr	r2, [r7, #20]
200019d4:	4313      	orrs	r3, r2
200019d6:	617b      	str	r3, [r7, #20]
200019d8:	687b      	ldr	r3, [r7, #4]
200019da:	681b      	ldr	r3, [r3, #0]
200019dc:	697a      	ldr	r2, [r7, #20]
200019de:	601a      	str	r2, [r3, #0]
200019e0:	687b      	ldr	r3, [r7, #4]
200019e2:	681b      	ldr	r3, [r3, #0]
200019e4:	695b      	ldr	r3, [r3, #20]
200019e6:	617b      	str	r3, [r7, #20]
200019e8:	697b      	ldr	r3, [r7, #20]
200019ea:	f023 0307 	bic.w	r3, r3, #7
200019ee:	617b      	str	r3, [r7, #20]
200019f0:	687b      	ldr	r3, [r7, #4]
200019f2:	6a5b      	ldr	r3, [r3, #36]	; 0x24
200019f4:	697a      	ldr	r2, [r7, #20]
200019f6:	4313      	orrs	r3, r2
200019f8:	617b      	str	r3, [r7, #20]
200019fa:	687b      	ldr	r3, [r7, #4]
200019fc:	6a5b      	ldr	r3, [r3, #36]	; 0x24
200019fe:	2b04      	cmp	r3, #4
20001a00:	d117      	bne.n	20001a32 <HAL_DMA_Init+0x122>
20001a02:	687b      	ldr	r3, [r7, #4]
20001a04:	6a9b      	ldr	r3, [r3, #40]	; 0x28
20001a06:	697a      	ldr	r2, [r7, #20]
20001a08:	4313      	orrs	r3, r2
20001a0a:	617b      	str	r3, [r7, #20]
20001a0c:	687b      	ldr	r3, [r7, #4]
20001a0e:	6adb      	ldr	r3, [r3, #44]	; 0x2c
20001a10:	2b00      	cmp	r3, #0
20001a12:	d00e      	beq.n	20001a32 <HAL_DMA_Init+0x122>
20001a14:	6878      	ldr	r0, [r7, #4]
20001a16:	f000 fd49 	bl	200024ac <DMA_CheckFifoParam>
20001a1a:	4603      	mov	r3, r0
20001a1c:	2b00      	cmp	r3, #0
20001a1e:	d008      	beq.n	20001a32 <HAL_DMA_Init+0x122>
20001a20:	687b      	ldr	r3, [r7, #4]
20001a22:	2240      	movs	r2, #64	; 0x40
20001a24:	655a      	str	r2, [r3, #84]	; 0x54
20001a26:	687b      	ldr	r3, [r7, #4]
20001a28:	2201      	movs	r2, #1
20001a2a:	f883 2035 	strb.w	r2, [r3, #53]	; 0x35
20001a2e:	2301      	movs	r3, #1
20001a30:	e016      	b.n	20001a60 <HAL_DMA_Init+0x150>
20001a32:	687b      	ldr	r3, [r7, #4]
20001a34:	681b      	ldr	r3, [r3, #0]
20001a36:	697a      	ldr	r2, [r7, #20]
20001a38:	615a      	str	r2, [r3, #20]
20001a3a:	6878      	ldr	r0, [r7, #4]
20001a3c:	f000 fd01 	bl	20002442 <DMA_CalcBaseAndBitshift>
20001a40:	4603      	mov	r3, r0
20001a42:	60fb      	str	r3, [r7, #12]
20001a44:	687b      	ldr	r3, [r7, #4]
20001a46:	6ddb      	ldr	r3, [r3, #92]	; 0x5c
20001a48:	223f      	movs	r2, #63	; 0x3f
20001a4a:	409a      	lsls	r2, r3
20001a4c:	68fb      	ldr	r3, [r7, #12]
20001a4e:	609a      	str	r2, [r3, #8]
20001a50:	687b      	ldr	r3, [r7, #4]
20001a52:	2200      	movs	r2, #0
20001a54:	655a      	str	r2, [r3, #84]	; 0x54
20001a56:	687b      	ldr	r3, [r7, #4]
20001a58:	2201      	movs	r2, #1
20001a5a:	f883 2035 	strb.w	r2, [r3, #53]	; 0x35
20001a5e:	2300      	movs	r3, #0
20001a60:	4618      	mov	r0, r3
20001a62:	3718      	adds	r7, #24
20001a64:	46bd      	mov	sp, r7
20001a66:	bd80      	pop	{r7, pc}
20001a68:	f010803f 	.word	0xf010803f

20001a6c <HAL_DMA_DeInit>:
20001a6c:	b580      	push	{r7, lr}
20001a6e:	b084      	sub	sp, #16
20001a70:	af00      	add	r7, sp, #0
20001a72:	6078      	str	r0, [r7, #4]
20001a74:	687b      	ldr	r3, [r7, #4]
20001a76:	2b00      	cmp	r3, #0
20001a78:	d101      	bne.n	20001a7e <HAL_DMA_DeInit+0x12>
20001a7a:	2301      	movs	r3, #1
20001a7c:	e050      	b.n	20001b20 <HAL_DMA_DeInit+0xb4>
20001a7e:	687b      	ldr	r3, [r7, #4]
20001a80:	f893 3035 	ldrb.w	r3, [r3, #53]	; 0x35
20001a84:	b2db      	uxtb	r3, r3
20001a86:	2b02      	cmp	r3, #2
20001a88:	d101      	bne.n	20001a8e <HAL_DMA_DeInit+0x22>
20001a8a:	2302      	movs	r3, #2
20001a8c:	e048      	b.n	20001b20 <HAL_DMA_DeInit+0xb4>
20001a8e:	687b      	ldr	r3, [r7, #4]
20001a90:	681b      	ldr	r3, [r3, #0]
20001a92:	681a      	ldr	r2, [r3, #0]
20001a94:	687b      	ldr	r3, [r7, #4]
20001a96:	681b      	ldr	r3, [r3, #0]
20001a98:	f022 0201 	bic.w	r2, r2, #1
20001a9c:	601a      	str	r2, [r3, #0]
20001a9e:	687b      	ldr	r3, [r7, #4]
20001aa0:	681b      	ldr	r3, [r3, #0]
20001aa2:	2200      	movs	r2, #0
20001aa4:	601a      	str	r2, [r3, #0]
20001aa6:	687b      	ldr	r3, [r7, #4]
20001aa8:	681b      	ldr	r3, [r3, #0]
20001aaa:	2200      	movs	r2, #0
20001aac:	605a      	str	r2, [r3, #4]
20001aae:	687b      	ldr	r3, [r7, #4]
20001ab0:	681b      	ldr	r3, [r3, #0]
20001ab2:	2200      	movs	r2, #0
20001ab4:	609a      	str	r2, [r3, #8]
20001ab6:	687b      	ldr	r3, [r7, #4]
20001ab8:	681b      	ldr	r3, [r3, #0]
20001aba:	2200      	movs	r2, #0
20001abc:	60da      	str	r2, [r3, #12]
20001abe:	687b      	ldr	r3, [r7, #4]
20001ac0:	681b      	ldr	r3, [r3, #0]
20001ac2:	2200      	movs	r2, #0
20001ac4:	611a      	str	r2, [r3, #16]
20001ac6:	687b      	ldr	r3, [r7, #4]
20001ac8:	681b      	ldr	r3, [r3, #0]
20001aca:	2221      	movs	r2, #33	; 0x21
20001acc:	615a      	str	r2, [r3, #20]
20001ace:	6878      	ldr	r0, [r7, #4]
20001ad0:	f000 fcb7 	bl	20002442 <DMA_CalcBaseAndBitshift>
20001ad4:	4603      	mov	r3, r0
20001ad6:	60fb      	str	r3, [r7, #12]
20001ad8:	687b      	ldr	r3, [r7, #4]
20001ada:	2200      	movs	r2, #0
20001adc:	63da      	str	r2, [r3, #60]	; 0x3c
20001ade:	687b      	ldr	r3, [r7, #4]
20001ae0:	2200      	movs	r2, #0
20001ae2:	641a      	str	r2, [r3, #64]	; 0x40
20001ae4:	687b      	ldr	r3, [r7, #4]
20001ae6:	2200      	movs	r2, #0
20001ae8:	645a      	str	r2, [r3, #68]	; 0x44
20001aea:	687b      	ldr	r3, [r7, #4]
20001aec:	2200      	movs	r2, #0
20001aee:	649a      	str	r2, [r3, #72]	; 0x48
20001af0:	687b      	ldr	r3, [r7, #4]
20001af2:	2200      	movs	r2, #0
20001af4:	64da      	str	r2, [r3, #76]	; 0x4c
20001af6:	687b      	ldr	r3, [r7, #4]
20001af8:	2200      	movs	r2, #0
20001afa:	651a      	str	r2, [r3, #80]	; 0x50
20001afc:	687b      	ldr	r3, [r7, #4]
20001afe:	6ddb      	ldr	r3, [r3, #92]	; 0x5c
20001b00:	223f      	movs	r2, #63	; 0x3f
20001b02:	409a      	lsls	r2, r3
20001b04:	68fb      	ldr	r3, [r7, #12]
20001b06:	609a      	str	r2, [r3, #8]
20001b08:	687b      	ldr	r3, [r7, #4]
20001b0a:	2200      	movs	r2, #0
20001b0c:	655a      	str	r2, [r3, #84]	; 0x54
20001b0e:	687b      	ldr	r3, [r7, #4]
20001b10:	2200      	movs	r2, #0
20001b12:	f883 2035 	strb.w	r2, [r3, #53]	; 0x35
20001b16:	687b      	ldr	r3, [r7, #4]
20001b18:	2200      	movs	r2, #0
20001b1a:	f883 2034 	strb.w	r2, [r3, #52]	; 0x34
20001b1e:	2300      	movs	r3, #0
20001b20:	4618      	mov	r0, r3
20001b22:	3710      	adds	r7, #16
20001b24:	46bd      	mov	sp, r7
20001b26:	bd80      	pop	{r7, pc}

20001b28 <HAL_DMA_Start>:
20001b28:	b580      	push	{r7, lr}
20001b2a:	b086      	sub	sp, #24
20001b2c:	af00      	add	r7, sp, #0
20001b2e:	60f8      	str	r0, [r7, #12]
20001b30:	60b9      	str	r1, [r7, #8]
20001b32:	607a      	str	r2, [r7, #4]
20001b34:	603b      	str	r3, [r7, #0]
20001b36:	2300      	movs	r3, #0
20001b38:	75fb      	strb	r3, [r7, #23]
20001b3a:	68fb      	ldr	r3, [r7, #12]
20001b3c:	f893 3034 	ldrb.w	r3, [r3, #52]	; 0x34
20001b40:	2b01      	cmp	r3, #1
20001b42:	d101      	bne.n	20001b48 <HAL_DMA_Start+0x20>
20001b44:	2302      	movs	r3, #2
20001b46:	e026      	b.n	20001b96 <HAL_DMA_Start+0x6e>
20001b48:	68fb      	ldr	r3, [r7, #12]
20001b4a:	2201      	movs	r2, #1
20001b4c:	f883 2034 	strb.w	r2, [r3, #52]	; 0x34
20001b50:	68fb      	ldr	r3, [r7, #12]
20001b52:	f893 3035 	ldrb.w	r3, [r3, #53]	; 0x35
20001b56:	b2db      	uxtb	r3, r3
20001b58:	2b01      	cmp	r3, #1
20001b5a:	d115      	bne.n	20001b88 <HAL_DMA_Start+0x60>
20001b5c:	68fb      	ldr	r3, [r7, #12]
20001b5e:	2202      	movs	r2, #2
20001b60:	f883 2035 	strb.w	r2, [r3, #53]	; 0x35
20001b64:	68fb      	ldr	r3, [r7, #12]
20001b66:	2200      	movs	r2, #0
20001b68:	655a      	str	r2, [r3, #84]	; 0x54
20001b6a:	683b      	ldr	r3, [r7, #0]
20001b6c:	687a      	ldr	r2, [r7, #4]
20001b6e:	68b9      	ldr	r1, [r7, #8]
20001b70:	68f8      	ldr	r0, [r7, #12]
20001b72:	f000 fc39 	bl	200023e8 <DMA_SetConfig>
20001b76:	68fb      	ldr	r3, [r7, #12]
20001b78:	681b      	ldr	r3, [r3, #0]
20001b7a:	681a      	ldr	r2, [r3, #0]
20001b7c:	68fb      	ldr	r3, [r7, #12]
20001b7e:	681b      	ldr	r3, [r3, #0]
20001b80:	f042 0201 	orr.w	r2, r2, #1
20001b84:	601a      	str	r2, [r3, #0]
20001b86:	e005      	b.n	20001b94 <HAL_DMA_Start+0x6c>
20001b88:	68fb      	ldr	r3, [r7, #12]
20001b8a:	2200      	movs	r2, #0
20001b8c:	f883 2034 	strb.w	r2, [r3, #52]	; 0x34
20001b90:	2302      	movs	r3, #2
20001b92:	75fb      	strb	r3, [r7, #23]
20001b94:	7dfb      	ldrb	r3, [r7, #23]
20001b96:	4618      	mov	r0, r3
20001b98:	3718      	adds	r7, #24
20001b9a:	46bd      	mov	sp, r7
20001b9c:	bd80      	pop	{r7, pc}

20001b9e <HAL_DMA_Start_IT>:
20001b9e:	b580      	push	{r7, lr}
20001ba0:	b086      	sub	sp, #24
20001ba2:	af00      	add	r7, sp, #0
20001ba4:	60f8      	str	r0, [r7, #12]
20001ba6:	60b9      	str	r1, [r7, #8]
20001ba8:	607a      	str	r2, [r7, #4]
20001baa:	603b      	str	r3, [r7, #0]
20001bac:	2300      	movs	r3, #0
20001bae:	75fb      	strb	r3, [r7, #23]
20001bb0:	68fb      	ldr	r3, [r7, #12]
20001bb2:	6d9b      	ldr	r3, [r3, #88]	; 0x58
20001bb4:	613b      	str	r3, [r7, #16]
20001bb6:	68fb      	ldr	r3, [r7, #12]
20001bb8:	f893 3034 	ldrb.w	r3, [r3, #52]	; 0x34
20001bbc:	2b01      	cmp	r3, #1
20001bbe:	d101      	bne.n	20001bc4 <HAL_DMA_Start_IT+0x26>
20001bc0:	2302      	movs	r3, #2
20001bc2:	e040      	b.n	20001c46 <HAL_DMA_Start_IT+0xa8>
20001bc4:	68fb      	ldr	r3, [r7, #12]
20001bc6:	2201      	movs	r2, #1
20001bc8:	f883 2034 	strb.w	r2, [r3, #52]	; 0x34
20001bcc:	68fb      	ldr	r3, [r7, #12]
20001bce:	f893 3035 	ldrb.w	r3, [r3, #53]	; 0x35
20001bd2:	b2db      	uxtb	r3, r3
20001bd4:	2b01      	cmp	r3, #1
20001bd6:	d12f      	bne.n	20001c38 <HAL_DMA_Start_IT+0x9a>
20001bd8:	68fb      	ldr	r3, [r7, #12]
20001bda:	2202      	movs	r2, #2
20001bdc:	f883 2035 	strb.w	r2, [r3, #53]	; 0x35
20001be0:	68fb      	ldr	r3, [r7, #12]
20001be2:	2200      	movs	r2, #0
20001be4:	655a      	str	r2, [r3, #84]	; 0x54
20001be6:	683b      	ldr	r3, [r7, #0]
20001be8:	687a      	ldr	r2, [r7, #4]
20001bea:	68b9      	ldr	r1, [r7, #8]
20001bec:	68f8      	ldr	r0, [r7, #12]
20001bee:	f000 fbfb 	bl	200023e8 <DMA_SetConfig>
20001bf2:	68fb      	ldr	r3, [r7, #12]
20001bf4:	6ddb      	ldr	r3, [r3, #92]	; 0x5c
20001bf6:	223f      	movs	r2, #63	; 0x3f
20001bf8:	409a      	lsls	r2, r3
20001bfa:	693b      	ldr	r3, [r7, #16]
20001bfc:	609a      	str	r2, [r3, #8]
20001bfe:	68fb      	ldr	r3, [r7, #12]
20001c00:	681b      	ldr	r3, [r3, #0]
20001c02:	681a      	ldr	r2, [r3, #0]
20001c04:	68fb      	ldr	r3, [r7, #12]
20001c06:	681b      	ldr	r3, [r3, #0]
20001c08:	f042 0216 	orr.w	r2, r2, #22
20001c0c:	601a      	str	r2, [r3, #0]
20001c0e:	68fb      	ldr	r3, [r7, #12]
20001c10:	6c1b      	ldr	r3, [r3, #64]	; 0x40
20001c12:	2b00      	cmp	r3, #0
20001c14:	d007      	beq.n	20001c26 <HAL_DMA_Start_IT+0x88>
20001c16:	68fb      	ldr	r3, [r7, #12]
20001c18:	681b      	ldr	r3, [r3, #0]
20001c1a:	681a      	ldr	r2, [r3, #0]
20001c1c:	68fb      	ldr	r3, [r7, #12]
20001c1e:	681b      	ldr	r3, [r3, #0]
20001c20:	f042 0208 	orr.w	r2, r2, #8
20001c24:	601a      	str	r2, [r3, #0]
20001c26:	68fb      	ldr	r3, [r7, #12]
20001c28:	681b      	ldr	r3, [r3, #0]
20001c2a:	681a      	ldr	r2, [r3, #0]
20001c2c:	68fb      	ldr	r3, [r7, #12]
20001c2e:	681b      	ldr	r3, [r3, #0]
20001c30:	f042 0201 	orr.w	r2, r2, #1
20001c34:	601a      	str	r2, [r3, #0]
20001c36:	e005      	b.n	20001c44 <HAL_DMA_Start_IT+0xa6>
20001c38:	68fb      	ldr	r3, [r7, #12]
20001c3a:	2200      	movs	r2, #0
20001c3c:	f883 2034 	strb.w	r2, [r3, #52]	; 0x34
20001c40:	2302      	movs	r3, #2
20001c42:	75fb      	strb	r3, [r7, #23]
20001c44:	7dfb      	ldrb	r3, [r7, #23]
20001c46:	4618      	mov	r0, r3
20001c48:	3718      	adds	r7, #24
20001c4a:	46bd      	mov	sp, r7
20001c4c:	bd80      	pop	{r7, pc}

20001c4e <HAL_DMA_Abort>:
20001c4e:	b580      	push	{r7, lr}
20001c50:	b084      	sub	sp, #16
20001c52:	af00      	add	r7, sp, #0
20001c54:	6078      	str	r0, [r7, #4]
20001c56:	687b      	ldr	r3, [r7, #4]
20001c58:	6d9b      	ldr	r3, [r3, #88]	; 0x58
20001c5a:	60fb      	str	r3, [r7, #12]
20001c5c:	f7ff f9fe 	bl	2000105c <HAL_GetTick>
20001c60:	60b8      	str	r0, [r7, #8]
20001c62:	687b      	ldr	r3, [r7, #4]
20001c64:	f893 3035 	ldrb.w	r3, [r3, #53]	; 0x35
20001c68:	b2db      	uxtb	r3, r3
20001c6a:	2b02      	cmp	r3, #2
20001c6c:	d008      	beq.n	20001c80 <HAL_DMA_Abort+0x32>
20001c6e:	687b      	ldr	r3, [r7, #4]
20001c70:	2280      	movs	r2, #128	; 0x80
20001c72:	655a      	str	r2, [r3, #84]	; 0x54
20001c74:	687b      	ldr	r3, [r7, #4]
20001c76:	2200      	movs	r2, #0
20001c78:	f883 2034 	strb.w	r2, [r3, #52]	; 0x34
20001c7c:	2301      	movs	r3, #1
20001c7e:	e052      	b.n	20001d26 <HAL_DMA_Abort+0xd8>
20001c80:	687b      	ldr	r3, [r7, #4]
20001c82:	681b      	ldr	r3, [r3, #0]
20001c84:	681a      	ldr	r2, [r3, #0]
20001c86:	687b      	ldr	r3, [r7, #4]
20001c88:	681b      	ldr	r3, [r3, #0]
20001c8a:	f022 0216 	bic.w	r2, r2, #22
20001c8e:	601a      	str	r2, [r3, #0]
20001c90:	687b      	ldr	r3, [r7, #4]
20001c92:	681b      	ldr	r3, [r3, #0]
20001c94:	695a      	ldr	r2, [r3, #20]
20001c96:	687b      	ldr	r3, [r7, #4]
20001c98:	681b      	ldr	r3, [r3, #0]
20001c9a:	f022 0280 	bic.w	r2, r2, #128	; 0x80
20001c9e:	615a      	str	r2, [r3, #20]
20001ca0:	687b      	ldr	r3, [r7, #4]
20001ca2:	6c1b      	ldr	r3, [r3, #64]	; 0x40
20001ca4:	2b00      	cmp	r3, #0
20001ca6:	d103      	bne.n	20001cb0 <HAL_DMA_Abort+0x62>
20001ca8:	687b      	ldr	r3, [r7, #4]
20001caa:	6c9b      	ldr	r3, [r3, #72]	; 0x48
20001cac:	2b00      	cmp	r3, #0
20001cae:	d007      	beq.n	20001cc0 <HAL_DMA_Abort+0x72>
20001cb0:	687b      	ldr	r3, [r7, #4]
20001cb2:	681b      	ldr	r3, [r3, #0]
20001cb4:	681a      	ldr	r2, [r3, #0]
20001cb6:	687b      	ldr	r3, [r7, #4]
20001cb8:	681b      	ldr	r3, [r3, #0]
20001cba:	f022 0208 	bic.w	r2, r2, #8
20001cbe:	601a      	str	r2, [r3, #0]
20001cc0:	687b      	ldr	r3, [r7, #4]
20001cc2:	681b      	ldr	r3, [r3, #0]
20001cc4:	681a      	ldr	r2, [r3, #0]
20001cc6:	687b      	ldr	r3, [r7, #4]
20001cc8:	681b      	ldr	r3, [r3, #0]
20001cca:	f022 0201 	bic.w	r2, r2, #1
20001cce:	601a      	str	r2, [r3, #0]
20001cd0:	e013      	b.n	20001cfa <HAL_DMA_Abort+0xac>
20001cd2:	f7ff f9c3 	bl	2000105c <HAL_GetTick>
20001cd6:	4602      	mov	r2, r0
20001cd8:	68bb      	ldr	r3, [r7, #8]
20001cda:	1ad3      	subs	r3, r2, r3
20001cdc:	2b05      	cmp	r3, #5
20001cde:	d90c      	bls.n	20001cfa <HAL_DMA_Abort+0xac>
20001ce0:	687b      	ldr	r3, [r7, #4]
20001ce2:	2220      	movs	r2, #32
20001ce4:	655a      	str	r2, [r3, #84]	; 0x54
20001ce6:	687b      	ldr	r3, [r7, #4]
20001ce8:	2200      	movs	r2, #0
20001cea:	f883 2034 	strb.w	r2, [r3, #52]	; 0x34
20001cee:	687b      	ldr	r3, [r7, #4]
20001cf0:	2203      	movs	r2, #3
20001cf2:	f883 2035 	strb.w	r2, [r3, #53]	; 0x35
20001cf6:	2303      	movs	r3, #3
20001cf8:	e015      	b.n	20001d26 <HAL_DMA_Abort+0xd8>
20001cfa:	687b      	ldr	r3, [r7, #4]
20001cfc:	681b      	ldr	r3, [r3, #0]
20001cfe:	681b      	ldr	r3, [r3, #0]
20001d00:	f003 0301 	and.w	r3, r3, #1
20001d04:	2b00      	cmp	r3, #0
20001d06:	d1e4      	bne.n	20001cd2 <HAL_DMA_Abort+0x84>
20001d08:	687b      	ldr	r3, [r7, #4]
20001d0a:	6ddb      	ldr	r3, [r3, #92]	; 0x5c
20001d0c:	223f      	movs	r2, #63	; 0x3f
20001d0e:	409a      	lsls	r2, r3
20001d10:	68fb      	ldr	r3, [r7, #12]
20001d12:	609a      	str	r2, [r3, #8]
20001d14:	687b      	ldr	r3, [r7, #4]
20001d16:	2200      	movs	r2, #0
20001d18:	f883 2034 	strb.w	r2, [r3, #52]	; 0x34
20001d1c:	687b      	ldr	r3, [r7, #4]
20001d1e:	2201      	movs	r2, #1
20001d20:	f883 2035 	strb.w	r2, [r3, #53]	; 0x35
20001d24:	2300      	movs	r3, #0
20001d26:	4618      	mov	r0, r3
20001d28:	3710      	adds	r7, #16
20001d2a:	46bd      	mov	sp, r7
20001d2c:	bd80      	pop	{r7, pc}

20001d2e <HAL_DMA_Abort_IT>:
20001d2e:	b480      	push	{r7}
20001d30:	b083      	sub	sp, #12
20001d32:	af00      	add	r7, sp, #0
20001d34:	6078      	str	r0, [r7, #4]
20001d36:	687b      	ldr	r3, [r7, #4]
20001d38:	f893 3035 	ldrb.w	r3, [r3, #53]	; 0x35
20001d3c:	b2db      	uxtb	r3, r3
20001d3e:	2b02      	cmp	r3, #2
20001d40:	d004      	beq.n	20001d4c <HAL_DMA_Abort_IT+0x1e>
20001d42:	687b      	ldr	r3, [r7, #4]
20001d44:	2280      	movs	r2, #128	; 0x80
20001d46:	655a      	str	r2, [r3, #84]	; 0x54
20001d48:	2301      	movs	r3, #1
20001d4a:	e00c      	b.n	20001d66 <HAL_DMA_Abort_IT+0x38>
20001d4c:	687b      	ldr	r3, [r7, #4]
20001d4e:	2205      	movs	r2, #5
20001d50:	f883 2035 	strb.w	r2, [r3, #53]	; 0x35
20001d54:	687b      	ldr	r3, [r7, #4]
20001d56:	681b      	ldr	r3, [r3, #0]
20001d58:	681a      	ldr	r2, [r3, #0]
20001d5a:	687b      	ldr	r3, [r7, #4]
20001d5c:	681b      	ldr	r3, [r3, #0]
20001d5e:	f022 0201 	bic.w	r2, r2, #1
20001d62:	601a      	str	r2, [r3, #0]
20001d64:	2300      	movs	r3, #0
20001d66:	4618      	mov	r0, r3
20001d68:	370c      	adds	r7, #12
20001d6a:	46bd      	mov	sp, r7
20001d6c:	bc80      	pop	{r7}
20001d6e:	4770      	bx	lr

20001d70 <HAL_DMA_PollForTransfer>:
20001d70:	b580      	push	{r7, lr}
20001d72:	b08a      	sub	sp, #40	; 0x28
20001d74:	af00      	add	r7, sp, #0
20001d76:	60f8      	str	r0, [r7, #12]
20001d78:	460b      	mov	r3, r1
20001d7a:	607a      	str	r2, [r7, #4]
20001d7c:	72fb      	strb	r3, [r7, #11]
20001d7e:	2300      	movs	r3, #0
20001d80:	77fb      	strb	r3, [r7, #31]
20001d82:	f7ff f96b 	bl	2000105c <HAL_GetTick>
20001d86:	61b8      	str	r0, [r7, #24]
20001d88:	68fb      	ldr	r3, [r7, #12]
20001d8a:	f893 3035 	ldrb.w	r3, [r3, #53]	; 0x35
20001d8e:	b2db      	uxtb	r3, r3
20001d90:	2b02      	cmp	r3, #2
20001d92:	d008      	beq.n	20001da6 <HAL_DMA_PollForTransfer+0x36>
20001d94:	68fb      	ldr	r3, [r7, #12]
20001d96:	2280      	movs	r2, #128	; 0x80
20001d98:	655a      	str	r2, [r3, #84]	; 0x54
20001d9a:	68fb      	ldr	r3, [r7, #12]
20001d9c:	2200      	movs	r2, #0
20001d9e:	f883 2034 	strb.w	r2, [r3, #52]	; 0x34
20001da2:	2301      	movs	r3, #1
20001da4:	e0bf      	b.n	20001f26 <HAL_DMA_PollForTransfer+0x1b6>
20001da6:	68fb      	ldr	r3, [r7, #12]
20001da8:	681b      	ldr	r3, [r3, #0]
20001daa:	681b      	ldr	r3, [r3, #0]
20001dac:	f403 7380 	and.w	r3, r3, #256	; 0x100
20001db0:	2b00      	cmp	r3, #0
20001db2:	d005      	beq.n	20001dc0 <HAL_DMA_PollForTransfer+0x50>
20001db4:	68fb      	ldr	r3, [r7, #12]
20001db6:	f44f 7280 	mov.w	r2, #256	; 0x100
20001dba:	655a      	str	r2, [r3, #84]	; 0x54
20001dbc:	2301      	movs	r3, #1
20001dbe:	e0b2      	b.n	20001f26 <HAL_DMA_PollForTransfer+0x1b6>
20001dc0:	7afb      	ldrb	r3, [r7, #11]
20001dc2:	2b00      	cmp	r3, #0
20001dc4:	d106      	bne.n	20001dd4 <HAL_DMA_PollForTransfer+0x64>
20001dc6:	68fb      	ldr	r3, [r7, #12]
20001dc8:	6ddb      	ldr	r3, [r3, #92]	; 0x5c
20001dca:	2220      	movs	r2, #32
20001dcc:	fa02 f303 	lsl.w	r3, r2, r3
20001dd0:	627b      	str	r3, [r7, #36]	; 0x24
20001dd2:	e005      	b.n	20001de0 <HAL_DMA_PollForTransfer+0x70>
20001dd4:	68fb      	ldr	r3, [r7, #12]
20001dd6:	6ddb      	ldr	r3, [r3, #92]	; 0x5c
20001dd8:	2210      	movs	r2, #16
20001dda:	fa02 f303 	lsl.w	r3, r2, r3
20001dde:	627b      	str	r3, [r7, #36]	; 0x24
20001de0:	68fb      	ldr	r3, [r7, #12]
20001de2:	6d9b      	ldr	r3, [r3, #88]	; 0x58
20001de4:	617b      	str	r3, [r7, #20]
20001de6:	697b      	ldr	r3, [r7, #20]
20001de8:	681b      	ldr	r3, [r3, #0]
20001dea:	623b      	str	r3, [r7, #32]
20001dec:	e05a      	b.n	20001ea4 <HAL_DMA_PollForTransfer+0x134>
20001dee:	687b      	ldr	r3, [r7, #4]
20001df0:	f1b3 3fff 	cmp.w	r3, #4294967295
20001df4:	d017      	beq.n	20001e26 <HAL_DMA_PollForTransfer+0xb6>
20001df6:	687b      	ldr	r3, [r7, #4]
20001df8:	2b00      	cmp	r3, #0
20001dfa:	d007      	beq.n	20001e0c <HAL_DMA_PollForTransfer+0x9c>
20001dfc:	f7ff f92e 	bl	2000105c <HAL_GetTick>
20001e00:	4602      	mov	r2, r0
20001e02:	69bb      	ldr	r3, [r7, #24]
20001e04:	1ad3      	subs	r3, r2, r3
20001e06:	687a      	ldr	r2, [r7, #4]
20001e08:	429a      	cmp	r2, r3
20001e0a:	d20c      	bcs.n	20001e26 <HAL_DMA_PollForTransfer+0xb6>
20001e0c:	68fb      	ldr	r3, [r7, #12]
20001e0e:	2220      	movs	r2, #32
20001e10:	655a      	str	r2, [r3, #84]	; 0x54
20001e12:	68fb      	ldr	r3, [r7, #12]
20001e14:	2200      	movs	r2, #0
20001e16:	f883 2034 	strb.w	r2, [r3, #52]	; 0x34
20001e1a:	68fb      	ldr	r3, [r7, #12]
20001e1c:	2201      	movs	r2, #1
20001e1e:	f883 2035 	strb.w	r2, [r3, #53]	; 0x35
20001e22:	2303      	movs	r3, #3
20001e24:	e07f      	b.n	20001f26 <HAL_DMA_PollForTransfer+0x1b6>
20001e26:	697b      	ldr	r3, [r7, #20]
20001e28:	681b      	ldr	r3, [r3, #0]
20001e2a:	623b      	str	r3, [r7, #32]
20001e2c:	68fb      	ldr	r3, [r7, #12]
20001e2e:	6ddb      	ldr	r3, [r3, #92]	; 0x5c
20001e30:	2208      	movs	r2, #8
20001e32:	409a      	lsls	r2, r3
20001e34:	6a3b      	ldr	r3, [r7, #32]
20001e36:	4013      	ands	r3, r2
20001e38:	2b00      	cmp	r3, #0
20001e3a:	d00b      	beq.n	20001e54 <HAL_DMA_PollForTransfer+0xe4>
20001e3c:	68fb      	ldr	r3, [r7, #12]
20001e3e:	6d5b      	ldr	r3, [r3, #84]	; 0x54
20001e40:	f043 0201 	orr.w	r2, r3, #1
20001e44:	68fb      	ldr	r3, [r7, #12]
20001e46:	655a      	str	r2, [r3, #84]	; 0x54
20001e48:	68fb      	ldr	r3, [r7, #12]
20001e4a:	6ddb      	ldr	r3, [r3, #92]	; 0x5c
20001e4c:	2208      	movs	r2, #8
20001e4e:	409a      	lsls	r2, r3
20001e50:	697b      	ldr	r3, [r7, #20]
20001e52:	609a      	str	r2, [r3, #8]
20001e54:	68fb      	ldr	r3, [r7, #12]
20001e56:	6ddb      	ldr	r3, [r3, #92]	; 0x5c
20001e58:	2201      	movs	r2, #1
20001e5a:	409a      	lsls	r2, r3
20001e5c:	6a3b      	ldr	r3, [r7, #32]
20001e5e:	4013      	ands	r3, r2
20001e60:	2b00      	cmp	r3, #0
20001e62:	d00b      	beq.n	20001e7c <HAL_DMA_PollForTransfer+0x10c>
20001e64:	68fb      	ldr	r3, [r7, #12]
20001e66:	6d5b      	ldr	r3, [r3, #84]	; 0x54
20001e68:	f043 0202 	orr.w	r2, r3, #2
20001e6c:	68fb      	ldr	r3, [r7, #12]
20001e6e:	655a      	str	r2, [r3, #84]	; 0x54
20001e70:	68fb      	ldr	r3, [r7, #12]
20001e72:	6ddb      	ldr	r3, [r3, #92]	; 0x5c
20001e74:	2201      	movs	r2, #1
20001e76:	409a      	lsls	r2, r3
20001e78:	697b      	ldr	r3, [r7, #20]
20001e7a:	609a      	str	r2, [r3, #8]
20001e7c:	68fb      	ldr	r3, [r7, #12]
20001e7e:	6ddb      	ldr	r3, [r3, #92]	; 0x5c
20001e80:	2204      	movs	r2, #4
20001e82:	409a      	lsls	r2, r3
20001e84:	6a3b      	ldr	r3, [r7, #32]
20001e86:	4013      	ands	r3, r2
20001e88:	2b00      	cmp	r3, #0
20001e8a:	d00b      	beq.n	20001ea4 <HAL_DMA_PollForTransfer+0x134>
20001e8c:	68fb      	ldr	r3, [r7, #12]
20001e8e:	6d5b      	ldr	r3, [r3, #84]	; 0x54
20001e90:	f043 0204 	orr.w	r2, r3, #4
20001e94:	68fb      	ldr	r3, [r7, #12]
20001e96:	655a      	str	r2, [r3, #84]	; 0x54
20001e98:	68fb      	ldr	r3, [r7, #12]
20001e9a:	6ddb      	ldr	r3, [r3, #92]	; 0x5c
20001e9c:	2204      	movs	r2, #4
20001e9e:	409a      	lsls	r2, r3
20001ea0:	697b      	ldr	r3, [r7, #20]
20001ea2:	609a      	str	r2, [r3, #8]
20001ea4:	6a3a      	ldr	r2, [r7, #32]
20001ea6:	6a7b      	ldr	r3, [r7, #36]	; 0x24
20001ea8:	4013      	ands	r3, r2
20001eaa:	2b00      	cmp	r3, #0
20001eac:	d105      	bne.n	20001eba <HAL_DMA_PollForTransfer+0x14a>
20001eae:	68fb      	ldr	r3, [r7, #12]
20001eb0:	6d5b      	ldr	r3, [r3, #84]	; 0x54
20001eb2:	f003 0301 	and.w	r3, r3, #1
20001eb6:	2b00      	cmp	r3, #0
20001eb8:	d099      	beq.n	20001dee <HAL_DMA_PollForTransfer+0x7e>
20001eba:	68fb      	ldr	r3, [r7, #12]
20001ebc:	6d5b      	ldr	r3, [r3, #84]	; 0x54
20001ebe:	2b00      	cmp	r3, #0
20001ec0:	d018      	beq.n	20001ef4 <HAL_DMA_PollForTransfer+0x184>
20001ec2:	68fb      	ldr	r3, [r7, #12]
20001ec4:	6d5b      	ldr	r3, [r3, #84]	; 0x54
20001ec6:	f003 0301 	and.w	r3, r3, #1
20001eca:	2b00      	cmp	r3, #0
20001ecc:	d012      	beq.n	20001ef4 <HAL_DMA_PollForTransfer+0x184>
20001ece:	68f8      	ldr	r0, [r7, #12]
20001ed0:	f7ff febd 	bl	20001c4e <HAL_DMA_Abort>
20001ed4:	68fb      	ldr	r3, [r7, #12]
20001ed6:	6ddb      	ldr	r3, [r3, #92]	; 0x5c
20001ed8:	2230      	movs	r2, #48	; 0x30
20001eda:	409a      	lsls	r2, r3
20001edc:	697b      	ldr	r3, [r7, #20]
20001ede:	609a      	str	r2, [r3, #8]
20001ee0:	68fb      	ldr	r3, [r7, #12]
20001ee2:	2200      	movs	r2, #0
20001ee4:	f883 2034 	strb.w	r2, [r3, #52]	; 0x34
20001ee8:	68fb      	ldr	r3, [r7, #12]
20001eea:	2201      	movs	r2, #1
20001eec:	f883 2035 	strb.w	r2, [r3, #53]	; 0x35
20001ef0:	2301      	movs	r3, #1
20001ef2:	e018      	b.n	20001f26 <HAL_DMA_PollForTransfer+0x1b6>
20001ef4:	7afb      	ldrb	r3, [r7, #11]
20001ef6:	2b00      	cmp	r3, #0
20001ef8:	d10e      	bne.n	20001f18 <HAL_DMA_PollForTransfer+0x1a8>
20001efa:	68fb      	ldr	r3, [r7, #12]
20001efc:	6ddb      	ldr	r3, [r3, #92]	; 0x5c
20001efe:	2230      	movs	r2, #48	; 0x30
20001f00:	409a      	lsls	r2, r3
20001f02:	697b      	ldr	r3, [r7, #20]
20001f04:	609a      	str	r2, [r3, #8]
20001f06:	68fb      	ldr	r3, [r7, #12]
20001f08:	2200      	movs	r2, #0
20001f0a:	f883 2034 	strb.w	r2, [r3, #52]	; 0x34
20001f0e:	68fb      	ldr	r3, [r7, #12]
20001f10:	2201      	movs	r2, #1
20001f12:	f883 2035 	strb.w	r2, [r3, #53]	; 0x35
20001f16:	e005      	b.n	20001f24 <HAL_DMA_PollForTransfer+0x1b4>
20001f18:	68fb      	ldr	r3, [r7, #12]
20001f1a:	6ddb      	ldr	r3, [r3, #92]	; 0x5c
20001f1c:	2210      	movs	r2, #16
20001f1e:	409a      	lsls	r2, r3
20001f20:	697b      	ldr	r3, [r7, #20]
20001f22:	609a      	str	r2, [r3, #8]
20001f24:	7ffb      	ldrb	r3, [r7, #31]
20001f26:	4618      	mov	r0, r3
20001f28:	3728      	adds	r7, #40	; 0x28
20001f2a:	46bd      	mov	sp, r7
20001f2c:	bd80      	pop	{r7, pc}

20001f2e <HAL_DMA_IRQHandler>:
20001f2e:	b580      	push	{r7, lr}
20001f30:	b086      	sub	sp, #24
20001f32:	af00      	add	r7, sp, #0
20001f34:	6078      	str	r0, [r7, #4]
20001f36:	2300      	movs	r3, #0
20001f38:	60bb      	str	r3, [r7, #8]
20001f3a:	4b93      	ldr	r3, [pc, #588]	; (20002188 <HAL_DMA_IRQHandler+0x25a>)
20001f3c:	681b      	ldr	r3, [r3, #0]
20001f3e:	4a93      	ldr	r2, [pc, #588]	; (2000218c <HAL_DMA_IRQHandler+0x25e>)
20001f40:	fba2 2303 	umull	r2, r3, r2, r3
20001f44:	0a9b      	lsrs	r3, r3, #10
20001f46:	617b      	str	r3, [r7, #20]
20001f48:	687b      	ldr	r3, [r7, #4]
20001f4a:	6d9b      	ldr	r3, [r3, #88]	; 0x58
20001f4c:	613b      	str	r3, [r7, #16]
20001f4e:	693b      	ldr	r3, [r7, #16]
20001f50:	681b      	ldr	r3, [r3, #0]
20001f52:	60fb      	str	r3, [r7, #12]
20001f54:	687b      	ldr	r3, [r7, #4]
20001f56:	6ddb      	ldr	r3, [r3, #92]	; 0x5c
20001f58:	2208      	movs	r2, #8
20001f5a:	409a      	lsls	r2, r3
20001f5c:	68fb      	ldr	r3, [r7, #12]
20001f5e:	4013      	ands	r3, r2
20001f60:	2b00      	cmp	r3, #0
20001f62:	d01a      	beq.n	20001f9a <HAL_DMA_IRQHandler+0x6c>
20001f64:	687b      	ldr	r3, [r7, #4]
20001f66:	681b      	ldr	r3, [r3, #0]
20001f68:	681b      	ldr	r3, [r3, #0]
20001f6a:	f003 0304 	and.w	r3, r3, #4
20001f6e:	2b00      	cmp	r3, #0
20001f70:	d013      	beq.n	20001f9a <HAL_DMA_IRQHandler+0x6c>
20001f72:	687b      	ldr	r3, [r7, #4]
20001f74:	681b      	ldr	r3, [r3, #0]
20001f76:	681a      	ldr	r2, [r3, #0]
20001f78:	687b      	ldr	r3, [r7, #4]
20001f7a:	681b      	ldr	r3, [r3, #0]
20001f7c:	f022 0204 	bic.w	r2, r2, #4
20001f80:	601a      	str	r2, [r3, #0]
20001f82:	687b      	ldr	r3, [r7, #4]
20001f84:	6ddb      	ldr	r3, [r3, #92]	; 0x5c
20001f86:	2208      	movs	r2, #8
20001f88:	409a      	lsls	r2, r3
20001f8a:	693b      	ldr	r3, [r7, #16]
20001f8c:	609a      	str	r2, [r3, #8]
20001f8e:	687b      	ldr	r3, [r7, #4]
20001f90:	6d5b      	ldr	r3, [r3, #84]	; 0x54
20001f92:	f043 0201 	orr.w	r2, r3, #1
20001f96:	687b      	ldr	r3, [r7, #4]
20001f98:	655a      	str	r2, [r3, #84]	; 0x54
20001f9a:	687b      	ldr	r3, [r7, #4]
20001f9c:	6ddb      	ldr	r3, [r3, #92]	; 0x5c
20001f9e:	2201      	movs	r2, #1
20001fa0:	409a      	lsls	r2, r3
20001fa2:	68fb      	ldr	r3, [r7, #12]
20001fa4:	4013      	ands	r3, r2
20001fa6:	2b00      	cmp	r3, #0
20001fa8:	d012      	beq.n	20001fd0 <HAL_DMA_IRQHandler+0xa2>
20001faa:	687b      	ldr	r3, [r7, #4]
20001fac:	681b      	ldr	r3, [r3, #0]
20001fae:	695b      	ldr	r3, [r3, #20]
20001fb0:	f003 0380 	and.w	r3, r3, #128	; 0x80
20001fb4:	2b00      	cmp	r3, #0
20001fb6:	d00b      	beq.n	20001fd0 <HAL_DMA_IRQHandler+0xa2>
20001fb8:	687b      	ldr	r3, [r7, #4]
20001fba:	6ddb      	ldr	r3, [r3, #92]	; 0x5c
20001fbc:	2201      	movs	r2, #1
20001fbe:	409a      	lsls	r2, r3
20001fc0:	693b      	ldr	r3, [r7, #16]
20001fc2:	609a      	str	r2, [r3, #8]
20001fc4:	687b      	ldr	r3, [r7, #4]
20001fc6:	6d5b      	ldr	r3, [r3, #84]	; 0x54
20001fc8:	f043 0202 	orr.w	r2, r3, #2
20001fcc:	687b      	ldr	r3, [r7, #4]
20001fce:	655a      	str	r2, [r3, #84]	; 0x54
20001fd0:	687b      	ldr	r3, [r7, #4]
20001fd2:	6ddb      	ldr	r3, [r3, #92]	; 0x5c
20001fd4:	2204      	movs	r2, #4
20001fd6:	409a      	lsls	r2, r3
20001fd8:	68fb      	ldr	r3, [r7, #12]
20001fda:	4013      	ands	r3, r2
20001fdc:	2b00      	cmp	r3, #0
20001fde:	d012      	beq.n	20002006 <HAL_DMA_IRQHandler+0xd8>
20001fe0:	687b      	ldr	r3, [r7, #4]
20001fe2:	681b      	ldr	r3, [r3, #0]
20001fe4:	681b      	ldr	r3, [r3, #0]
20001fe6:	f003 0302 	and.w	r3, r3, #2
20001fea:	2b00      	cmp	r3, #0
20001fec:	d00b      	beq.n	20002006 <HAL_DMA_IRQHandler+0xd8>
20001fee:	687b      	ldr	r3, [r7, #4]
20001ff0:	6ddb      	ldr	r3, [r3, #92]	; 0x5c
20001ff2:	2204      	movs	r2, #4
20001ff4:	409a      	lsls	r2, r3
20001ff6:	693b      	ldr	r3, [r7, #16]
20001ff8:	609a      	str	r2, [r3, #8]
20001ffa:	687b      	ldr	r3, [r7, #4]
20001ffc:	6d5b      	ldr	r3, [r3, #84]	; 0x54
20001ffe:	f043 0204 	orr.w	r2, r3, #4
20002002:	687b      	ldr	r3, [r7, #4]
20002004:	655a      	str	r2, [r3, #84]	; 0x54
20002006:	687b      	ldr	r3, [r7, #4]
20002008:	6ddb      	ldr	r3, [r3, #92]	; 0x5c
2000200a:	2210      	movs	r2, #16
2000200c:	409a      	lsls	r2, r3
2000200e:	68fb      	ldr	r3, [r7, #12]
20002010:	4013      	ands	r3, r2
20002012:	2b00      	cmp	r3, #0
20002014:	d043      	beq.n	2000209e <HAL_DMA_IRQHandler+0x170>
20002016:	687b      	ldr	r3, [r7, #4]
20002018:	681b      	ldr	r3, [r3, #0]
2000201a:	681b      	ldr	r3, [r3, #0]
2000201c:	f003 0308 	and.w	r3, r3, #8
20002020:	2b00      	cmp	r3, #0
20002022:	d03c      	beq.n	2000209e <HAL_DMA_IRQHandler+0x170>
20002024:	687b      	ldr	r3, [r7, #4]
20002026:	6ddb      	ldr	r3, [r3, #92]	; 0x5c
20002028:	2210      	movs	r2, #16
2000202a:	409a      	lsls	r2, r3
2000202c:	693b      	ldr	r3, [r7, #16]
2000202e:	609a      	str	r2, [r3, #8]
20002030:	687b      	ldr	r3, [r7, #4]
20002032:	681b      	ldr	r3, [r3, #0]
20002034:	681b      	ldr	r3, [r3, #0]
20002036:	f403 2380 	and.w	r3, r3, #262144	; 0x40000
2000203a:	2b00      	cmp	r3, #0
2000203c:	d018      	beq.n	20002070 <HAL_DMA_IRQHandler+0x142>
2000203e:	687b      	ldr	r3, [r7, #4]
20002040:	681b      	ldr	r3, [r3, #0]
20002042:	681b      	ldr	r3, [r3, #0]
20002044:	f403 2300 	and.w	r3, r3, #524288	; 0x80000
20002048:	2b00      	cmp	r3, #0
2000204a:	d108      	bne.n	2000205e <HAL_DMA_IRQHandler+0x130>
2000204c:	687b      	ldr	r3, [r7, #4]
2000204e:	6c1b      	ldr	r3, [r3, #64]	; 0x40
20002050:	2b00      	cmp	r3, #0
20002052:	d024      	beq.n	2000209e <HAL_DMA_IRQHandler+0x170>
20002054:	687b      	ldr	r3, [r7, #4]
20002056:	6c1b      	ldr	r3, [r3, #64]	; 0x40
20002058:	6878      	ldr	r0, [r7, #4]
2000205a:	4798      	blx	r3
2000205c:	e01f      	b.n	2000209e <HAL_DMA_IRQHandler+0x170>
2000205e:	687b      	ldr	r3, [r7, #4]
20002060:	6c9b      	ldr	r3, [r3, #72]	; 0x48
20002062:	2b00      	cmp	r3, #0
20002064:	d01b      	beq.n	2000209e <HAL_DMA_IRQHandler+0x170>
20002066:	687b      	ldr	r3, [r7, #4]
20002068:	6c9b      	ldr	r3, [r3, #72]	; 0x48
2000206a:	6878      	ldr	r0, [r7, #4]
2000206c:	4798      	blx	r3
2000206e:	e016      	b.n	2000209e <HAL_DMA_IRQHandler+0x170>
20002070:	687b      	ldr	r3, [r7, #4]
20002072:	681b      	ldr	r3, [r3, #0]
20002074:	681b      	ldr	r3, [r3, #0]
20002076:	f403 7380 	and.w	r3, r3, #256	; 0x100
2000207a:	2b00      	cmp	r3, #0
2000207c:	d107      	bne.n	2000208e <HAL_DMA_IRQHandler+0x160>
2000207e:	687b      	ldr	r3, [r7, #4]
20002080:	681b      	ldr	r3, [r3, #0]
20002082:	681a      	ldr	r2, [r3, #0]
20002084:	687b      	ldr	r3, [r7, #4]
20002086:	681b      	ldr	r3, [r3, #0]
20002088:	f022 0208 	bic.w	r2, r2, #8
2000208c:	601a      	str	r2, [r3, #0]
2000208e:	687b      	ldr	r3, [r7, #4]
20002090:	6c1b      	ldr	r3, [r3, #64]	; 0x40
20002092:	2b00      	cmp	r3, #0
20002094:	d003      	beq.n	2000209e <HAL_DMA_IRQHandler+0x170>
20002096:	687b      	ldr	r3, [r7, #4]
20002098:	6c1b      	ldr	r3, [r3, #64]	; 0x40
2000209a:	6878      	ldr	r0, [r7, #4]
2000209c:	4798      	blx	r3
2000209e:	687b      	ldr	r3, [r7, #4]
200020a0:	6ddb      	ldr	r3, [r3, #92]	; 0x5c
200020a2:	2220      	movs	r2, #32
200020a4:	409a      	lsls	r2, r3
200020a6:	68fb      	ldr	r3, [r7, #12]
200020a8:	4013      	ands	r3, r2
200020aa:	2b00      	cmp	r3, #0
200020ac:	f000 808f 	beq.w	200021ce <HAL_DMA_IRQHandler+0x2a0>
200020b0:	687b      	ldr	r3, [r7, #4]
200020b2:	681b      	ldr	r3, [r3, #0]
200020b4:	681b      	ldr	r3, [r3, #0]
200020b6:	f003 0310 	and.w	r3, r3, #16
200020ba:	2b00      	cmp	r3, #0
200020bc:	f000 8087 	beq.w	200021ce <HAL_DMA_IRQHandler+0x2a0>
200020c0:	687b      	ldr	r3, [r7, #4]
200020c2:	6ddb      	ldr	r3, [r3, #92]	; 0x5c
200020c4:	2220      	movs	r2, #32
200020c6:	409a      	lsls	r2, r3
200020c8:	693b      	ldr	r3, [r7, #16]
200020ca:	609a      	str	r2, [r3, #8]
200020cc:	687b      	ldr	r3, [r7, #4]
200020ce:	f893 3035 	ldrb.w	r3, [r3, #53]	; 0x35
200020d2:	b2db      	uxtb	r3, r3
200020d4:	2b05      	cmp	r3, #5
200020d6:	d136      	bne.n	20002146 <HAL_DMA_IRQHandler+0x218>
200020d8:	687b      	ldr	r3, [r7, #4]
200020da:	681b      	ldr	r3, [r3, #0]
200020dc:	681a      	ldr	r2, [r3, #0]
200020de:	687b      	ldr	r3, [r7, #4]
200020e0:	681b      	ldr	r3, [r3, #0]
200020e2:	f022 0216 	bic.w	r2, r2, #22
200020e6:	601a      	str	r2, [r3, #0]
200020e8:	687b      	ldr	r3, [r7, #4]
200020ea:	681b      	ldr	r3, [r3, #0]
200020ec:	695a      	ldr	r2, [r3, #20]
200020ee:	687b      	ldr	r3, [r7, #4]
200020f0:	681b      	ldr	r3, [r3, #0]
200020f2:	f022 0280 	bic.w	r2, r2, #128	; 0x80
200020f6:	615a      	str	r2, [r3, #20]
200020f8:	687b      	ldr	r3, [r7, #4]
200020fa:	6c1b      	ldr	r3, [r3, #64]	; 0x40
200020fc:	2b00      	cmp	r3, #0
200020fe:	d103      	bne.n	20002108 <HAL_DMA_IRQHandler+0x1da>
20002100:	687b      	ldr	r3, [r7, #4]
20002102:	6c9b      	ldr	r3, [r3, #72]	; 0x48
20002104:	2b00      	cmp	r3, #0
20002106:	d007      	beq.n	20002118 <HAL_DMA_IRQHandler+0x1ea>
20002108:	687b      	ldr	r3, [r7, #4]
2000210a:	681b      	ldr	r3, [r3, #0]
2000210c:	681a      	ldr	r2, [r3, #0]
2000210e:	687b      	ldr	r3, [r7, #4]
20002110:	681b      	ldr	r3, [r3, #0]
20002112:	f022 0208 	bic.w	r2, r2, #8
20002116:	601a      	str	r2, [r3, #0]
20002118:	687b      	ldr	r3, [r7, #4]
2000211a:	6ddb      	ldr	r3, [r3, #92]	; 0x5c
2000211c:	223f      	movs	r2, #63	; 0x3f
2000211e:	409a      	lsls	r2, r3
20002120:	693b      	ldr	r3, [r7, #16]
20002122:	609a      	str	r2, [r3, #8]
20002124:	687b      	ldr	r3, [r7, #4]
20002126:	2200      	movs	r2, #0
20002128:	f883 2034 	strb.w	r2, [r3, #52]	; 0x34
2000212c:	687b      	ldr	r3, [r7, #4]
2000212e:	2201      	movs	r2, #1
20002130:	f883 2035 	strb.w	r2, [r3, #53]	; 0x35
20002134:	687b      	ldr	r3, [r7, #4]
20002136:	6d1b      	ldr	r3, [r3, #80]	; 0x50
20002138:	2b00      	cmp	r3, #0
2000213a:	d07e      	beq.n	2000223a <HAL_DMA_IRQHandler+0x30c>
2000213c:	687b      	ldr	r3, [r7, #4]
2000213e:	6d1b      	ldr	r3, [r3, #80]	; 0x50
20002140:	6878      	ldr	r0, [r7, #4]
20002142:	4798      	blx	r3
20002144:	e079      	b.n	2000223a <HAL_DMA_IRQHandler+0x30c>
20002146:	687b      	ldr	r3, [r7, #4]
20002148:	681b      	ldr	r3, [r3, #0]
2000214a:	681b      	ldr	r3, [r3, #0]
2000214c:	f403 2380 	and.w	r3, r3, #262144	; 0x40000
20002150:	2b00      	cmp	r3, #0
20002152:	d01d      	beq.n	20002190 <HAL_DMA_IRQHandler+0x262>
20002154:	687b      	ldr	r3, [r7, #4]
20002156:	681b      	ldr	r3, [r3, #0]
20002158:	681b      	ldr	r3, [r3, #0]
2000215a:	f403 2300 	and.w	r3, r3, #524288	; 0x80000
2000215e:	2b00      	cmp	r3, #0
20002160:	d108      	bne.n	20002174 <HAL_DMA_IRQHandler+0x246>
20002162:	687b      	ldr	r3, [r7, #4]
20002164:	6c5b      	ldr	r3, [r3, #68]	; 0x44
20002166:	2b00      	cmp	r3, #0
20002168:	d031      	beq.n	200021ce <HAL_DMA_IRQHandler+0x2a0>
2000216a:	687b      	ldr	r3, [r7, #4]
2000216c:	6c5b      	ldr	r3, [r3, #68]	; 0x44
2000216e:	6878      	ldr	r0, [r7, #4]
20002170:	4798      	blx	r3
20002172:	e02c      	b.n	200021ce <HAL_DMA_IRQHandler+0x2a0>
20002174:	687b      	ldr	r3, [r7, #4]
20002176:	6bdb      	ldr	r3, [r3, #60]	; 0x3c
20002178:	2b00      	cmp	r3, #0
2000217a:	d028      	beq.n	200021ce <HAL_DMA_IRQHandler+0x2a0>
2000217c:	687b      	ldr	r3, [r7, #4]
2000217e:	6bdb      	ldr	r3, [r3, #60]	; 0x3c
20002180:	6878      	ldr	r0, [r7, #4]
20002182:	4798      	blx	r3
20002184:	e023      	b.n	200021ce <HAL_DMA_IRQHandler+0x2a0>
20002186:	bf00      	nop
20002188:	20000210 	.word	0x20000210
2000218c:	1b4e81b5 	.word	0x1b4e81b5
20002190:	687b      	ldr	r3, [r7, #4]
20002192:	681b      	ldr	r3, [r3, #0]
20002194:	681b      	ldr	r3, [r3, #0]
20002196:	f403 7380 	and.w	r3, r3, #256	; 0x100
2000219a:	2b00      	cmp	r3, #0
2000219c:	d10f      	bne.n	200021be <HAL_DMA_IRQHandler+0x290>
2000219e:	687b      	ldr	r3, [r7, #4]
200021a0:	681b      	ldr	r3, [r3, #0]
200021a2:	681a      	ldr	r2, [r3, #0]
200021a4:	687b      	ldr	r3, [r7, #4]
200021a6:	681b      	ldr	r3, [r3, #0]
200021a8:	f022 0210 	bic.w	r2, r2, #16
200021ac:	601a      	str	r2, [r3, #0]
200021ae:	687b      	ldr	r3, [r7, #4]
200021b0:	2200      	movs	r2, #0
200021b2:	f883 2034 	strb.w	r2, [r3, #52]	; 0x34
200021b6:	687b      	ldr	r3, [r7, #4]
200021b8:	2201      	movs	r2, #1
200021ba:	f883 2035 	strb.w	r2, [r3, #53]	; 0x35
200021be:	687b      	ldr	r3, [r7, #4]
200021c0:	6bdb      	ldr	r3, [r3, #60]	; 0x3c
200021c2:	2b00      	cmp	r3, #0
200021c4:	d003      	beq.n	200021ce <HAL_DMA_IRQHandler+0x2a0>
200021c6:	687b      	ldr	r3, [r7, #4]
200021c8:	6bdb      	ldr	r3, [r3, #60]	; 0x3c
200021ca:	6878      	ldr	r0, [r7, #4]
200021cc:	4798      	blx	r3
200021ce:	687b      	ldr	r3, [r7, #4]
200021d0:	6d5b      	ldr	r3, [r3, #84]	; 0x54
200021d2:	2b00      	cmp	r3, #0
200021d4:	d032      	beq.n	2000223c <HAL_DMA_IRQHandler+0x30e>
200021d6:	687b      	ldr	r3, [r7, #4]
200021d8:	6d5b      	ldr	r3, [r3, #84]	; 0x54
200021da:	f003 0301 	and.w	r3, r3, #1
200021de:	2b00      	cmp	r3, #0
200021e0:	d022      	beq.n	20002228 <HAL_DMA_IRQHandler+0x2fa>
200021e2:	687b      	ldr	r3, [r7, #4]
200021e4:	2205      	movs	r2, #5
200021e6:	f883 2035 	strb.w	r2, [r3, #53]	; 0x35
200021ea:	687b      	ldr	r3, [r7, #4]
200021ec:	681b      	ldr	r3, [r3, #0]
200021ee:	681a      	ldr	r2, [r3, #0]
200021f0:	687b      	ldr	r3, [r7, #4]
200021f2:	681b      	ldr	r3, [r3, #0]
200021f4:	f022 0201 	bic.w	r2, r2, #1
200021f8:	601a      	str	r2, [r3, #0]
200021fa:	68bb      	ldr	r3, [r7, #8]
200021fc:	3301      	adds	r3, #1
200021fe:	60bb      	str	r3, [r7, #8]
20002200:	697a      	ldr	r2, [r7, #20]
20002202:	429a      	cmp	r2, r3
20002204:	d307      	bcc.n	20002216 <HAL_DMA_IRQHandler+0x2e8>
20002206:	687b      	ldr	r3, [r7, #4]
20002208:	681b      	ldr	r3, [r3, #0]
2000220a:	681b      	ldr	r3, [r3, #0]
2000220c:	f003 0301 	and.w	r3, r3, #1
20002210:	2b00      	cmp	r3, #0
20002212:	d1f2      	bne.n	200021fa <HAL_DMA_IRQHandler+0x2cc>
20002214:	e000      	b.n	20002218 <HAL_DMA_IRQHandler+0x2ea>
20002216:	bf00      	nop
20002218:	687b      	ldr	r3, [r7, #4]
2000221a:	2200      	movs	r2, #0
2000221c:	f883 2034 	strb.w	r2, [r3, #52]	; 0x34
20002220:	687b      	ldr	r3, [r7, #4]
20002222:	2201      	movs	r2, #1
20002224:	f883 2035 	strb.w	r2, [r3, #53]	; 0x35
20002228:	687b      	ldr	r3, [r7, #4]
2000222a:	6cdb      	ldr	r3, [r3, #76]	; 0x4c
2000222c:	2b00      	cmp	r3, #0
2000222e:	d005      	beq.n	2000223c <HAL_DMA_IRQHandler+0x30e>
20002230:	687b      	ldr	r3, [r7, #4]
20002232:	6cdb      	ldr	r3, [r3, #76]	; 0x4c
20002234:	6878      	ldr	r0, [r7, #4]
20002236:	4798      	blx	r3
20002238:	e000      	b.n	2000223c <HAL_DMA_IRQHandler+0x30e>
2000223a:	bf00      	nop
2000223c:	3718      	adds	r7, #24
2000223e:	46bd      	mov	sp, r7
20002240:	bd80      	pop	{r7, pc}

20002242 <HAL_DMA_RegisterCallback>:
20002242:	b480      	push	{r7}
20002244:	b087      	sub	sp, #28
20002246:	af00      	add	r7, sp, #0
20002248:	60f8      	str	r0, [r7, #12]
2000224a:	460b      	mov	r3, r1
2000224c:	607a      	str	r2, [r7, #4]
2000224e:	72fb      	strb	r3, [r7, #11]
20002250:	2300      	movs	r3, #0
20002252:	75fb      	strb	r3, [r7, #23]
20002254:	68fb      	ldr	r3, [r7, #12]
20002256:	f893 3034 	ldrb.w	r3, [r3, #52]	; 0x34
2000225a:	2b01      	cmp	r3, #1
2000225c:	d101      	bne.n	20002262 <HAL_DMA_RegisterCallback+0x20>
2000225e:	2302      	movs	r3, #2
20002260:	e03d      	b.n	200022de <HAL_DMA_RegisterCallback+0x9c>
20002262:	68fb      	ldr	r3, [r7, #12]
20002264:	2201      	movs	r2, #1
20002266:	f883 2034 	strb.w	r2, [r3, #52]	; 0x34
2000226a:	68fb      	ldr	r3, [r7, #12]
2000226c:	f893 3035 	ldrb.w	r3, [r3, #53]	; 0x35
20002270:	b2db      	uxtb	r3, r3
20002272:	2b01      	cmp	r3, #1
20002274:	d12a      	bne.n	200022cc <HAL_DMA_RegisterCallback+0x8a>
20002276:	7afb      	ldrb	r3, [r7, #11]
20002278:	2b05      	cmp	r3, #5
2000227a:	d82a      	bhi.n	200022d2 <HAL_DMA_RegisterCallback+0x90>
2000227c:	a201      	add	r2, pc, #4	; (adr r2, 20002284 <HAL_DMA_RegisterCallback+0x42>)
2000227e:	f852 f023 	ldr.w	pc, [r2, r3, lsl #2]
20002282:	bf00      	nop
20002284:	2000229d 	.word	0x2000229d
20002288:	200022a5 	.word	0x200022a5
2000228c:	200022ad 	.word	0x200022ad
20002290:	200022b5 	.word	0x200022b5
20002294:	200022bd 	.word	0x200022bd
20002298:	200022c5 	.word	0x200022c5
2000229c:	68fb      	ldr	r3, [r7, #12]
2000229e:	687a      	ldr	r2, [r7, #4]
200022a0:	63da      	str	r2, [r3, #60]	; 0x3c
200022a2:	e017      	b.n	200022d4 <HAL_DMA_RegisterCallback+0x92>
200022a4:	68fb      	ldr	r3, [r7, #12]
200022a6:	687a      	ldr	r2, [r7, #4]
200022a8:	641a      	str	r2, [r3, #64]	; 0x40
200022aa:	e013      	b.n	200022d4 <HAL_DMA_RegisterCallback+0x92>
200022ac:	68fb      	ldr	r3, [r7, #12]
200022ae:	687a      	ldr	r2, [r7, #4]
200022b0:	645a      	str	r2, [r3, #68]	; 0x44
200022b2:	e00f      	b.n	200022d4 <HAL_DMA_RegisterCallback+0x92>
200022b4:	68fb      	ldr	r3, [r7, #12]
200022b6:	687a      	ldr	r2, [r7, #4]
200022b8:	649a      	str	r2, [r3, #72]	; 0x48
200022ba:	e00b      	b.n	200022d4 <HAL_DMA_RegisterCallback+0x92>
200022bc:	68fb      	ldr	r3, [r7, #12]
200022be:	687a      	ldr	r2, [r7, #4]
200022c0:	64da      	str	r2, [r3, #76]	; 0x4c
200022c2:	e007      	b.n	200022d4 <HAL_DMA_RegisterCallback+0x92>
200022c4:	68fb      	ldr	r3, [r7, #12]
200022c6:	687a      	ldr	r2, [r7, #4]
200022c8:	651a      	str	r2, [r3, #80]	; 0x50
200022ca:	e003      	b.n	200022d4 <HAL_DMA_RegisterCallback+0x92>
200022cc:	2301      	movs	r3, #1
200022ce:	75fb      	strb	r3, [r7, #23]
200022d0:	e000      	b.n	200022d4 <HAL_DMA_RegisterCallback+0x92>
200022d2:	bf00      	nop
200022d4:	68fb      	ldr	r3, [r7, #12]
200022d6:	2200      	movs	r2, #0
200022d8:	f883 2034 	strb.w	r2, [r3, #52]	; 0x34
200022dc:	7dfb      	ldrb	r3, [r7, #23]
200022de:	4618      	mov	r0, r3
200022e0:	371c      	adds	r7, #28
200022e2:	46bd      	mov	sp, r7
200022e4:	bc80      	pop	{r7}
200022e6:	4770      	bx	lr

200022e8 <HAL_DMA_UnRegisterCallback>:
200022e8:	b480      	push	{r7}
200022ea:	b085      	sub	sp, #20
200022ec:	af00      	add	r7, sp, #0
200022ee:	6078      	str	r0, [r7, #4]
200022f0:	460b      	mov	r3, r1
200022f2:	70fb      	strb	r3, [r7, #3]
200022f4:	2300      	movs	r3, #0
200022f6:	73fb      	strb	r3, [r7, #15]
200022f8:	687b      	ldr	r3, [r7, #4]
200022fa:	f893 3034 	ldrb.w	r3, [r3, #52]	; 0x34
200022fe:	2b01      	cmp	r3, #1
20002300:	d101      	bne.n	20002306 <HAL_DMA_UnRegisterCallback+0x1e>
20002302:	2302      	movs	r3, #2
20002304:	e053      	b.n	200023ae <HAL_DMA_UnRegisterCallback+0xc6>
20002306:	687b      	ldr	r3, [r7, #4]
20002308:	2201      	movs	r2, #1
2000230a:	f883 2034 	strb.w	r2, [r3, #52]	; 0x34
2000230e:	687b      	ldr	r3, [r7, #4]
20002310:	f893 3035 	ldrb.w	r3, [r3, #53]	; 0x35
20002314:	b2db      	uxtb	r3, r3
20002316:	2b01      	cmp	r3, #1
20002318:	d142      	bne.n	200023a0 <HAL_DMA_UnRegisterCallback+0xb8>
2000231a:	78fb      	ldrb	r3, [r7, #3]
2000231c:	2b06      	cmp	r3, #6
2000231e:	d83c      	bhi.n	2000239a <HAL_DMA_UnRegisterCallback+0xb2>
20002320:	a201      	add	r2, pc, #4	; (adr r2, 20002328 <HAL_DMA_UnRegisterCallback+0x40>)
20002322:	f852 f023 	ldr.w	pc, [r2, r3, lsl #2]
20002326:	bf00      	nop
20002328:	20002345 	.word	0x20002345
2000232c:	2000234d 	.word	0x2000234d
20002330:	20002355 	.word	0x20002355
20002334:	2000235d 	.word	0x2000235d
20002338:	20002365 	.word	0x20002365
2000233c:	2000236d 	.word	0x2000236d
20002340:	20002375 	.word	0x20002375
20002344:	687b      	ldr	r3, [r7, #4]
20002346:	2200      	movs	r2, #0
20002348:	63da      	str	r2, [r3, #60]	; 0x3c
2000234a:	e02b      	b.n	200023a4 <HAL_DMA_UnRegisterCallback+0xbc>
2000234c:	687b      	ldr	r3, [r7, #4]
2000234e:	2200      	movs	r2, #0
20002350:	641a      	str	r2, [r3, #64]	; 0x40
20002352:	e027      	b.n	200023a4 <HAL_DMA_UnRegisterCallback+0xbc>
20002354:	687b      	ldr	r3, [r7, #4]
20002356:	2200      	movs	r2, #0
20002358:	645a      	str	r2, [r3, #68]	; 0x44
2000235a:	e023      	b.n	200023a4 <HAL_DMA_UnRegisterCallback+0xbc>
2000235c:	687b      	ldr	r3, [r7, #4]
2000235e:	2200      	movs	r2, #0
20002360:	649a      	str	r2, [r3, #72]	; 0x48
20002362:	e01f      	b.n	200023a4 <HAL_DMA_UnRegisterCallback+0xbc>
20002364:	687b      	ldr	r3, [r7, #4]
20002366:	2200      	movs	r2, #0
20002368:	64da      	str	r2, [r3, #76]	; 0x4c
2000236a:	e01b      	b.n	200023a4 <HAL_DMA_UnRegisterCallback+0xbc>
2000236c:	687b      	ldr	r3, [r7, #4]
2000236e:	2200      	movs	r2, #0
20002370:	651a      	str	r2, [r3, #80]	; 0x50
20002372:	e017      	b.n	200023a4 <HAL_DMA_UnRegisterCallback+0xbc>
20002374:	687b      	ldr	r3, [r7, #4]
20002376:	2200      	movs	r2, #0
20002378:	63da      	str	r2, [r3, #60]	; 0x3c
2000237a:	687b      	ldr	r3, [r7, #4]
2000237c:	2200      	movs	r2, #0
2000237e:	641a      	str	r2, [r3, #64]	; 0x40
20002380:	687b      	ldr	r3, [r7, #4]
20002382:	2200      	movs	r2, #0
20002384:	645a      	str	r2, [r3, #68]	; 0x44
20002386:	687b      	ldr	r3, [r7, #4]
20002388:	2200      	movs	r2, #0
2000238a:	649a      	str	r2, [r3, #72]	; 0x48
2000238c:	687b      	ldr	r3, [r7, #4]
2000238e:	2200      	movs	r2, #0
20002390:	64da      	str	r2, [r3, #76]	; 0x4c
20002392:	687b      	ldr	r3, [r7, #4]
20002394:	2200      	movs	r2, #0
20002396:	651a      	str	r2, [r3, #80]	; 0x50
20002398:	e004      	b.n	200023a4 <HAL_DMA_UnRegisterCallback+0xbc>
2000239a:	2301      	movs	r3, #1
2000239c:	73fb      	strb	r3, [r7, #15]
2000239e:	e001      	b.n	200023a4 <HAL_DMA_UnRegisterCallback+0xbc>
200023a0:	2301      	movs	r3, #1
200023a2:	73fb      	strb	r3, [r7, #15]
200023a4:	687b      	ldr	r3, [r7, #4]
200023a6:	2200      	movs	r2, #0
200023a8:	f883 2034 	strb.w	r2, [r3, #52]	; 0x34
200023ac:	7bfb      	ldrb	r3, [r7, #15]
200023ae:	4618      	mov	r0, r3
200023b0:	3714      	adds	r7, #20
200023b2:	46bd      	mov	sp, r7
200023b4:	bc80      	pop	{r7}
200023b6:	4770      	bx	lr

200023b8 <HAL_DMA_GetState>:
200023b8:	b480      	push	{r7}
200023ba:	b083      	sub	sp, #12
200023bc:	af00      	add	r7, sp, #0
200023be:	6078      	str	r0, [r7, #4]
200023c0:	687b      	ldr	r3, [r7, #4]
200023c2:	f893 3035 	ldrb.w	r3, [r3, #53]	; 0x35
200023c6:	b2db      	uxtb	r3, r3
200023c8:	4618      	mov	r0, r3
200023ca:	370c      	adds	r7, #12
200023cc:	46bd      	mov	sp, r7
200023ce:	bc80      	pop	{r7}
200023d0:	4770      	bx	lr

200023d2 <HAL_DMA_GetError>:
200023d2:	b480      	push	{r7}
200023d4:	b083      	sub	sp, #12
200023d6:	af00      	add	r7, sp, #0
200023d8:	6078      	str	r0, [r7, #4]
200023da:	687b      	ldr	r3, [r7, #4]
200023dc:	6d5b      	ldr	r3, [r3, #84]	; 0x54
200023de:	4618      	mov	r0, r3
200023e0:	370c      	adds	r7, #12
200023e2:	46bd      	mov	sp, r7
200023e4:	bc80      	pop	{r7}
200023e6:	4770      	bx	lr

200023e8 <DMA_SetConfig>:
200023e8:	b480      	push	{r7}
200023ea:	b085      	sub	sp, #20
200023ec:	af00      	add	r7, sp, #0
200023ee:	60f8      	str	r0, [r7, #12]
200023f0:	60b9      	str	r1, [r7, #8]
200023f2:	607a      	str	r2, [r7, #4]
200023f4:	603b      	str	r3, [r7, #0]
200023f6:	68fb      	ldr	r3, [r7, #12]
200023f8:	681b      	ldr	r3, [r3, #0]
200023fa:	681a      	ldr	r2, [r3, #0]
200023fc:	68fb      	ldr	r3, [r7, #12]
200023fe:	681b      	ldr	r3, [r3, #0]
20002400:	f422 2280 	bic.w	r2, r2, #262144	; 0x40000
20002404:	601a      	str	r2, [r3, #0]
20002406:	68fb      	ldr	r3, [r7, #12]
20002408:	681b      	ldr	r3, [r3, #0]
2000240a:	683a      	ldr	r2, [r7, #0]
2000240c:	605a      	str	r2, [r3, #4]
2000240e:	68fb      	ldr	r3, [r7, #12]
20002410:	689b      	ldr	r3, [r3, #8]
20002412:	2b40      	cmp	r3, #64	; 0x40
20002414:	d108      	bne.n	20002428 <DMA_SetConfig+0x40>
20002416:	68fb      	ldr	r3, [r7, #12]
20002418:	681b      	ldr	r3, [r3, #0]
2000241a:	687a      	ldr	r2, [r7, #4]
2000241c:	609a      	str	r2, [r3, #8]
2000241e:	68fb      	ldr	r3, [r7, #12]
20002420:	681b      	ldr	r3, [r3, #0]
20002422:	68ba      	ldr	r2, [r7, #8]
20002424:	60da      	str	r2, [r3, #12]
20002426:	e007      	b.n	20002438 <DMA_SetConfig+0x50>
20002428:	68fb      	ldr	r3, [r7, #12]
2000242a:	681b      	ldr	r3, [r3, #0]
2000242c:	68ba      	ldr	r2, [r7, #8]
2000242e:	609a      	str	r2, [r3, #8]
20002430:	68fb      	ldr	r3, [r7, #12]
20002432:	681b      	ldr	r3, [r3, #0]
20002434:	687a      	ldr	r2, [r7, #4]
20002436:	60da      	str	r2, [r3, #12]
20002438:	bf00      	nop
2000243a:	3714      	adds	r7, #20
2000243c:	46bd      	mov	sp, r7
2000243e:	bc80      	pop	{r7}
20002440:	4770      	bx	lr

20002442 <DMA_CalcBaseAndBitshift>:
20002442:	b480      	push	{r7}
20002444:	b085      	sub	sp, #20
20002446:	af00      	add	r7, sp, #0
20002448:	6078      	str	r0, [r7, #4]
2000244a:	687b      	ldr	r3, [r7, #4]
2000244c:	681b      	ldr	r3, [r3, #0]
2000244e:	b2db      	uxtb	r3, r3
20002450:	3b10      	subs	r3, #16
20002452:	4a14      	ldr	r2, [pc, #80]	; (200024a4 <DMA_CalcBaseAndBitshift+0x62>)
20002454:	fba2 2303 	umull	r2, r3, r2, r3
20002458:	091b      	lsrs	r3, r3, #4
2000245a:	60fb      	str	r3, [r7, #12]
2000245c:	4a12      	ldr	r2, [pc, #72]	; (200024a8 <DMA_CalcBaseAndBitshift+0x66>)
2000245e:	68fb      	ldr	r3, [r7, #12]
20002460:	4413      	add	r3, r2
20002462:	781b      	ldrb	r3, [r3, #0]
20002464:	461a      	mov	r2, r3
20002466:	687b      	ldr	r3, [r7, #4]
20002468:	65da      	str	r2, [r3, #92]	; 0x5c
2000246a:	68fb      	ldr	r3, [r7, #12]
2000246c:	2b03      	cmp	r3, #3
2000246e:	d909      	bls.n	20002484 <DMA_CalcBaseAndBitshift+0x42>
20002470:	687b      	ldr	r3, [r7, #4]
20002472:	681b      	ldr	r3, [r3, #0]
20002474:	f423 737f 	bic.w	r3, r3, #1020	; 0x3fc
20002478:	f023 0303 	bic.w	r3, r3, #3
2000247c:	1d1a      	adds	r2, r3, #4
2000247e:	687b      	ldr	r3, [r7, #4]
20002480:	659a      	str	r2, [r3, #88]	; 0x58
20002482:	e007      	b.n	20002494 <DMA_CalcBaseAndBitshift+0x52>
20002484:	687b      	ldr	r3, [r7, #4]
20002486:	681b      	ldr	r3, [r3, #0]
20002488:	f423 737f 	bic.w	r3, r3, #1020	; 0x3fc
2000248c:	f023 0303 	bic.w	r3, r3, #3
20002490:	687a      	ldr	r2, [r7, #4]
20002492:	6593      	str	r3, [r2, #88]	; 0x58
20002494:	687b      	ldr	r3, [r7, #4]
20002496:	6d9b      	ldr	r3, [r3, #88]	; 0x58
20002498:	4618      	mov	r0, r3
2000249a:	3714      	adds	r7, #20
2000249c:	46bd      	mov	sp, r7
2000249e:	bc80      	pop	{r7}
200024a0:	4770      	bx	lr
200024a2:	bf00      	nop
200024a4:	aaaaaaab 	.word	0xaaaaaaab
200024a8:	2000605c 	.word	0x2000605c

200024ac <DMA_CheckFifoParam>:
200024ac:	b480      	push	{r7}
200024ae:	b085      	sub	sp, #20
200024b0:	af00      	add	r7, sp, #0
200024b2:	6078      	str	r0, [r7, #4]
200024b4:	2300      	movs	r3, #0
200024b6:	73fb      	strb	r3, [r7, #15]
200024b8:	687b      	ldr	r3, [r7, #4]
200024ba:	6a9b      	ldr	r3, [r3, #40]	; 0x28
200024bc:	60bb      	str	r3, [r7, #8]
200024be:	687b      	ldr	r3, [r7, #4]
200024c0:	699b      	ldr	r3, [r3, #24]
200024c2:	2b00      	cmp	r3, #0
200024c4:	d11f      	bne.n	20002506 <DMA_CheckFifoParam+0x5a>
200024c6:	68bb      	ldr	r3, [r7, #8]
200024c8:	2b03      	cmp	r3, #3
200024ca:	d856      	bhi.n	2000257a <DMA_CheckFifoParam+0xce>
200024cc:	a201      	add	r2, pc, #4	; (adr r2, 200024d4 <DMA_CheckFifoParam+0x28>)
200024ce:	f852 f023 	ldr.w	pc, [r2, r3, lsl #2]
200024d2:	bf00      	nop
200024d4:	200024e5 	.word	0x200024e5
200024d8:	200024f7 	.word	0x200024f7
200024dc:	200024e5 	.word	0x200024e5
200024e0:	2000257b 	.word	0x2000257b
200024e4:	687b      	ldr	r3, [r7, #4]
200024e6:	6adb      	ldr	r3, [r3, #44]	; 0x2c
200024e8:	f003 7380 	and.w	r3, r3, #16777216	; 0x1000000
200024ec:	2b00      	cmp	r3, #0
200024ee:	d046      	beq.n	2000257e <DMA_CheckFifoParam+0xd2>
200024f0:	2301      	movs	r3, #1
200024f2:	73fb      	strb	r3, [r7, #15]
200024f4:	e043      	b.n	2000257e <DMA_CheckFifoParam+0xd2>
200024f6:	687b      	ldr	r3, [r7, #4]
200024f8:	6adb      	ldr	r3, [r3, #44]	; 0x2c
200024fa:	f1b3 7fc0 	cmp.w	r3, #25165824	; 0x1800000
200024fe:	d140      	bne.n	20002582 <DMA_CheckFifoParam+0xd6>
20002500:	2301      	movs	r3, #1
20002502:	73fb      	strb	r3, [r7, #15]
20002504:	e03d      	b.n	20002582 <DMA_CheckFifoParam+0xd6>
20002506:	687b      	ldr	r3, [r7, #4]
20002508:	699b      	ldr	r3, [r3, #24]
2000250a:	f5b3 5f00 	cmp.w	r3, #8192	; 0x2000
2000250e:	d121      	bne.n	20002554 <DMA_CheckFifoParam+0xa8>
20002510:	68bb      	ldr	r3, [r7, #8]
20002512:	2b03      	cmp	r3, #3
20002514:	d837      	bhi.n	20002586 <DMA_CheckFifoParam+0xda>
20002516:	a201      	add	r2, pc, #4	; (adr r2, 2000251c <DMA_CheckFifoParam+0x70>)
20002518:	f852 f023 	ldr.w	pc, [r2, r3, lsl #2]
2000251c:	2000252d 	.word	0x2000252d
20002520:	20002533 	.word	0x20002533
20002524:	2000252d 	.word	0x2000252d
20002528:	20002545 	.word	0x20002545
2000252c:	2301      	movs	r3, #1
2000252e:	73fb      	strb	r3, [r7, #15]
20002530:	e030      	b.n	20002594 <DMA_CheckFifoParam+0xe8>
20002532:	687b      	ldr	r3, [r7, #4]
20002534:	6adb      	ldr	r3, [r3, #44]	; 0x2c
20002536:	f003 7380 	and.w	r3, r3, #16777216	; 0x1000000
2000253a:	2b00      	cmp	r3, #0
2000253c:	d025      	beq.n	2000258a <DMA_CheckFifoParam+0xde>
2000253e:	2301      	movs	r3, #1
20002540:	73fb      	strb	r3, [r7, #15]
20002542:	e022      	b.n	2000258a <DMA_CheckFifoParam+0xde>
20002544:	687b      	ldr	r3, [r7, #4]
20002546:	6adb      	ldr	r3, [r3, #44]	; 0x2c
20002548:	f1b3 7fc0 	cmp.w	r3, #25165824	; 0x1800000
2000254c:	d11f      	bne.n	2000258e <DMA_CheckFifoParam+0xe2>
2000254e:	2301      	movs	r3, #1
20002550:	73fb      	strb	r3, [r7, #15]
20002552:	e01c      	b.n	2000258e <DMA_CheckFifoParam+0xe2>
20002554:	68bb      	ldr	r3, [r7, #8]
20002556:	2b02      	cmp	r3, #2
20002558:	d903      	bls.n	20002562 <DMA_CheckFifoParam+0xb6>
2000255a:	68bb      	ldr	r3, [r7, #8]
2000255c:	2b03      	cmp	r3, #3
2000255e:	d003      	beq.n	20002568 <DMA_CheckFifoParam+0xbc>
20002560:	e018      	b.n	20002594 <DMA_CheckFifoParam+0xe8>
20002562:	2301      	movs	r3, #1
20002564:	73fb      	strb	r3, [r7, #15]
20002566:	e015      	b.n	20002594 <DMA_CheckFifoParam+0xe8>
20002568:	687b      	ldr	r3, [r7, #4]
2000256a:	6adb      	ldr	r3, [r3, #44]	; 0x2c
2000256c:	f003 7380 	and.w	r3, r3, #16777216	; 0x1000000
20002570:	2b00      	cmp	r3, #0
20002572:	d00e      	beq.n	20002592 <DMA_CheckFifoParam+0xe6>
20002574:	2301      	movs	r3, #1
20002576:	73fb      	strb	r3, [r7, #15]
20002578:	e00b      	b.n	20002592 <DMA_CheckFifoParam+0xe6>
2000257a:	bf00      	nop
2000257c:	e00a      	b.n	20002594 <DMA_CheckFifoParam+0xe8>
2000257e:	bf00      	nop
20002580:	e008      	b.n	20002594 <DMA_CheckFifoParam+0xe8>
20002582:	bf00      	nop
20002584:	e006      	b.n	20002594 <DMA_CheckFifoParam+0xe8>
20002586:	bf00      	nop
20002588:	e004      	b.n	20002594 <DMA_CheckFifoParam+0xe8>
2000258a:	bf00      	nop
2000258c:	e002      	b.n	20002594 <DMA_CheckFifoParam+0xe8>
2000258e:	bf00      	nop
20002590:	e000      	b.n	20002594 <DMA_CheckFifoParam+0xe8>
20002592:	bf00      	nop
20002594:	7bfb      	ldrb	r3, [r7, #15]
20002596:	4618      	mov	r0, r3
20002598:	3714      	adds	r7, #20
2000259a:	46bd      	mov	sp, r7
2000259c:	bc80      	pop	{r7}
2000259e:	4770      	bx	lr

200025a0 <HAL_GPIO_Init>:
200025a0:	b480      	push	{r7}
200025a2:	b089      	sub	sp, #36	; 0x24
200025a4:	af00      	add	r7, sp, #0
200025a6:	6078      	str	r0, [r7, #4]
200025a8:	6039      	str	r1, [r7, #0]
200025aa:	2300      	movs	r3, #0
200025ac:	617b      	str	r3, [r7, #20]
200025ae:	2300      	movs	r3, #0
200025b0:	613b      	str	r3, [r7, #16]
200025b2:	2300      	movs	r3, #0
200025b4:	61bb      	str	r3, [r7, #24]
200025b6:	2300      	movs	r3, #0
200025b8:	61fb      	str	r3, [r7, #28]
200025ba:	e159      	b.n	20002870 <HAL_GPIO_Init+0x2d0>
200025bc:	2201      	movs	r2, #1
200025be:	69fb      	ldr	r3, [r7, #28]
200025c0:	fa02 f303 	lsl.w	r3, r2, r3
200025c4:	617b      	str	r3, [r7, #20]
200025c6:	683b      	ldr	r3, [r7, #0]
200025c8:	681b      	ldr	r3, [r3, #0]
200025ca:	697a      	ldr	r2, [r7, #20]
200025cc:	4013      	ands	r3, r2
200025ce:	613b      	str	r3, [r7, #16]
200025d0:	693a      	ldr	r2, [r7, #16]
200025d2:	697b      	ldr	r3, [r7, #20]
200025d4:	429a      	cmp	r2, r3
200025d6:	f040 8148 	bne.w	2000286a <HAL_GPIO_Init+0x2ca>
200025da:	683b      	ldr	r3, [r7, #0]
200025dc:	685b      	ldr	r3, [r3, #4]
200025de:	f003 0303 	and.w	r3, r3, #3
200025e2:	2b01      	cmp	r3, #1
200025e4:	d005      	beq.n	200025f2 <HAL_GPIO_Init+0x52>
200025e6:	683b      	ldr	r3, [r7, #0]
200025e8:	685b      	ldr	r3, [r3, #4]
200025ea:	f003 0303 	and.w	r3, r3, #3
200025ee:	2b02      	cmp	r3, #2
200025f0:	d130      	bne.n	20002654 <HAL_GPIO_Init+0xb4>
200025f2:	687b      	ldr	r3, [r7, #4]
200025f4:	689b      	ldr	r3, [r3, #8]
200025f6:	61bb      	str	r3, [r7, #24]
200025f8:	69fb      	ldr	r3, [r7, #28]
200025fa:	005b      	lsls	r3, r3, #1
200025fc:	2203      	movs	r2, #3
200025fe:	fa02 f303 	lsl.w	r3, r2, r3
20002602:	43db      	mvns	r3, r3
20002604:	69ba      	ldr	r2, [r7, #24]
20002606:	4013      	ands	r3, r2
20002608:	61bb      	str	r3, [r7, #24]
2000260a:	683b      	ldr	r3, [r7, #0]
2000260c:	68da      	ldr	r2, [r3, #12]
2000260e:	69fb      	ldr	r3, [r7, #28]
20002610:	005b      	lsls	r3, r3, #1
20002612:	fa02 f303 	lsl.w	r3, r2, r3
20002616:	69ba      	ldr	r2, [r7, #24]
20002618:	4313      	orrs	r3, r2
2000261a:	61bb      	str	r3, [r7, #24]
2000261c:	687b      	ldr	r3, [r7, #4]
2000261e:	69ba      	ldr	r2, [r7, #24]
20002620:	609a      	str	r2, [r3, #8]
20002622:	687b      	ldr	r3, [r7, #4]
20002624:	685b      	ldr	r3, [r3, #4]
20002626:	61bb      	str	r3, [r7, #24]
20002628:	2201      	movs	r2, #1
2000262a:	69fb      	ldr	r3, [r7, #28]
2000262c:	fa02 f303 	lsl.w	r3, r2, r3
20002630:	43db      	mvns	r3, r3
20002632:	69ba      	ldr	r2, [r7, #24]
20002634:	4013      	ands	r3, r2
20002636:	61bb      	str	r3, [r7, #24]
20002638:	683b      	ldr	r3, [r7, #0]
2000263a:	685b      	ldr	r3, [r3, #4]
2000263c:	091b      	lsrs	r3, r3, #4
2000263e:	f003 0201 	and.w	r2, r3, #1
20002642:	69fb      	ldr	r3, [r7, #28]
20002644:	fa02 f303 	lsl.w	r3, r2, r3
20002648:	69ba      	ldr	r2, [r7, #24]
2000264a:	4313      	orrs	r3, r2
2000264c:	61bb      	str	r3, [r7, #24]
2000264e:	687b      	ldr	r3, [r7, #4]
20002650:	69ba      	ldr	r2, [r7, #24]
20002652:	605a      	str	r2, [r3, #4]
20002654:	683b      	ldr	r3, [r7, #0]
20002656:	685b      	ldr	r3, [r3, #4]
20002658:	f003 0303 	and.w	r3, r3, #3
2000265c:	2b03      	cmp	r3, #3
2000265e:	d017      	beq.n	20002690 <HAL_GPIO_Init+0xf0>
20002660:	687b      	ldr	r3, [r7, #4]
20002662:	68db      	ldr	r3, [r3, #12]
20002664:	61bb      	str	r3, [r7, #24]
20002666:	69fb      	ldr	r3, [r7, #28]
20002668:	005b      	lsls	r3, r3, #1
2000266a:	2203      	movs	r2, #3
2000266c:	fa02 f303 	lsl.w	r3, r2, r3
20002670:	43db      	mvns	r3, r3
20002672:	69ba      	ldr	r2, [r7, #24]
20002674:	4013      	ands	r3, r2
20002676:	61bb      	str	r3, [r7, #24]
20002678:	683b      	ldr	r3, [r7, #0]
2000267a:	689a      	ldr	r2, [r3, #8]
2000267c:	69fb      	ldr	r3, [r7, #28]
2000267e:	005b      	lsls	r3, r3, #1
20002680:	fa02 f303 	lsl.w	r3, r2, r3
20002684:	69ba      	ldr	r2, [r7, #24]
20002686:	4313      	orrs	r3, r2
20002688:	61bb      	str	r3, [r7, #24]
2000268a:	687b      	ldr	r3, [r7, #4]
2000268c:	69ba      	ldr	r2, [r7, #24]
2000268e:	60da      	str	r2, [r3, #12]
20002690:	683b      	ldr	r3, [r7, #0]
20002692:	685b      	ldr	r3, [r3, #4]
20002694:	f003 0303 	and.w	r3, r3, #3
20002698:	2b02      	cmp	r3, #2
2000269a:	d123      	bne.n	200026e4 <HAL_GPIO_Init+0x144>
2000269c:	69fb      	ldr	r3, [r7, #28]
2000269e:	08da      	lsrs	r2, r3, #3
200026a0:	687b      	ldr	r3, [r7, #4]
200026a2:	3208      	adds	r2, #8
200026a4:	f853 3022 	ldr.w	r3, [r3, r2, lsl #2]
200026a8:	61bb      	str	r3, [r7, #24]
200026aa:	69fb      	ldr	r3, [r7, #28]
200026ac:	f003 0307 	and.w	r3, r3, #7
200026b0:	009b      	lsls	r3, r3, #2
200026b2:	220f      	movs	r2, #15
200026b4:	fa02 f303 	lsl.w	r3, r2, r3
200026b8:	43db      	mvns	r3, r3
200026ba:	69ba      	ldr	r2, [r7, #24]
200026bc:	4013      	ands	r3, r2
200026be:	61bb      	str	r3, [r7, #24]
200026c0:	683b      	ldr	r3, [r7, #0]
200026c2:	691a      	ldr	r2, [r3, #16]
200026c4:	69fb      	ldr	r3, [r7, #28]
200026c6:	f003 0307 	and.w	r3, r3, #7
200026ca:	009b      	lsls	r3, r3, #2
200026cc:	fa02 f303 	lsl.w	r3, r2, r3
200026d0:	69ba      	ldr	r2, [r7, #24]
200026d2:	4313      	orrs	r3, r2
200026d4:	61bb      	str	r3, [r7, #24]
200026d6:	69fb      	ldr	r3, [r7, #28]
200026d8:	08da      	lsrs	r2, r3, #3
200026da:	687b      	ldr	r3, [r7, #4]
200026dc:	3208      	adds	r2, #8
200026de:	69b9      	ldr	r1, [r7, #24]
200026e0:	f843 1022 	str.w	r1, [r3, r2, lsl #2]
200026e4:	687b      	ldr	r3, [r7, #4]
200026e6:	681b      	ldr	r3, [r3, #0]
200026e8:	61bb      	str	r3, [r7, #24]
200026ea:	69fb      	ldr	r3, [r7, #28]
200026ec:	005b      	lsls	r3, r3, #1
200026ee:	2203      	movs	r2, #3
200026f0:	fa02 f303 	lsl.w	r3, r2, r3
200026f4:	43db      	mvns	r3, r3
200026f6:	69ba      	ldr	r2, [r7, #24]
200026f8:	4013      	ands	r3, r2
200026fa:	61bb      	str	r3, [r7, #24]
200026fc:	683b      	ldr	r3, [r7, #0]
200026fe:	685b      	ldr	r3, [r3, #4]
20002700:	f003 0203 	and.w	r2, r3, #3
20002704:	69fb      	ldr	r3, [r7, #28]
20002706:	005b      	lsls	r3, r3, #1
20002708:	fa02 f303 	lsl.w	r3, r2, r3
2000270c:	69ba      	ldr	r2, [r7, #24]
2000270e:	4313      	orrs	r3, r2
20002710:	61bb      	str	r3, [r7, #24]
20002712:	687b      	ldr	r3, [r7, #4]
20002714:	69ba      	ldr	r2, [r7, #24]
20002716:	601a      	str	r2, [r3, #0]
20002718:	683b      	ldr	r3, [r7, #0]
2000271a:	685b      	ldr	r3, [r3, #4]
2000271c:	f003 5380 	and.w	r3, r3, #268435456	; 0x10000000
20002720:	2b00      	cmp	r3, #0
20002722:	f000 80a2 	beq.w	2000286a <HAL_GPIO_Init+0x2ca>
20002726:	2300      	movs	r3, #0
20002728:	60fb      	str	r3, [r7, #12]
2000272a:	4b56      	ldr	r3, [pc, #344]	; (20002884 <HAL_GPIO_Init+0x2e4>)
2000272c:	6c5b      	ldr	r3, [r3, #68]	; 0x44
2000272e:	4a55      	ldr	r2, [pc, #340]	; (20002884 <HAL_GPIO_Init+0x2e4>)
20002730:	f443 4380 	orr.w	r3, r3, #16384	; 0x4000
20002734:	6453      	str	r3, [r2, #68]	; 0x44
20002736:	4b53      	ldr	r3, [pc, #332]	; (20002884 <HAL_GPIO_Init+0x2e4>)
20002738:	6c5b      	ldr	r3, [r3, #68]	; 0x44
2000273a:	f403 4380 	and.w	r3, r3, #16384	; 0x4000
2000273e:	60fb      	str	r3, [r7, #12]
20002740:	68fb      	ldr	r3, [r7, #12]
20002742:	4a51      	ldr	r2, [pc, #324]	; (20002888 <HAL_GPIO_Init+0x2e8>)
20002744:	69fb      	ldr	r3, [r7, #28]
20002746:	089b      	lsrs	r3, r3, #2
20002748:	3302      	adds	r3, #2
2000274a:	f852 3023 	ldr.w	r3, [r2, r3, lsl #2]
2000274e:	61bb      	str	r3, [r7, #24]
20002750:	69fb      	ldr	r3, [r7, #28]
20002752:	f003 0303 	and.w	r3, r3, #3
20002756:	009b      	lsls	r3, r3, #2
20002758:	220f      	movs	r2, #15
2000275a:	fa02 f303 	lsl.w	r3, r2, r3
2000275e:	43db      	mvns	r3, r3
20002760:	69ba      	ldr	r2, [r7, #24]
20002762:	4013      	ands	r3, r2
20002764:	61bb      	str	r3, [r7, #24]
20002766:	687b      	ldr	r3, [r7, #4]
20002768:	4a48      	ldr	r2, [pc, #288]	; (2000288c <HAL_GPIO_Init+0x2ec>)
2000276a:	4293      	cmp	r3, r2
2000276c:	d019      	beq.n	200027a2 <HAL_GPIO_Init+0x202>
2000276e:	687b      	ldr	r3, [r7, #4]
20002770:	4a47      	ldr	r2, [pc, #284]	; (20002890 <HAL_GPIO_Init+0x2f0>)
20002772:	4293      	cmp	r3, r2
20002774:	d013      	beq.n	2000279e <HAL_GPIO_Init+0x1fe>
20002776:	687b      	ldr	r3, [r7, #4]
20002778:	4a46      	ldr	r2, [pc, #280]	; (20002894 <HAL_GPIO_Init+0x2f4>)
2000277a:	4293      	cmp	r3, r2
2000277c:	d00d      	beq.n	2000279a <HAL_GPIO_Init+0x1fa>
2000277e:	687b      	ldr	r3, [r7, #4]
20002780:	4a45      	ldr	r2, [pc, #276]	; (20002898 <HAL_GPIO_Init+0x2f8>)
20002782:	4293      	cmp	r3, r2
20002784:	d007      	beq.n	20002796 <HAL_GPIO_Init+0x1f6>
20002786:	687b      	ldr	r3, [r7, #4]
20002788:	4a44      	ldr	r2, [pc, #272]	; (2000289c <HAL_GPIO_Init+0x2fc>)
2000278a:	4293      	cmp	r3, r2
2000278c:	d101      	bne.n	20002792 <HAL_GPIO_Init+0x1f2>
2000278e:	2304      	movs	r3, #4
20002790:	e008      	b.n	200027a4 <HAL_GPIO_Init+0x204>
20002792:	2307      	movs	r3, #7
20002794:	e006      	b.n	200027a4 <HAL_GPIO_Init+0x204>
20002796:	2303      	movs	r3, #3
20002798:	e004      	b.n	200027a4 <HAL_GPIO_Init+0x204>
2000279a:	2302      	movs	r3, #2
2000279c:	e002      	b.n	200027a4 <HAL_GPIO_Init+0x204>
2000279e:	2301      	movs	r3, #1
200027a0:	e000      	b.n	200027a4 <HAL_GPIO_Init+0x204>
200027a2:	2300      	movs	r3, #0
200027a4:	69fa      	ldr	r2, [r7, #28]
200027a6:	f002 0203 	and.w	r2, r2, #3
200027aa:	0092      	lsls	r2, r2, #2
200027ac:	4093      	lsls	r3, r2
200027ae:	69ba      	ldr	r2, [r7, #24]
200027b0:	4313      	orrs	r3, r2
200027b2:	61bb      	str	r3, [r7, #24]
200027b4:	4934      	ldr	r1, [pc, #208]	; (20002888 <HAL_GPIO_Init+0x2e8>)
200027b6:	69fb      	ldr	r3, [r7, #28]
200027b8:	089b      	lsrs	r3, r3, #2
200027ba:	3302      	adds	r3, #2
200027bc:	69ba      	ldr	r2, [r7, #24]
200027be:	f841 2023 	str.w	r2, [r1, r3, lsl #2]
200027c2:	4b37      	ldr	r3, [pc, #220]	; (200028a0 <HAL_GPIO_Init+0x300>)
200027c4:	681b      	ldr	r3, [r3, #0]
200027c6:	61bb      	str	r3, [r7, #24]
200027c8:	693b      	ldr	r3, [r7, #16]
200027ca:	43db      	mvns	r3, r3
200027cc:	69ba      	ldr	r2, [r7, #24]
200027ce:	4013      	ands	r3, r2
200027d0:	61bb      	str	r3, [r7, #24]
200027d2:	683b      	ldr	r3, [r7, #0]
200027d4:	685b      	ldr	r3, [r3, #4]
200027d6:	f403 3380 	and.w	r3, r3, #65536	; 0x10000
200027da:	2b00      	cmp	r3, #0
200027dc:	d003      	beq.n	200027e6 <HAL_GPIO_Init+0x246>
200027de:	69ba      	ldr	r2, [r7, #24]
200027e0:	693b      	ldr	r3, [r7, #16]
200027e2:	4313      	orrs	r3, r2
200027e4:	61bb      	str	r3, [r7, #24]
200027e6:	4a2e      	ldr	r2, [pc, #184]	; (200028a0 <HAL_GPIO_Init+0x300>)
200027e8:	69bb      	ldr	r3, [r7, #24]
200027ea:	6013      	str	r3, [r2, #0]
200027ec:	4b2c      	ldr	r3, [pc, #176]	; (200028a0 <HAL_GPIO_Init+0x300>)
200027ee:	685b      	ldr	r3, [r3, #4]
200027f0:	61bb      	str	r3, [r7, #24]
200027f2:	693b      	ldr	r3, [r7, #16]
200027f4:	43db      	mvns	r3, r3
200027f6:	69ba      	ldr	r2, [r7, #24]
200027f8:	4013      	ands	r3, r2
200027fa:	61bb      	str	r3, [r7, #24]
200027fc:	683b      	ldr	r3, [r7, #0]
200027fe:	685b      	ldr	r3, [r3, #4]
20002800:	f403 3300 	and.w	r3, r3, #131072	; 0x20000
20002804:	2b00      	cmp	r3, #0
20002806:	d003      	beq.n	20002810 <HAL_GPIO_Init+0x270>
20002808:	69ba      	ldr	r2, [r7, #24]
2000280a:	693b      	ldr	r3, [r7, #16]
2000280c:	4313      	orrs	r3, r2
2000280e:	61bb      	str	r3, [r7, #24]
20002810:	4a23      	ldr	r2, [pc, #140]	; (200028a0 <HAL_GPIO_Init+0x300>)
20002812:	69bb      	ldr	r3, [r7, #24]
20002814:	6053      	str	r3, [r2, #4]
20002816:	4b22      	ldr	r3, [pc, #136]	; (200028a0 <HAL_GPIO_Init+0x300>)
20002818:	689b      	ldr	r3, [r3, #8]
2000281a:	61bb      	str	r3, [r7, #24]
2000281c:	693b      	ldr	r3, [r7, #16]
2000281e:	43db      	mvns	r3, r3
20002820:	69ba      	ldr	r2, [r7, #24]
20002822:	4013      	ands	r3, r2
20002824:	61bb      	str	r3, [r7, #24]
20002826:	683b      	ldr	r3, [r7, #0]
20002828:	685b      	ldr	r3, [r3, #4]
2000282a:	f403 1380 	and.w	r3, r3, #1048576	; 0x100000
2000282e:	2b00      	cmp	r3, #0
20002830:	d003      	beq.n	2000283a <HAL_GPIO_Init+0x29a>
20002832:	69ba      	ldr	r2, [r7, #24]
20002834:	693b      	ldr	r3, [r7, #16]
20002836:	4313      	orrs	r3, r2
20002838:	61bb      	str	r3, [r7, #24]
2000283a:	4a19      	ldr	r2, [pc, #100]	; (200028a0 <HAL_GPIO_Init+0x300>)
2000283c:	69bb      	ldr	r3, [r7, #24]
2000283e:	6093      	str	r3, [r2, #8]
20002840:	4b17      	ldr	r3, [pc, #92]	; (200028a0 <HAL_GPIO_Init+0x300>)
20002842:	68db      	ldr	r3, [r3, #12]
20002844:	61bb      	str	r3, [r7, #24]
20002846:	693b      	ldr	r3, [r7, #16]
20002848:	43db      	mvns	r3, r3
2000284a:	69ba      	ldr	r2, [r7, #24]
2000284c:	4013      	ands	r3, r2
2000284e:	61bb      	str	r3, [r7, #24]
20002850:	683b      	ldr	r3, [r7, #0]
20002852:	685b      	ldr	r3, [r3, #4]
20002854:	f403 1300 	and.w	r3, r3, #2097152	; 0x200000
20002858:	2b00      	cmp	r3, #0
2000285a:	d003      	beq.n	20002864 <HAL_GPIO_Init+0x2c4>
2000285c:	69ba      	ldr	r2, [r7, #24]
2000285e:	693b      	ldr	r3, [r7, #16]
20002860:	4313      	orrs	r3, r2
20002862:	61bb      	str	r3, [r7, #24]
20002864:	4a0e      	ldr	r2, [pc, #56]	; (200028a0 <HAL_GPIO_Init+0x300>)
20002866:	69bb      	ldr	r3, [r7, #24]
20002868:	60d3      	str	r3, [r2, #12]
2000286a:	69fb      	ldr	r3, [r7, #28]
2000286c:	3301      	adds	r3, #1
2000286e:	61fb      	str	r3, [r7, #28]
20002870:	69fb      	ldr	r3, [r7, #28]
20002872:	2b0f      	cmp	r3, #15
20002874:	f67f aea2 	bls.w	200025bc <HAL_GPIO_Init+0x1c>
20002878:	bf00      	nop
2000287a:	bf00      	nop
2000287c:	3724      	adds	r7, #36	; 0x24
2000287e:	46bd      	mov	sp, r7
20002880:	bc80      	pop	{r7}
20002882:	4770      	bx	lr
20002884:	40023800 	.word	0x40023800
20002888:	40013800 	.word	0x40013800
2000288c:	40020000 	.word	0x40020000
20002890:	40020400 	.word	0x40020400
20002894:	40020800 	.word	0x40020800
20002898:	40020c00 	.word	0x40020c00
2000289c:	40021000 	.word	0x40021000
200028a0:	40013c00 	.word	0x40013c00

200028a4 <HAL_GPIO_DeInit>:
200028a4:	b480      	push	{r7}
200028a6:	b087      	sub	sp, #28
200028a8:	af00      	add	r7, sp, #0
200028aa:	6078      	str	r0, [r7, #4]
200028ac:	6039      	str	r1, [r7, #0]
200028ae:	2300      	movs	r3, #0
200028b0:	613b      	str	r3, [r7, #16]
200028b2:	2300      	movs	r3, #0
200028b4:	60fb      	str	r3, [r7, #12]
200028b6:	2300      	movs	r3, #0
200028b8:	60bb      	str	r3, [r7, #8]
200028ba:	2300      	movs	r3, #0
200028bc:	617b      	str	r3, [r7, #20]
200028be:	e0bb      	b.n	20002a38 <HAL_GPIO_DeInit+0x194>
200028c0:	2201      	movs	r2, #1
200028c2:	697b      	ldr	r3, [r7, #20]
200028c4:	fa02 f303 	lsl.w	r3, r2, r3
200028c8:	613b      	str	r3, [r7, #16]
200028ca:	683a      	ldr	r2, [r7, #0]
200028cc:	693b      	ldr	r3, [r7, #16]
200028ce:	4013      	ands	r3, r2
200028d0:	60fb      	str	r3, [r7, #12]
200028d2:	68fa      	ldr	r2, [r7, #12]
200028d4:	693b      	ldr	r3, [r7, #16]
200028d6:	429a      	cmp	r2, r3
200028d8:	f040 80ab 	bne.w	20002a32 <HAL_GPIO_DeInit+0x18e>
200028dc:	4a5b      	ldr	r2, [pc, #364]	; (20002a4c <HAL_GPIO_DeInit+0x1a8>)
200028de:	697b      	ldr	r3, [r7, #20]
200028e0:	089b      	lsrs	r3, r3, #2
200028e2:	3302      	adds	r3, #2
200028e4:	f852 3023 	ldr.w	r3, [r2, r3, lsl #2]
200028e8:	60bb      	str	r3, [r7, #8]
200028ea:	697b      	ldr	r3, [r7, #20]
200028ec:	f003 0303 	and.w	r3, r3, #3
200028f0:	009b      	lsls	r3, r3, #2
200028f2:	220f      	movs	r2, #15
200028f4:	fa02 f303 	lsl.w	r3, r2, r3
200028f8:	68ba      	ldr	r2, [r7, #8]
200028fa:	4013      	ands	r3, r2
200028fc:	60bb      	str	r3, [r7, #8]
200028fe:	687b      	ldr	r3, [r7, #4]
20002900:	4a53      	ldr	r2, [pc, #332]	; (20002a50 <HAL_GPIO_DeInit+0x1ac>)
20002902:	4293      	cmp	r3, r2
20002904:	d019      	beq.n	2000293a <HAL_GPIO_DeInit+0x96>
20002906:	687b      	ldr	r3, [r7, #4]
20002908:	4a52      	ldr	r2, [pc, #328]	; (20002a54 <HAL_GPIO_DeInit+0x1b0>)
2000290a:	4293      	cmp	r3, r2
2000290c:	d013      	beq.n	20002936 <HAL_GPIO_DeInit+0x92>
2000290e:	687b      	ldr	r3, [r7, #4]
20002910:	4a51      	ldr	r2, [pc, #324]	; (20002a58 <HAL_GPIO_DeInit+0x1b4>)
20002912:	4293      	cmp	r3, r2
20002914:	d00d      	beq.n	20002932 <HAL_GPIO_DeInit+0x8e>
20002916:	687b      	ldr	r3, [r7, #4]
20002918:	4a50      	ldr	r2, [pc, #320]	; (20002a5c <HAL_GPIO_DeInit+0x1b8>)
2000291a:	4293      	cmp	r3, r2
2000291c:	d007      	beq.n	2000292e <HAL_GPIO_DeInit+0x8a>
2000291e:	687b      	ldr	r3, [r7, #4]
20002920:	4a4f      	ldr	r2, [pc, #316]	; (20002a60 <HAL_GPIO_DeInit+0x1bc>)
20002922:	4293      	cmp	r3, r2
20002924:	d101      	bne.n	2000292a <HAL_GPIO_DeInit+0x86>
20002926:	2304      	movs	r3, #4
20002928:	e008      	b.n	2000293c <HAL_GPIO_DeInit+0x98>
2000292a:	2307      	movs	r3, #7
2000292c:	e006      	b.n	2000293c <HAL_GPIO_DeInit+0x98>
2000292e:	2303      	movs	r3, #3
20002930:	e004      	b.n	2000293c <HAL_GPIO_DeInit+0x98>
20002932:	2302      	movs	r3, #2
20002934:	e002      	b.n	2000293c <HAL_GPIO_DeInit+0x98>
20002936:	2301      	movs	r3, #1
20002938:	e000      	b.n	2000293c <HAL_GPIO_DeInit+0x98>
2000293a:	2300      	movs	r3, #0
2000293c:	697a      	ldr	r2, [r7, #20]
2000293e:	f002 0203 	and.w	r2, r2, #3
20002942:	0092      	lsls	r2, r2, #2
20002944:	4093      	lsls	r3, r2
20002946:	68ba      	ldr	r2, [r7, #8]
20002948:	429a      	cmp	r2, r3
2000294a:	d132      	bne.n	200029b2 <HAL_GPIO_DeInit+0x10e>
2000294c:	4b45      	ldr	r3, [pc, #276]	; (20002a64 <HAL_GPIO_DeInit+0x1c0>)
2000294e:	681a      	ldr	r2, [r3, #0]
20002950:	68fb      	ldr	r3, [r7, #12]
20002952:	43db      	mvns	r3, r3
20002954:	4943      	ldr	r1, [pc, #268]	; (20002a64 <HAL_GPIO_DeInit+0x1c0>)
20002956:	4013      	ands	r3, r2
20002958:	600b      	str	r3, [r1, #0]
2000295a:	4b42      	ldr	r3, [pc, #264]	; (20002a64 <HAL_GPIO_DeInit+0x1c0>)
2000295c:	685a      	ldr	r2, [r3, #4]
2000295e:	68fb      	ldr	r3, [r7, #12]
20002960:	43db      	mvns	r3, r3
20002962:	4940      	ldr	r1, [pc, #256]	; (20002a64 <HAL_GPIO_DeInit+0x1c0>)
20002964:	4013      	ands	r3, r2
20002966:	604b      	str	r3, [r1, #4]
20002968:	4b3e      	ldr	r3, [pc, #248]	; (20002a64 <HAL_GPIO_DeInit+0x1c0>)
2000296a:	689a      	ldr	r2, [r3, #8]
2000296c:	68fb      	ldr	r3, [r7, #12]
2000296e:	43db      	mvns	r3, r3
20002970:	493c      	ldr	r1, [pc, #240]	; (20002a64 <HAL_GPIO_DeInit+0x1c0>)
20002972:	4013      	ands	r3, r2
20002974:	608b      	str	r3, [r1, #8]
20002976:	4b3b      	ldr	r3, [pc, #236]	; (20002a64 <HAL_GPIO_DeInit+0x1c0>)
20002978:	68da      	ldr	r2, [r3, #12]
2000297a:	68fb      	ldr	r3, [r7, #12]
2000297c:	43db      	mvns	r3, r3
2000297e:	4939      	ldr	r1, [pc, #228]	; (20002a64 <HAL_GPIO_DeInit+0x1c0>)
20002980:	4013      	ands	r3, r2
20002982:	60cb      	str	r3, [r1, #12]
20002984:	697b      	ldr	r3, [r7, #20]
20002986:	f003 0303 	and.w	r3, r3, #3
2000298a:	009b      	lsls	r3, r3, #2
2000298c:	220f      	movs	r2, #15
2000298e:	fa02 f303 	lsl.w	r3, r2, r3
20002992:	60bb      	str	r3, [r7, #8]
20002994:	4a2d      	ldr	r2, [pc, #180]	; (20002a4c <HAL_GPIO_DeInit+0x1a8>)
20002996:	697b      	ldr	r3, [r7, #20]
20002998:	089b      	lsrs	r3, r3, #2
2000299a:	3302      	adds	r3, #2
2000299c:	f852 1023 	ldr.w	r1, [r2, r3, lsl #2]
200029a0:	68bb      	ldr	r3, [r7, #8]
200029a2:	43da      	mvns	r2, r3
200029a4:	4829      	ldr	r0, [pc, #164]	; (20002a4c <HAL_GPIO_DeInit+0x1a8>)
200029a6:	697b      	ldr	r3, [r7, #20]
200029a8:	089b      	lsrs	r3, r3, #2
200029aa:	400a      	ands	r2, r1
200029ac:	3302      	adds	r3, #2
200029ae:	f840 2023 	str.w	r2, [r0, r3, lsl #2]
200029b2:	687b      	ldr	r3, [r7, #4]
200029b4:	681a      	ldr	r2, [r3, #0]
200029b6:	697b      	ldr	r3, [r7, #20]
200029b8:	005b      	lsls	r3, r3, #1
200029ba:	2103      	movs	r1, #3
200029bc:	fa01 f303 	lsl.w	r3, r1, r3
200029c0:	43db      	mvns	r3, r3
200029c2:	401a      	ands	r2, r3
200029c4:	687b      	ldr	r3, [r7, #4]
200029c6:	601a      	str	r2, [r3, #0]
200029c8:	697b      	ldr	r3, [r7, #20]
200029ca:	08da      	lsrs	r2, r3, #3
200029cc:	687b      	ldr	r3, [r7, #4]
200029ce:	3208      	adds	r2, #8
200029d0:	f853 1022 	ldr.w	r1, [r3, r2, lsl #2]
200029d4:	697b      	ldr	r3, [r7, #20]
200029d6:	f003 0307 	and.w	r3, r3, #7
200029da:	009b      	lsls	r3, r3, #2
200029dc:	220f      	movs	r2, #15
200029de:	fa02 f303 	lsl.w	r3, r2, r3
200029e2:	43db      	mvns	r3, r3
200029e4:	697a      	ldr	r2, [r7, #20]
200029e6:	08d2      	lsrs	r2, r2, #3
200029e8:	4019      	ands	r1, r3
200029ea:	687b      	ldr	r3, [r7, #4]
200029ec:	3208      	adds	r2, #8
200029ee:	f843 1022 	str.w	r1, [r3, r2, lsl #2]
200029f2:	687b      	ldr	r3, [r7, #4]
200029f4:	68da      	ldr	r2, [r3, #12]
200029f6:	697b      	ldr	r3, [r7, #20]
200029f8:	005b      	lsls	r3, r3, #1
200029fa:	2103      	movs	r1, #3
200029fc:	fa01 f303 	lsl.w	r3, r1, r3
20002a00:	43db      	mvns	r3, r3
20002a02:	401a      	ands	r2, r3
20002a04:	687b      	ldr	r3, [r7, #4]
20002a06:	60da      	str	r2, [r3, #12]
20002a08:	687b      	ldr	r3, [r7, #4]
20002a0a:	685a      	ldr	r2, [r3, #4]
20002a0c:	2101      	movs	r1, #1
20002a0e:	697b      	ldr	r3, [r7, #20]
20002a10:	fa01 f303 	lsl.w	r3, r1, r3
20002a14:	43db      	mvns	r3, r3
20002a16:	401a      	ands	r2, r3
20002a18:	687b      	ldr	r3, [r7, #4]
20002a1a:	605a      	str	r2, [r3, #4]
20002a1c:	687b      	ldr	r3, [r7, #4]
20002a1e:	689a      	ldr	r2, [r3, #8]
20002a20:	697b      	ldr	r3, [r7, #20]
20002a22:	005b      	lsls	r3, r3, #1
20002a24:	2103      	movs	r1, #3
20002a26:	fa01 f303 	lsl.w	r3, r1, r3
20002a2a:	43db      	mvns	r3, r3
20002a2c:	401a      	ands	r2, r3
20002a2e:	687b      	ldr	r3, [r7, #4]
20002a30:	609a      	str	r2, [r3, #8]
20002a32:	697b      	ldr	r3, [r7, #20]
20002a34:	3301      	adds	r3, #1
20002a36:	617b      	str	r3, [r7, #20]
20002a38:	697b      	ldr	r3, [r7, #20]
20002a3a:	2b0f      	cmp	r3, #15
20002a3c:	f67f af40 	bls.w	200028c0 <HAL_GPIO_DeInit+0x1c>
20002a40:	bf00      	nop
20002a42:	bf00      	nop
20002a44:	371c      	adds	r7, #28
20002a46:	46bd      	mov	sp, r7
20002a48:	bc80      	pop	{r7}
20002a4a:	4770      	bx	lr
20002a4c:	40013800 	.word	0x40013800
20002a50:	40020000 	.word	0x40020000
20002a54:	40020400 	.word	0x40020400
20002a58:	40020800 	.word	0x40020800
20002a5c:	40020c00 	.word	0x40020c00
20002a60:	40021000 	.word	0x40021000
20002a64:	40013c00 	.word	0x40013c00

20002a68 <HAL_GPIO_ReadPin>:
20002a68:	b480      	push	{r7}
20002a6a:	b085      	sub	sp, #20
20002a6c:	af00      	add	r7, sp, #0
20002a6e:	6078      	str	r0, [r7, #4]
20002a70:	460b      	mov	r3, r1
20002a72:	807b      	strh	r3, [r7, #2]
20002a74:	687b      	ldr	r3, [r7, #4]
20002a76:	691a      	ldr	r2, [r3, #16]
20002a78:	887b      	ldrh	r3, [r7, #2]
20002a7a:	4013      	ands	r3, r2
20002a7c:	2b00      	cmp	r3, #0
20002a7e:	d002      	beq.n	20002a86 <HAL_GPIO_ReadPin+0x1e>
20002a80:	2301      	movs	r3, #1
20002a82:	73fb      	strb	r3, [r7, #15]
20002a84:	e001      	b.n	20002a8a <HAL_GPIO_ReadPin+0x22>
20002a86:	2300      	movs	r3, #0
20002a88:	73fb      	strb	r3, [r7, #15]
20002a8a:	7bfb      	ldrb	r3, [r7, #15]
20002a8c:	4618      	mov	r0, r3
20002a8e:	3714      	adds	r7, #20
20002a90:	46bd      	mov	sp, r7
20002a92:	bc80      	pop	{r7}
20002a94:	4770      	bx	lr

20002a96 <HAL_GPIO_WritePin>:
20002a96:	b480      	push	{r7}
20002a98:	b083      	sub	sp, #12
20002a9a:	af00      	add	r7, sp, #0
20002a9c:	6078      	str	r0, [r7, #4]
20002a9e:	460b      	mov	r3, r1
20002aa0:	807b      	strh	r3, [r7, #2]
20002aa2:	4613      	mov	r3, r2
20002aa4:	707b      	strb	r3, [r7, #1]
20002aa6:	787b      	ldrb	r3, [r7, #1]
20002aa8:	2b00      	cmp	r3, #0
20002aaa:	d003      	beq.n	20002ab4 <HAL_GPIO_WritePin+0x1e>
20002aac:	887a      	ldrh	r2, [r7, #2]
20002aae:	687b      	ldr	r3, [r7, #4]
20002ab0:	619a      	str	r2, [r3, #24]
20002ab2:	e003      	b.n	20002abc <HAL_GPIO_WritePin+0x26>
20002ab4:	887b      	ldrh	r3, [r7, #2]
20002ab6:	041a      	lsls	r2, r3, #16
20002ab8:	687b      	ldr	r3, [r7, #4]
20002aba:	619a      	str	r2, [r3, #24]
20002abc:	bf00      	nop
20002abe:	370c      	adds	r7, #12
20002ac0:	46bd      	mov	sp, r7
20002ac2:	bc80      	pop	{r7}
20002ac4:	4770      	bx	lr

20002ac6 <HAL_GPIO_TogglePin>:
20002ac6:	b480      	push	{r7}
20002ac8:	b085      	sub	sp, #20
20002aca:	af00      	add	r7, sp, #0
20002acc:	6078      	str	r0, [r7, #4]
20002ace:	460b      	mov	r3, r1
20002ad0:	807b      	strh	r3, [r7, #2]
20002ad2:	687b      	ldr	r3, [r7, #4]
20002ad4:	695b      	ldr	r3, [r3, #20]
20002ad6:	60fb      	str	r3, [r7, #12]
20002ad8:	887a      	ldrh	r2, [r7, #2]
20002ada:	68fb      	ldr	r3, [r7, #12]
20002adc:	4013      	ands	r3, r2
20002ade:	041a      	lsls	r2, r3, #16
20002ae0:	68fb      	ldr	r3, [r7, #12]
20002ae2:	43d9      	mvns	r1, r3
20002ae4:	887b      	ldrh	r3, [r7, #2]
20002ae6:	400b      	ands	r3, r1
20002ae8:	431a      	orrs	r2, r3
20002aea:	687b      	ldr	r3, [r7, #4]
20002aec:	619a      	str	r2, [r3, #24]
20002aee:	bf00      	nop
20002af0:	3714      	adds	r7, #20
20002af2:	46bd      	mov	sp, r7
20002af4:	bc80      	pop	{r7}
20002af6:	4770      	bx	lr

20002af8 <HAL_GPIO_LockPin>:
20002af8:	b480      	push	{r7}
20002afa:	b085      	sub	sp, #20
20002afc:	af00      	add	r7, sp, #0
20002afe:	6078      	str	r0, [r7, #4]
20002b00:	460b      	mov	r3, r1
20002b02:	807b      	strh	r3, [r7, #2]
20002b04:	f44f 3380 	mov.w	r3, #65536	; 0x10000
20002b08:	60fb      	str	r3, [r7, #12]
20002b0a:	887a      	ldrh	r2, [r7, #2]
20002b0c:	68fb      	ldr	r3, [r7, #12]
20002b0e:	4313      	orrs	r3, r2
20002b10:	60fb      	str	r3, [r7, #12]
20002b12:	68fa      	ldr	r2, [r7, #12]
20002b14:	687b      	ldr	r3, [r7, #4]
20002b16:	61da      	str	r2, [r3, #28]
20002b18:	887a      	ldrh	r2, [r7, #2]
20002b1a:	687b      	ldr	r3, [r7, #4]
20002b1c:	61da      	str	r2, [r3, #28]
20002b1e:	68fa      	ldr	r2, [r7, #12]
20002b20:	687b      	ldr	r3, [r7, #4]
20002b22:	61da      	str	r2, [r3, #28]
20002b24:	687b      	ldr	r3, [r7, #4]
20002b26:	69db      	ldr	r3, [r3, #28]
20002b28:	60fb      	str	r3, [r7, #12]
20002b2a:	687b      	ldr	r3, [r7, #4]
20002b2c:	69db      	ldr	r3, [r3, #28]
20002b2e:	f403 3380 	and.w	r3, r3, #65536	; 0x10000
20002b32:	2b00      	cmp	r3, #0
20002b34:	d001      	beq.n	20002b3a <HAL_GPIO_LockPin+0x42>
20002b36:	2300      	movs	r3, #0
20002b38:	e000      	b.n	20002b3c <HAL_GPIO_LockPin+0x44>
20002b3a:	2301      	movs	r3, #1
20002b3c:	4618      	mov	r0, r3
20002b3e:	3714      	adds	r7, #20
20002b40:	46bd      	mov	sp, r7
20002b42:	bc80      	pop	{r7}
20002b44:	4770      	bx	lr

20002b46 <HAL_GPIO_EXTI_IRQHandler>:
20002b46:	b580      	push	{r7, lr}
20002b48:	b082      	sub	sp, #8
20002b4a:	af00      	add	r7, sp, #0
20002b4c:	4603      	mov	r3, r0
20002b4e:	80fb      	strh	r3, [r7, #6]
20002b50:	4b08      	ldr	r3, [pc, #32]	; (20002b74 <HAL_GPIO_EXTI_IRQHandler+0x2e>)
20002b52:	695a      	ldr	r2, [r3, #20]
20002b54:	88fb      	ldrh	r3, [r7, #6]
20002b56:	4013      	ands	r3, r2
20002b58:	2b00      	cmp	r3, #0
20002b5a:	d006      	beq.n	20002b6a <HAL_GPIO_EXTI_IRQHandler+0x24>
20002b5c:	4a05      	ldr	r2, [pc, #20]	; (20002b74 <HAL_GPIO_EXTI_IRQHandler+0x2e>)
20002b5e:	88fb      	ldrh	r3, [r7, #6]
20002b60:	6153      	str	r3, [r2, #20]
20002b62:	88fb      	ldrh	r3, [r7, #6]
20002b64:	4618      	mov	r0, r3
20002b66:	f000 f807 	bl	20002b78 <HAL_GPIO_EXTI_Callback>
20002b6a:	bf00      	nop
20002b6c:	3708      	adds	r7, #8
20002b6e:	46bd      	mov	sp, r7
20002b70:	bd80      	pop	{r7, pc}
20002b72:	bf00      	nop
20002b74:	40013c00 	.word	0x40013c00

20002b78 <HAL_GPIO_EXTI_Callback>:
20002b78:	b480      	push	{r7}
20002b7a:	b083      	sub	sp, #12
20002b7c:	af00      	add	r7, sp, #0
20002b7e:	4603      	mov	r3, r0
20002b80:	80fb      	strh	r3, [r7, #6]
20002b82:	bf00      	nop
20002b84:	370c      	adds	r7, #12
20002b86:	46bd      	mov	sp, r7
20002b88:	bc80      	pop	{r7}
20002b8a:	4770      	bx	lr
20002b8c:	b480      	push	{r7}
20002b8e:	af00      	add	r7, sp, #0
20002b90:	2300      	movs	r3, #0
20002b92:	4618      	mov	r0, r3
20002b94:	46bd      	mov	sp, r7
20002b96:	bc80      	pop	{r7}
20002b98:	4770      	bx	lr

20002b9a <HAL_RCC_OscConfig>:
20002b9a:	b580      	push	{r7, lr}
20002b9c:	b086      	sub	sp, #24
20002b9e:	af00      	add	r7, sp, #0
20002ba0:	6078      	str	r0, [r7, #4]
20002ba2:	687b      	ldr	r3, [r7, #4]
20002ba4:	2b00      	cmp	r3, #0
20002ba6:	d101      	bne.n	20002bac <HAL_RCC_OscConfig+0x12>
20002ba8:	2301      	movs	r3, #1
20002baa:	e263      	b.n	20003074 <HAL_RCC_OscConfig+0x4da>
20002bac:	687b      	ldr	r3, [r7, #4]
20002bae:	681b      	ldr	r3, [r3, #0]
20002bb0:	f003 0301 	and.w	r3, r3, #1
20002bb4:	2b00      	cmp	r3, #0
20002bb6:	d075      	beq.n	20002ca4 <HAL_RCC_OscConfig+0x10a>
20002bb8:	4ba2      	ldr	r3, [pc, #648]	; (20002e44 <HAL_RCC_OscConfig+0x2aa>)
20002bba:	689b      	ldr	r3, [r3, #8]
20002bbc:	f003 030c 	and.w	r3, r3, #12
20002bc0:	2b04      	cmp	r3, #4
20002bc2:	d00c      	beq.n	20002bde <HAL_RCC_OscConfig+0x44>
20002bc4:	4b9f      	ldr	r3, [pc, #636]	; (20002e44 <HAL_RCC_OscConfig+0x2aa>)
20002bc6:	689b      	ldr	r3, [r3, #8]
20002bc8:	f003 030c 	and.w	r3, r3, #12
20002bcc:	2b08      	cmp	r3, #8
20002bce:	d112      	bne.n	20002bf6 <HAL_RCC_OscConfig+0x5c>
20002bd0:	4b9c      	ldr	r3, [pc, #624]	; (20002e44 <HAL_RCC_OscConfig+0x2aa>)
20002bd2:	685b      	ldr	r3, [r3, #4]
20002bd4:	f403 0380 	and.w	r3, r3, #4194304	; 0x400000
20002bd8:	f5b3 0f80 	cmp.w	r3, #4194304	; 0x400000
20002bdc:	d10b      	bne.n	20002bf6 <HAL_RCC_OscConfig+0x5c>
20002bde:	4b99      	ldr	r3, [pc, #612]	; (20002e44 <HAL_RCC_OscConfig+0x2aa>)
20002be0:	681b      	ldr	r3, [r3, #0]
20002be2:	f403 3300 	and.w	r3, r3, #131072	; 0x20000
20002be6:	2b00      	cmp	r3, #0
20002be8:	d05b      	beq.n	20002ca2 <HAL_RCC_OscConfig+0x108>
20002bea:	687b      	ldr	r3, [r7, #4]
20002bec:	685b      	ldr	r3, [r3, #4]
20002bee:	2b00      	cmp	r3, #0
20002bf0:	d157      	bne.n	20002ca2 <HAL_RCC_OscConfig+0x108>
20002bf2:	2301      	movs	r3, #1
20002bf4:	e23e      	b.n	20003074 <HAL_RCC_OscConfig+0x4da>
20002bf6:	687b      	ldr	r3, [r7, #4]
20002bf8:	685b      	ldr	r3, [r3, #4]
20002bfa:	f5b3 3f80 	cmp.w	r3, #65536	; 0x10000
20002bfe:	d106      	bne.n	20002c0e <HAL_RCC_OscConfig+0x74>
20002c00:	4b90      	ldr	r3, [pc, #576]	; (20002e44 <HAL_RCC_OscConfig+0x2aa>)
20002c02:	681b      	ldr	r3, [r3, #0]
20002c04:	4a8f      	ldr	r2, [pc, #572]	; (20002e44 <HAL_RCC_OscConfig+0x2aa>)
20002c06:	f443 3380 	orr.w	r3, r3, #65536	; 0x10000
20002c0a:	6013      	str	r3, [r2, #0]
20002c0c:	e01d      	b.n	20002c4a <HAL_RCC_OscConfig+0xb0>
20002c0e:	687b      	ldr	r3, [r7, #4]
20002c10:	685b      	ldr	r3, [r3, #4]
20002c12:	f5b3 2fa0 	cmp.w	r3, #327680	; 0x50000
20002c16:	d10c      	bne.n	20002c32 <HAL_RCC_OscConfig+0x98>
20002c18:	4b8a      	ldr	r3, [pc, #552]	; (20002e44 <HAL_RCC_OscConfig+0x2aa>)
20002c1a:	681b      	ldr	r3, [r3, #0]
20002c1c:	4a89      	ldr	r2, [pc, #548]	; (20002e44 <HAL_RCC_OscConfig+0x2aa>)
20002c1e:	f443 2380 	orr.w	r3, r3, #262144	; 0x40000
20002c22:	6013      	str	r3, [r2, #0]
20002c24:	4b87      	ldr	r3, [pc, #540]	; (20002e44 <HAL_RCC_OscConfig+0x2aa>)
20002c26:	681b      	ldr	r3, [r3, #0]
20002c28:	4a86      	ldr	r2, [pc, #536]	; (20002e44 <HAL_RCC_OscConfig+0x2aa>)
20002c2a:	f443 3380 	orr.w	r3, r3, #65536	; 0x10000
20002c2e:	6013      	str	r3, [r2, #0]
20002c30:	e00b      	b.n	20002c4a <HAL_RCC_OscConfig+0xb0>
20002c32:	4b84      	ldr	r3, [pc, #528]	; (20002e44 <HAL_RCC_OscConfig+0x2aa>)
20002c34:	681b      	ldr	r3, [r3, #0]
20002c36:	4a83      	ldr	r2, [pc, #524]	; (20002e44 <HAL_RCC_OscConfig+0x2aa>)
20002c38:	f423 3380 	bic.w	r3, r3, #65536	; 0x10000
20002c3c:	6013      	str	r3, [r2, #0]
20002c3e:	4b81      	ldr	r3, [pc, #516]	; (20002e44 <HAL_RCC_OscConfig+0x2aa>)
20002c40:	681b      	ldr	r3, [r3, #0]
20002c42:	4a80      	ldr	r2, [pc, #512]	; (20002e44 <HAL_RCC_OscConfig+0x2aa>)
20002c44:	f423 2380 	bic.w	r3, r3, #262144	; 0x40000
20002c48:	6013      	str	r3, [r2, #0]
20002c4a:	687b      	ldr	r3, [r7, #4]
20002c4c:	685b      	ldr	r3, [r3, #4]
20002c4e:	2b00      	cmp	r3, #0
20002c50:	d013      	beq.n	20002c7a <HAL_RCC_OscConfig+0xe0>
20002c52:	f7fe fa03 	bl	2000105c <HAL_GetTick>
20002c56:	6138      	str	r0, [r7, #16]
20002c58:	e008      	b.n	20002c6c <HAL_RCC_OscConfig+0xd2>
20002c5a:	f7fe f9ff 	bl	2000105c <HAL_GetTick>
20002c5e:	4602      	mov	r2, r0
20002c60:	693b      	ldr	r3, [r7, #16]
20002c62:	1ad3      	subs	r3, r2, r3
20002c64:	2b64      	cmp	r3, #100	; 0x64
20002c66:	d901      	bls.n	20002c6c <HAL_RCC_OscConfig+0xd2>
20002c68:	2303      	movs	r3, #3
20002c6a:	e203      	b.n	20003074 <HAL_RCC_OscConfig+0x4da>
20002c6c:	4b75      	ldr	r3, [pc, #468]	; (20002e44 <HAL_RCC_OscConfig+0x2aa>)
20002c6e:	681b      	ldr	r3, [r3, #0]
20002c70:	f403 3300 	and.w	r3, r3, #131072	; 0x20000
20002c74:	2b00      	cmp	r3, #0
20002c76:	d0f0      	beq.n	20002c5a <HAL_RCC_OscConfig+0xc0>
20002c78:	e014      	b.n	20002ca4 <HAL_RCC_OscConfig+0x10a>
20002c7a:	f7fe f9ef 	bl	2000105c <HAL_GetTick>
20002c7e:	6138      	str	r0, [r7, #16]
20002c80:	e008      	b.n	20002c94 <HAL_RCC_OscConfig+0xfa>
20002c82:	f7fe f9eb 	bl	2000105c <HAL_GetTick>
20002c86:	4602      	mov	r2, r0
20002c88:	693b      	ldr	r3, [r7, #16]
20002c8a:	1ad3      	subs	r3, r2, r3
20002c8c:	2b64      	cmp	r3, #100	; 0x64
20002c8e:	d901      	bls.n	20002c94 <HAL_RCC_OscConfig+0xfa>
20002c90:	2303      	movs	r3, #3
20002c92:	e1ef      	b.n	20003074 <HAL_RCC_OscConfig+0x4da>
20002c94:	4b6b      	ldr	r3, [pc, #428]	; (20002e44 <HAL_RCC_OscConfig+0x2aa>)
20002c96:	681b      	ldr	r3, [r3, #0]
20002c98:	f403 3300 	and.w	r3, r3, #131072	; 0x20000
20002c9c:	2b00      	cmp	r3, #0
20002c9e:	d1f0      	bne.n	20002c82 <HAL_RCC_OscConfig+0xe8>
20002ca0:	e000      	b.n	20002ca4 <HAL_RCC_OscConfig+0x10a>
20002ca2:	bf00      	nop
20002ca4:	687b      	ldr	r3, [r7, #4]
20002ca6:	681b      	ldr	r3, [r3, #0]
20002ca8:	f003 0302 	and.w	r3, r3, #2
20002cac:	2b00      	cmp	r3, #0
20002cae:	d063      	beq.n	20002d78 <HAL_RCC_OscConfig+0x1de>
20002cb0:	4b64      	ldr	r3, [pc, #400]	; (20002e44 <HAL_RCC_OscConfig+0x2aa>)
20002cb2:	689b      	ldr	r3, [r3, #8]
20002cb4:	f003 030c 	and.w	r3, r3, #12
20002cb8:	2b00      	cmp	r3, #0
20002cba:	d00b      	beq.n	20002cd4 <HAL_RCC_OscConfig+0x13a>
20002cbc:	4b61      	ldr	r3, [pc, #388]	; (20002e44 <HAL_RCC_OscConfig+0x2aa>)
20002cbe:	689b      	ldr	r3, [r3, #8]
20002cc0:	f003 030c 	and.w	r3, r3, #12
20002cc4:	2b08      	cmp	r3, #8
20002cc6:	d11c      	bne.n	20002d02 <HAL_RCC_OscConfig+0x168>
20002cc8:	4b5e      	ldr	r3, [pc, #376]	; (20002e44 <HAL_RCC_OscConfig+0x2aa>)
20002cca:	685b      	ldr	r3, [r3, #4]
20002ccc:	f403 0380 	and.w	r3, r3, #4194304	; 0x400000
20002cd0:	2b00      	cmp	r3, #0
20002cd2:	d116      	bne.n	20002d02 <HAL_RCC_OscConfig+0x168>
20002cd4:	4b5b      	ldr	r3, [pc, #364]	; (20002e44 <HAL_RCC_OscConfig+0x2aa>)
20002cd6:	681b      	ldr	r3, [r3, #0]
20002cd8:	f003 0302 	and.w	r3, r3, #2
20002cdc:	2b00      	cmp	r3, #0
20002cde:	d005      	beq.n	20002cec <HAL_RCC_OscConfig+0x152>
20002ce0:	687b      	ldr	r3, [r7, #4]
20002ce2:	68db      	ldr	r3, [r3, #12]
20002ce4:	2b01      	cmp	r3, #1
20002ce6:	d001      	beq.n	20002cec <HAL_RCC_OscConfig+0x152>
20002ce8:	2301      	movs	r3, #1
20002cea:	e1c3      	b.n	20003074 <HAL_RCC_OscConfig+0x4da>
20002cec:	4b55      	ldr	r3, [pc, #340]	; (20002e44 <HAL_RCC_OscConfig+0x2aa>)
20002cee:	681b      	ldr	r3, [r3, #0]
20002cf0:	f023 02f8 	bic.w	r2, r3, #248	; 0xf8
20002cf4:	687b      	ldr	r3, [r7, #4]
20002cf6:	691b      	ldr	r3, [r3, #16]
20002cf8:	00db      	lsls	r3, r3, #3
20002cfa:	4952      	ldr	r1, [pc, #328]	; (20002e44 <HAL_RCC_OscConfig+0x2aa>)
20002cfc:	4313      	orrs	r3, r2
20002cfe:	600b      	str	r3, [r1, #0]
20002d00:	e03a      	b.n	20002d78 <HAL_RCC_OscConfig+0x1de>
20002d02:	687b      	ldr	r3, [r7, #4]
20002d04:	68db      	ldr	r3, [r3, #12]
20002d06:	2b00      	cmp	r3, #0
20002d08:	d020      	beq.n	20002d4c <HAL_RCC_OscConfig+0x1b2>
20002d0a:	4b4f      	ldr	r3, [pc, #316]	; (20002e48 <HAL_RCC_OscConfig+0x2ae>)
20002d0c:	2201      	movs	r2, #1
20002d0e:	601a      	str	r2, [r3, #0]
20002d10:	f7fe f9a4 	bl	2000105c <HAL_GetTick>
20002d14:	6138      	str	r0, [r7, #16]
20002d16:	e008      	b.n	20002d2a <HAL_RCC_OscConfig+0x190>
20002d18:	f7fe f9a0 	bl	2000105c <HAL_GetTick>
20002d1c:	4602      	mov	r2, r0
20002d1e:	693b      	ldr	r3, [r7, #16]
20002d20:	1ad3      	subs	r3, r2, r3
20002d22:	2b02      	cmp	r3, #2
20002d24:	d901      	bls.n	20002d2a <HAL_RCC_OscConfig+0x190>
20002d26:	2303      	movs	r3, #3
20002d28:	e1a4      	b.n	20003074 <HAL_RCC_OscConfig+0x4da>
20002d2a:	4b46      	ldr	r3, [pc, #280]	; (20002e44 <HAL_RCC_OscConfig+0x2aa>)
20002d2c:	681b      	ldr	r3, [r3, #0]
20002d2e:	f003 0302 	and.w	r3, r3, #2
20002d32:	2b00      	cmp	r3, #0
20002d34:	d0f0      	beq.n	20002d18 <HAL_RCC_OscConfig+0x17e>
20002d36:	4b43      	ldr	r3, [pc, #268]	; (20002e44 <HAL_RCC_OscConfig+0x2aa>)
20002d38:	681b      	ldr	r3, [r3, #0]
20002d3a:	f023 02f8 	bic.w	r2, r3, #248	; 0xf8
20002d3e:	687b      	ldr	r3, [r7, #4]
20002d40:	691b      	ldr	r3, [r3, #16]
20002d42:	00db      	lsls	r3, r3, #3
20002d44:	493f      	ldr	r1, [pc, #252]	; (20002e44 <HAL_RCC_OscConfig+0x2aa>)
20002d46:	4313      	orrs	r3, r2
20002d48:	600b      	str	r3, [r1, #0]
20002d4a:	e015      	b.n	20002d78 <HAL_RCC_OscConfig+0x1de>
20002d4c:	4b3e      	ldr	r3, [pc, #248]	; (20002e48 <HAL_RCC_OscConfig+0x2ae>)
20002d4e:	2200      	movs	r2, #0
20002d50:	601a      	str	r2, [r3, #0]
20002d52:	f7fe f983 	bl	2000105c <HAL_GetTick>
20002d56:	6138      	str	r0, [r7, #16]
20002d58:	e008      	b.n	20002d6c <HAL_RCC_OscConfig+0x1d2>
20002d5a:	f7fe f97f 	bl	2000105c <HAL_GetTick>
20002d5e:	4602      	mov	r2, r0
20002d60:	693b      	ldr	r3, [r7, #16]
20002d62:	1ad3      	subs	r3, r2, r3
20002d64:	2b02      	cmp	r3, #2
20002d66:	d901      	bls.n	20002d6c <HAL_RCC_OscConfig+0x1d2>
20002d68:	2303      	movs	r3, #3
20002d6a:	e183      	b.n	20003074 <HAL_RCC_OscConfig+0x4da>
20002d6c:	4b35      	ldr	r3, [pc, #212]	; (20002e44 <HAL_RCC_OscConfig+0x2aa>)
20002d6e:	681b      	ldr	r3, [r3, #0]
20002d70:	f003 0302 	and.w	r3, r3, #2
20002d74:	2b00      	cmp	r3, #0
20002d76:	d1f0      	bne.n	20002d5a <HAL_RCC_OscConfig+0x1c0>
20002d78:	687b      	ldr	r3, [r7, #4]
20002d7a:	681b      	ldr	r3, [r3, #0]
20002d7c:	f003 0308 	and.w	r3, r3, #8
20002d80:	2b00      	cmp	r3, #0
20002d82:	d030      	beq.n	20002de6 <HAL_RCC_OscConfig+0x24c>
20002d84:	687b      	ldr	r3, [r7, #4]
20002d86:	695b      	ldr	r3, [r3, #20]
20002d88:	2b00      	cmp	r3, #0
20002d8a:	d016      	beq.n	20002dba <HAL_RCC_OscConfig+0x220>
20002d8c:	4b2f      	ldr	r3, [pc, #188]	; (20002e4c <HAL_RCC_OscConfig+0x2b2>)
20002d8e:	2201      	movs	r2, #1
20002d90:	601a      	str	r2, [r3, #0]
20002d92:	f7fe f963 	bl	2000105c <HAL_GetTick>
20002d96:	6138      	str	r0, [r7, #16]
20002d98:	e008      	b.n	20002dac <HAL_RCC_OscConfig+0x212>
20002d9a:	f7fe f95f 	bl	2000105c <HAL_GetTick>
20002d9e:	4602      	mov	r2, r0
20002da0:	693b      	ldr	r3, [r7, #16]
20002da2:	1ad3      	subs	r3, r2, r3
20002da4:	2b02      	cmp	r3, #2
20002da6:	d901      	bls.n	20002dac <HAL_RCC_OscConfig+0x212>
20002da8:	2303      	movs	r3, #3
20002daa:	e163      	b.n	20003074 <HAL_RCC_OscConfig+0x4da>
20002dac:	4b25      	ldr	r3, [pc, #148]	; (20002e44 <HAL_RCC_OscConfig+0x2aa>)
20002dae:	6f5b      	ldr	r3, [r3, #116]	; 0x74
20002db0:	f003 0302 	and.w	r3, r3, #2
20002db4:	2b00      	cmp	r3, #0
20002db6:	d0f0      	beq.n	20002d9a <HAL_RCC_OscConfig+0x200>
20002db8:	e015      	b.n	20002de6 <HAL_RCC_OscConfig+0x24c>
20002dba:	4b24      	ldr	r3, [pc, #144]	; (20002e4c <HAL_RCC_OscConfig+0x2b2>)
20002dbc:	2200      	movs	r2, #0
20002dbe:	601a      	str	r2, [r3, #0]
20002dc0:	f7fe f94c 	bl	2000105c <HAL_GetTick>
20002dc4:	6138      	str	r0, [r7, #16]
20002dc6:	e008      	b.n	20002dda <HAL_RCC_OscConfig+0x240>
20002dc8:	f7fe f948 	bl	2000105c <HAL_GetTick>
20002dcc:	4602      	mov	r2, r0
20002dce:	693b      	ldr	r3, [r7, #16]
20002dd0:	1ad3      	subs	r3, r2, r3
20002dd2:	2b02      	cmp	r3, #2
20002dd4:	d901      	bls.n	20002dda <HAL_RCC_OscConfig+0x240>
20002dd6:	2303      	movs	r3, #3
20002dd8:	e14c      	b.n	20003074 <HAL_RCC_OscConfig+0x4da>
20002dda:	4b1a      	ldr	r3, [pc, #104]	; (20002e44 <HAL_RCC_OscConfig+0x2aa>)
20002ddc:	6f5b      	ldr	r3, [r3, #116]	; 0x74
20002dde:	f003 0302 	and.w	r3, r3, #2
20002de2:	2b00      	cmp	r3, #0
20002de4:	d1f0      	bne.n	20002dc8 <HAL_RCC_OscConfig+0x22e>
20002de6:	687b      	ldr	r3, [r7, #4]
20002de8:	681b      	ldr	r3, [r3, #0]
20002dea:	f003 0304 	and.w	r3, r3, #4
20002dee:	2b00      	cmp	r3, #0
20002df0:	f000 809f 	beq.w	20002f32 <HAL_RCC_OscConfig+0x398>
20002df4:	2300      	movs	r3, #0
20002df6:	75fb      	strb	r3, [r7, #23]
20002df8:	4b12      	ldr	r3, [pc, #72]	; (20002e44 <HAL_RCC_OscConfig+0x2aa>)
20002dfa:	6c1b      	ldr	r3, [r3, #64]	; 0x40
20002dfc:	f003 5380 	and.w	r3, r3, #268435456	; 0x10000000
20002e00:	2b00      	cmp	r3, #0
20002e02:	d10f      	bne.n	20002e24 <HAL_RCC_OscConfig+0x28a>
20002e04:	2300      	movs	r3, #0
20002e06:	60bb      	str	r3, [r7, #8]
20002e08:	4b0e      	ldr	r3, [pc, #56]	; (20002e44 <HAL_RCC_OscConfig+0x2aa>)
20002e0a:	6c1b      	ldr	r3, [r3, #64]	; 0x40
20002e0c:	4a0d      	ldr	r2, [pc, #52]	; (20002e44 <HAL_RCC_OscConfig+0x2aa>)
20002e0e:	f043 5380 	orr.w	r3, r3, #268435456	; 0x10000000
20002e12:	6413      	str	r3, [r2, #64]	; 0x40
20002e14:	4b0b      	ldr	r3, [pc, #44]	; (20002e44 <HAL_RCC_OscConfig+0x2aa>)
20002e16:	6c1b      	ldr	r3, [r3, #64]	; 0x40
20002e18:	f003 5380 	and.w	r3, r3, #268435456	; 0x10000000
20002e1c:	60bb      	str	r3, [r7, #8]
20002e1e:	68bb      	ldr	r3, [r7, #8]
20002e20:	2301      	movs	r3, #1
20002e22:	75fb      	strb	r3, [r7, #23]
20002e24:	4b0a      	ldr	r3, [pc, #40]	; (20002e50 <HAL_RCC_OscConfig+0x2b6>)
20002e26:	681b      	ldr	r3, [r3, #0]
20002e28:	f403 7380 	and.w	r3, r3, #256	; 0x100
20002e2c:	2b00      	cmp	r3, #0
20002e2e:	d120      	bne.n	20002e72 <HAL_RCC_OscConfig+0x2d8>
20002e30:	4b07      	ldr	r3, [pc, #28]	; (20002e50 <HAL_RCC_OscConfig+0x2b6>)
20002e32:	681b      	ldr	r3, [r3, #0]
20002e34:	4a06      	ldr	r2, [pc, #24]	; (20002e50 <HAL_RCC_OscConfig+0x2b6>)
20002e36:	f443 7380 	orr.w	r3, r3, #256	; 0x100
20002e3a:	6013      	str	r3, [r2, #0]
20002e3c:	f7fe f90e 	bl	2000105c <HAL_GetTick>
20002e40:	6138      	str	r0, [r7, #16]
20002e42:	e010      	b.n	20002e66 <HAL_RCC_OscConfig+0x2cc>
20002e44:	40023800 	.word	0x40023800
20002e48:	42470000 	.word	0x42470000
20002e4c:	42470e80 	.word	0x42470e80
20002e50:	40007000 	.word	0x40007000
20002e54:	f7fe f902 	bl	2000105c <HAL_GetTick>
20002e58:	4602      	mov	r2, r0
20002e5a:	693b      	ldr	r3, [r7, #16]
20002e5c:	1ad3      	subs	r3, r2, r3
20002e5e:	2b02      	cmp	r3, #2
20002e60:	d901      	bls.n	20002e66 <HAL_RCC_OscConfig+0x2cc>
20002e62:	2303      	movs	r3, #3
20002e64:	e106      	b.n	20003074 <HAL_RCC_OscConfig+0x4da>
20002e66:	4b85      	ldr	r3, [pc, #532]	; (2000307c <HAL_RCC_OscConfig+0x4e2>)
20002e68:	681b      	ldr	r3, [r3, #0]
20002e6a:	f403 7380 	and.w	r3, r3, #256	; 0x100
20002e6e:	2b00      	cmp	r3, #0
20002e70:	d0f0      	beq.n	20002e54 <HAL_RCC_OscConfig+0x2ba>
20002e72:	687b      	ldr	r3, [r7, #4]
20002e74:	689b      	ldr	r3, [r3, #8]
20002e76:	2b01      	cmp	r3, #1
20002e78:	d106      	bne.n	20002e88 <HAL_RCC_OscConfig+0x2ee>
20002e7a:	4b81      	ldr	r3, [pc, #516]	; (20003080 <HAL_RCC_OscConfig+0x4e6>)
20002e7c:	6f1b      	ldr	r3, [r3, #112]	; 0x70
20002e7e:	4a80      	ldr	r2, [pc, #512]	; (20003080 <HAL_RCC_OscConfig+0x4e6>)
20002e80:	f043 0301 	orr.w	r3, r3, #1
20002e84:	6713      	str	r3, [r2, #112]	; 0x70
20002e86:	e01c      	b.n	20002ec2 <HAL_RCC_OscConfig+0x328>
20002e88:	687b      	ldr	r3, [r7, #4]
20002e8a:	689b      	ldr	r3, [r3, #8]
20002e8c:	2b05      	cmp	r3, #5
20002e8e:	d10c      	bne.n	20002eaa <HAL_RCC_OscConfig+0x310>
20002e90:	4b7b      	ldr	r3, [pc, #492]	; (20003080 <HAL_RCC_OscConfig+0x4e6>)
20002e92:	6f1b      	ldr	r3, [r3, #112]	; 0x70
20002e94:	4a7a      	ldr	r2, [pc, #488]	; (20003080 <HAL_RCC_OscConfig+0x4e6>)
20002e96:	f043 0304 	orr.w	r3, r3, #4
20002e9a:	6713      	str	r3, [r2, #112]	; 0x70
20002e9c:	4b78      	ldr	r3, [pc, #480]	; (20003080 <HAL_RCC_OscConfig+0x4e6>)
20002e9e:	6f1b      	ldr	r3, [r3, #112]	; 0x70
20002ea0:	4a77      	ldr	r2, [pc, #476]	; (20003080 <HAL_RCC_OscConfig+0x4e6>)
20002ea2:	f043 0301 	orr.w	r3, r3, #1
20002ea6:	6713      	str	r3, [r2, #112]	; 0x70
20002ea8:	e00b      	b.n	20002ec2 <HAL_RCC_OscConfig+0x328>
20002eaa:	4b75      	ldr	r3, [pc, #468]	; (20003080 <HAL_RCC_OscConfig+0x4e6>)
20002eac:	6f1b      	ldr	r3, [r3, #112]	; 0x70
20002eae:	4a74      	ldr	r2, [pc, #464]	; (20003080 <HAL_RCC_OscConfig+0x4e6>)
20002eb0:	f023 0301 	bic.w	r3, r3, #1
20002eb4:	6713      	str	r3, [r2, #112]	; 0x70
20002eb6:	4b72      	ldr	r3, [pc, #456]	; (20003080 <HAL_RCC_OscConfig+0x4e6>)
20002eb8:	6f1b      	ldr	r3, [r3, #112]	; 0x70
20002eba:	4a71      	ldr	r2, [pc, #452]	; (20003080 <HAL_RCC_OscConfig+0x4e6>)
20002ebc:	f023 0304 	bic.w	r3, r3, #4
20002ec0:	6713      	str	r3, [r2, #112]	; 0x70
20002ec2:	687b      	ldr	r3, [r7, #4]
20002ec4:	689b      	ldr	r3, [r3, #8]
20002ec6:	2b00      	cmp	r3, #0
20002ec8:	d015      	beq.n	20002ef6 <HAL_RCC_OscConfig+0x35c>
20002eca:	f7fe f8c7 	bl	2000105c <HAL_GetTick>
20002ece:	6138      	str	r0, [r7, #16]
20002ed0:	e00a      	b.n	20002ee8 <HAL_RCC_OscConfig+0x34e>
20002ed2:	f7fe f8c3 	bl	2000105c <HAL_GetTick>
20002ed6:	4602      	mov	r2, r0
20002ed8:	693b      	ldr	r3, [r7, #16]
20002eda:	1ad3      	subs	r3, r2, r3
20002edc:	f241 3288 	movw	r2, #5000	; 0x1388
20002ee0:	4293      	cmp	r3, r2
20002ee2:	d901      	bls.n	20002ee8 <HAL_RCC_OscConfig+0x34e>
20002ee4:	2303      	movs	r3, #3
20002ee6:	e0c5      	b.n	20003074 <HAL_RCC_OscConfig+0x4da>
20002ee8:	4b65      	ldr	r3, [pc, #404]	; (20003080 <HAL_RCC_OscConfig+0x4e6>)
20002eea:	6f1b      	ldr	r3, [r3, #112]	; 0x70
20002eec:	f003 0302 	and.w	r3, r3, #2
20002ef0:	2b00      	cmp	r3, #0
20002ef2:	d0ee      	beq.n	20002ed2 <HAL_RCC_OscConfig+0x338>
20002ef4:	e014      	b.n	20002f20 <HAL_RCC_OscConfig+0x386>
20002ef6:	f7fe f8b1 	bl	2000105c <HAL_GetTick>
20002efa:	6138      	str	r0, [r7, #16]
20002efc:	e00a      	b.n	20002f14 <HAL_RCC_OscConfig+0x37a>
20002efe:	f7fe f8ad 	bl	2000105c <HAL_GetTick>
20002f02:	4602      	mov	r2, r0
20002f04:	693b      	ldr	r3, [r7, #16]
20002f06:	1ad3      	subs	r3, r2, r3
20002f08:	f241 3288 	movw	r2, #5000	; 0x1388
20002f0c:	4293      	cmp	r3, r2
20002f0e:	d901      	bls.n	20002f14 <HAL_RCC_OscConfig+0x37a>
20002f10:	2303      	movs	r3, #3
20002f12:	e0af      	b.n	20003074 <HAL_RCC_OscConfig+0x4da>
20002f14:	4b5a      	ldr	r3, [pc, #360]	; (20003080 <HAL_RCC_OscConfig+0x4e6>)
20002f16:	6f1b      	ldr	r3, [r3, #112]	; 0x70
20002f18:	f003 0302 	and.w	r3, r3, #2
20002f1c:	2b00      	cmp	r3, #0
20002f1e:	d1ee      	bne.n	20002efe <HAL_RCC_OscConfig+0x364>
20002f20:	7dfb      	ldrb	r3, [r7, #23]
20002f22:	2b01      	cmp	r3, #1
20002f24:	d105      	bne.n	20002f32 <HAL_RCC_OscConfig+0x398>
20002f26:	4b56      	ldr	r3, [pc, #344]	; (20003080 <HAL_RCC_OscConfig+0x4e6>)
20002f28:	6c1b      	ldr	r3, [r3, #64]	; 0x40
20002f2a:	4a55      	ldr	r2, [pc, #340]	; (20003080 <HAL_RCC_OscConfig+0x4e6>)
20002f2c:	f023 5380 	bic.w	r3, r3, #268435456	; 0x10000000
20002f30:	6413      	str	r3, [r2, #64]	; 0x40
20002f32:	687b      	ldr	r3, [r7, #4]
20002f34:	699b      	ldr	r3, [r3, #24]
20002f36:	2b00      	cmp	r3, #0
20002f38:	f000 809b 	beq.w	20003072 <HAL_RCC_OscConfig+0x4d8>
20002f3c:	4b50      	ldr	r3, [pc, #320]	; (20003080 <HAL_RCC_OscConfig+0x4e6>)
20002f3e:	689b      	ldr	r3, [r3, #8]
20002f40:	f003 030c 	and.w	r3, r3, #12
20002f44:	2b08      	cmp	r3, #8
20002f46:	d05c      	beq.n	20003002 <HAL_RCC_OscConfig+0x468>
20002f48:	687b      	ldr	r3, [r7, #4]
20002f4a:	699b      	ldr	r3, [r3, #24]
20002f4c:	2b02      	cmp	r3, #2
20002f4e:	d141      	bne.n	20002fd4 <HAL_RCC_OscConfig+0x43a>
20002f50:	4b4c      	ldr	r3, [pc, #304]	; (20003084 <HAL_RCC_OscConfig+0x4ea>)
20002f52:	2200      	movs	r2, #0
20002f54:	601a      	str	r2, [r3, #0]
20002f56:	f7fe f881 	bl	2000105c <HAL_GetTick>
20002f5a:	6138      	str	r0, [r7, #16]
20002f5c:	e008      	b.n	20002f70 <HAL_RCC_OscConfig+0x3d6>
20002f5e:	f7fe f87d 	bl	2000105c <HAL_GetTick>
20002f62:	4602      	mov	r2, r0
20002f64:	693b      	ldr	r3, [r7, #16]
20002f66:	1ad3      	subs	r3, r2, r3
20002f68:	2b02      	cmp	r3, #2
20002f6a:	d901      	bls.n	20002f70 <HAL_RCC_OscConfig+0x3d6>
20002f6c:	2303      	movs	r3, #3
20002f6e:	e081      	b.n	20003074 <HAL_RCC_OscConfig+0x4da>
20002f70:	4b43      	ldr	r3, [pc, #268]	; (20003080 <HAL_RCC_OscConfig+0x4e6>)
20002f72:	681b      	ldr	r3, [r3, #0]
20002f74:	f003 7300 	and.w	r3, r3, #33554432	; 0x2000000
20002f78:	2b00      	cmp	r3, #0
20002f7a:	d1f0      	bne.n	20002f5e <HAL_RCC_OscConfig+0x3c4>
20002f7c:	687b      	ldr	r3, [r7, #4]
20002f7e:	69da      	ldr	r2, [r3, #28]
20002f80:	687b      	ldr	r3, [r7, #4]
20002f82:	6a1b      	ldr	r3, [r3, #32]
20002f84:	431a      	orrs	r2, r3
20002f86:	687b      	ldr	r3, [r7, #4]
20002f88:	6a5b      	ldr	r3, [r3, #36]	; 0x24
20002f8a:	019b      	lsls	r3, r3, #6
20002f8c:	431a      	orrs	r2, r3
20002f8e:	687b      	ldr	r3, [r7, #4]
20002f90:	6a9b      	ldr	r3, [r3, #40]	; 0x28
20002f92:	085b      	lsrs	r3, r3, #1
20002f94:	3b01      	subs	r3, #1
20002f96:	041b      	lsls	r3, r3, #16
20002f98:	431a      	orrs	r2, r3
20002f9a:	687b      	ldr	r3, [r7, #4]
20002f9c:	6adb      	ldr	r3, [r3, #44]	; 0x2c
20002f9e:	061b      	lsls	r3, r3, #24
20002fa0:	4937      	ldr	r1, [pc, #220]	; (20003080 <HAL_RCC_OscConfig+0x4e6>)
20002fa2:	4313      	orrs	r3, r2
20002fa4:	604b      	str	r3, [r1, #4]
20002fa6:	4b37      	ldr	r3, [pc, #220]	; (20003084 <HAL_RCC_OscConfig+0x4ea>)
20002fa8:	2201      	movs	r2, #1
20002faa:	601a      	str	r2, [r3, #0]
20002fac:	f7fe f856 	bl	2000105c <HAL_GetTick>
20002fb0:	6138      	str	r0, [r7, #16]
20002fb2:	e008      	b.n	20002fc6 <HAL_RCC_OscConfig+0x42c>
20002fb4:	f7fe f852 	bl	2000105c <HAL_GetTick>
20002fb8:	4602      	mov	r2, r0
20002fba:	693b      	ldr	r3, [r7, #16]
20002fbc:	1ad3      	subs	r3, r2, r3
20002fbe:	2b02      	cmp	r3, #2
20002fc0:	d901      	bls.n	20002fc6 <HAL_RCC_OscConfig+0x42c>
20002fc2:	2303      	movs	r3, #3
20002fc4:	e056      	b.n	20003074 <HAL_RCC_OscConfig+0x4da>
20002fc6:	4b2e      	ldr	r3, [pc, #184]	; (20003080 <HAL_RCC_OscConfig+0x4e6>)
20002fc8:	681b      	ldr	r3, [r3, #0]
20002fca:	f003 7300 	and.w	r3, r3, #33554432	; 0x2000000
20002fce:	2b00      	cmp	r3, #0
20002fd0:	d0f0      	beq.n	20002fb4 <HAL_RCC_OscConfig+0x41a>
20002fd2:	e04e      	b.n	20003072 <HAL_RCC_OscConfig+0x4d8>
20002fd4:	4b2b      	ldr	r3, [pc, #172]	; (20003084 <HAL_RCC_OscConfig+0x4ea>)
20002fd6:	2200      	movs	r2, #0
20002fd8:	601a      	str	r2, [r3, #0]
20002fda:	f7fe f83f 	bl	2000105c <HAL_GetTick>
20002fde:	6138      	str	r0, [r7, #16]
20002fe0:	e008      	b.n	20002ff4 <HAL_RCC_OscConfig+0x45a>
20002fe2:	f7fe f83b 	bl	2000105c <HAL_GetTick>
20002fe6:	4602      	mov	r2, r0
20002fe8:	693b      	ldr	r3, [r7, #16]
20002fea:	1ad3      	subs	r3, r2, r3
20002fec:	2b02      	cmp	r3, #2
20002fee:	d901      	bls.n	20002ff4 <HAL_RCC_OscConfig+0x45a>
20002ff0:	2303      	movs	r3, #3
20002ff2:	e03f      	b.n	20003074 <HAL_RCC_OscConfig+0x4da>
20002ff4:	4b22      	ldr	r3, [pc, #136]	; (20003080 <HAL_RCC_OscConfig+0x4e6>)
20002ff6:	681b      	ldr	r3, [r3, #0]
20002ff8:	f003 7300 	and.w	r3, r3, #33554432	; 0x2000000
20002ffc:	2b00      	cmp	r3, #0
20002ffe:	d1f0      	bne.n	20002fe2 <HAL_RCC_OscConfig+0x448>
20003000:	e037      	b.n	20003072 <HAL_RCC_OscConfig+0x4d8>
20003002:	687b      	ldr	r3, [r7, #4]
20003004:	699b      	ldr	r3, [r3, #24]
20003006:	2b01      	cmp	r3, #1
20003008:	d101      	bne.n	2000300e <HAL_RCC_OscConfig+0x474>
2000300a:	2301      	movs	r3, #1
2000300c:	e032      	b.n	20003074 <HAL_RCC_OscConfig+0x4da>
2000300e:	4b1c      	ldr	r3, [pc, #112]	; (20003080 <HAL_RCC_OscConfig+0x4e6>)
20003010:	685b      	ldr	r3, [r3, #4]
20003012:	60fb      	str	r3, [r7, #12]
20003014:	687b      	ldr	r3, [r7, #4]
20003016:	699b      	ldr	r3, [r3, #24]
20003018:	2b01      	cmp	r3, #1
2000301a:	d028      	beq.n	2000306e <HAL_RCC_OscConfig+0x4d4>
2000301c:	68fb      	ldr	r3, [r7, #12]
2000301e:	f403 0280 	and.w	r2, r3, #4194304	; 0x400000
20003022:	687b      	ldr	r3, [r7, #4]
20003024:	69db      	ldr	r3, [r3, #28]
20003026:	429a      	cmp	r2, r3
20003028:	d121      	bne.n	2000306e <HAL_RCC_OscConfig+0x4d4>
2000302a:	68fb      	ldr	r3, [r7, #12]
2000302c:	f003 023f 	and.w	r2, r3, #63	; 0x3f
20003030:	687b      	ldr	r3, [r7, #4]
20003032:	6a1b      	ldr	r3, [r3, #32]
20003034:	429a      	cmp	r2, r3
20003036:	d11a      	bne.n	2000306e <HAL_RCC_OscConfig+0x4d4>
20003038:	68fa      	ldr	r2, [r7, #12]
2000303a:	f647 73c0 	movw	r3, #32704	; 0x7fc0
2000303e:	4013      	ands	r3, r2
20003040:	687a      	ldr	r2, [r7, #4]
20003042:	6a52      	ldr	r2, [r2, #36]	; 0x24
20003044:	0192      	lsls	r2, r2, #6
20003046:	4293      	cmp	r3, r2
20003048:	d111      	bne.n	2000306e <HAL_RCC_OscConfig+0x4d4>
2000304a:	68fb      	ldr	r3, [r7, #12]
2000304c:	f403 3240 	and.w	r2, r3, #196608	; 0x30000
20003050:	687b      	ldr	r3, [r7, #4]
20003052:	6a9b      	ldr	r3, [r3, #40]	; 0x28
20003054:	085b      	lsrs	r3, r3, #1
20003056:	3b01      	subs	r3, #1
20003058:	041b      	lsls	r3, r3, #16
2000305a:	429a      	cmp	r2, r3
2000305c:	d107      	bne.n	2000306e <HAL_RCC_OscConfig+0x4d4>
2000305e:	68fb      	ldr	r3, [r7, #12]
20003060:	f003 6270 	and.w	r2, r3, #251658240	; 0xf000000
20003064:	687b      	ldr	r3, [r7, #4]
20003066:	6adb      	ldr	r3, [r3, #44]	; 0x2c
20003068:	061b      	lsls	r3, r3, #24
2000306a:	429a      	cmp	r2, r3
2000306c:	d001      	beq.n	20003072 <HAL_RCC_OscConfig+0x4d8>
2000306e:	2301      	movs	r3, #1
20003070:	e000      	b.n	20003074 <HAL_RCC_OscConfig+0x4da>
20003072:	2300      	movs	r3, #0
20003074:	4618      	mov	r0, r3
20003076:	3718      	adds	r7, #24
20003078:	46bd      	mov	sp, r7
2000307a:	bd80      	pop	{r7, pc}
2000307c:	40007000 	.word	0x40007000
20003080:	40023800 	.word	0x40023800
20003084:	42470060 	.word	0x42470060

20003088 <HAL_RCC_ClockConfig>:
20003088:	b580      	push	{r7, lr}
2000308a:	b084      	sub	sp, #16
2000308c:	af00      	add	r7, sp, #0
2000308e:	6078      	str	r0, [r7, #4]
20003090:	6039      	str	r1, [r7, #0]
20003092:	687b      	ldr	r3, [r7, #4]
20003094:	2b00      	cmp	r3, #0
20003096:	d101      	bne.n	2000309c <HAL_RCC_ClockConfig+0x14>
20003098:	2301      	movs	r3, #1
2000309a:	e0cc      	b.n	20003236 <HAL_RCC_ClockConfig+0x1ae>
2000309c:	4b68      	ldr	r3, [pc, #416]	; (20003240 <HAL_RCC_ClockConfig+0x1b8>)
2000309e:	681b      	ldr	r3, [r3, #0]
200030a0:	f003 0307 	and.w	r3, r3, #7
200030a4:	683a      	ldr	r2, [r7, #0]
200030a6:	429a      	cmp	r2, r3
200030a8:	d90c      	bls.n	200030c4 <HAL_RCC_ClockConfig+0x3c>
200030aa:	4b65      	ldr	r3, [pc, #404]	; (20003240 <HAL_RCC_ClockConfig+0x1b8>)
200030ac:	683a      	ldr	r2, [r7, #0]
200030ae:	b2d2      	uxtb	r2, r2
200030b0:	701a      	strb	r2, [r3, #0]
200030b2:	4b63      	ldr	r3, [pc, #396]	; (20003240 <HAL_RCC_ClockConfig+0x1b8>)
200030b4:	681b      	ldr	r3, [r3, #0]
200030b6:	f003 0307 	and.w	r3, r3, #7
200030ba:	683a      	ldr	r2, [r7, #0]
200030bc:	429a      	cmp	r2, r3
200030be:	d001      	beq.n	200030c4 <HAL_RCC_ClockConfig+0x3c>
200030c0:	2301      	movs	r3, #1
200030c2:	e0b8      	b.n	20003236 <HAL_RCC_ClockConfig+0x1ae>
200030c4:	687b      	ldr	r3, [r7, #4]
200030c6:	681b      	ldr	r3, [r3, #0]
200030c8:	f003 0302 	and.w	r3, r3, #2
200030cc:	2b00      	cmp	r3, #0
200030ce:	d020      	beq.n	20003112 <HAL_RCC_ClockConfig+0x8a>
200030d0:	687b      	ldr	r3, [r7, #4]
200030d2:	681b      	ldr	r3, [r3, #0]
200030d4:	f003 0304 	and.w	r3, r3, #4
200030d8:	2b00      	cmp	r3, #0
200030da:	d005      	beq.n	200030e8 <HAL_RCC_ClockConfig+0x60>
200030dc:	4b59      	ldr	r3, [pc, #356]	; (20003244 <HAL_RCC_ClockConfig+0x1bc>)
200030de:	689b      	ldr	r3, [r3, #8]
200030e0:	4a58      	ldr	r2, [pc, #352]	; (20003244 <HAL_RCC_ClockConfig+0x1bc>)
200030e2:	f443 53e0 	orr.w	r3, r3, #7168	; 0x1c00
200030e6:	6093      	str	r3, [r2, #8]
200030e8:	687b      	ldr	r3, [r7, #4]
200030ea:	681b      	ldr	r3, [r3, #0]
200030ec:	f003 0308 	and.w	r3, r3, #8
200030f0:	2b00      	cmp	r3, #0
200030f2:	d005      	beq.n	20003100 <HAL_RCC_ClockConfig+0x78>
200030f4:	4b53      	ldr	r3, [pc, #332]	; (20003244 <HAL_RCC_ClockConfig+0x1bc>)
200030f6:	689b      	ldr	r3, [r3, #8]
200030f8:	4a52      	ldr	r2, [pc, #328]	; (20003244 <HAL_RCC_ClockConfig+0x1bc>)
200030fa:	f443 4360 	orr.w	r3, r3, #57344	; 0xe000
200030fe:	6093      	str	r3, [r2, #8]
20003100:	4b50      	ldr	r3, [pc, #320]	; (20003244 <HAL_RCC_ClockConfig+0x1bc>)
20003102:	689b      	ldr	r3, [r3, #8]
20003104:	f023 02f0 	bic.w	r2, r3, #240	; 0xf0
20003108:	687b      	ldr	r3, [r7, #4]
2000310a:	689b      	ldr	r3, [r3, #8]
2000310c:	494d      	ldr	r1, [pc, #308]	; (20003244 <HAL_RCC_ClockConfig+0x1bc>)
2000310e:	4313      	orrs	r3, r2
20003110:	608b      	str	r3, [r1, #8]
20003112:	687b      	ldr	r3, [r7, #4]
20003114:	681b      	ldr	r3, [r3, #0]
20003116:	f003 0301 	and.w	r3, r3, #1
2000311a:	2b00      	cmp	r3, #0
2000311c:	d044      	beq.n	200031a8 <HAL_RCC_ClockConfig+0x120>
2000311e:	687b      	ldr	r3, [r7, #4]
20003120:	685b      	ldr	r3, [r3, #4]
20003122:	2b01      	cmp	r3, #1
20003124:	d107      	bne.n	20003136 <HAL_RCC_ClockConfig+0xae>
20003126:	4b47      	ldr	r3, [pc, #284]	; (20003244 <HAL_RCC_ClockConfig+0x1bc>)
20003128:	681b      	ldr	r3, [r3, #0]
2000312a:	f403 3300 	and.w	r3, r3, #131072	; 0x20000
2000312e:	2b00      	cmp	r3, #0
20003130:	d119      	bne.n	20003166 <HAL_RCC_ClockConfig+0xde>
20003132:	2301      	movs	r3, #1
20003134:	e07f      	b.n	20003236 <HAL_RCC_ClockConfig+0x1ae>
20003136:	687b      	ldr	r3, [r7, #4]
20003138:	685b      	ldr	r3, [r3, #4]
2000313a:	2b02      	cmp	r3, #2
2000313c:	d003      	beq.n	20003146 <HAL_RCC_ClockConfig+0xbe>
2000313e:	687b      	ldr	r3, [r7, #4]
20003140:	685b      	ldr	r3, [r3, #4]
20003142:	2b03      	cmp	r3, #3
20003144:	d107      	bne.n	20003156 <HAL_RCC_ClockConfig+0xce>
20003146:	4b3f      	ldr	r3, [pc, #252]	; (20003244 <HAL_RCC_ClockConfig+0x1bc>)
20003148:	681b      	ldr	r3, [r3, #0]
2000314a:	f003 7300 	and.w	r3, r3, #33554432	; 0x2000000
2000314e:	2b00      	cmp	r3, #0
20003150:	d109      	bne.n	20003166 <HAL_RCC_ClockConfig+0xde>
20003152:	2301      	movs	r3, #1
20003154:	e06f      	b.n	20003236 <HAL_RCC_ClockConfig+0x1ae>
20003156:	4b3b      	ldr	r3, [pc, #236]	; (20003244 <HAL_RCC_ClockConfig+0x1bc>)
20003158:	681b      	ldr	r3, [r3, #0]
2000315a:	f003 0302 	and.w	r3, r3, #2
2000315e:	2b00      	cmp	r3, #0
20003160:	d101      	bne.n	20003166 <HAL_RCC_ClockConfig+0xde>
20003162:	2301      	movs	r3, #1
20003164:	e067      	b.n	20003236 <HAL_RCC_ClockConfig+0x1ae>
20003166:	4b37      	ldr	r3, [pc, #220]	; (20003244 <HAL_RCC_ClockConfig+0x1bc>)
20003168:	689b      	ldr	r3, [r3, #8]
2000316a:	f023 0203 	bic.w	r2, r3, #3
2000316e:	687b      	ldr	r3, [r7, #4]
20003170:	685b      	ldr	r3, [r3, #4]
20003172:	4934      	ldr	r1, [pc, #208]	; (20003244 <HAL_RCC_ClockConfig+0x1bc>)
20003174:	4313      	orrs	r3, r2
20003176:	608b      	str	r3, [r1, #8]
20003178:	f7fd ff70 	bl	2000105c <HAL_GetTick>
2000317c:	60f8      	str	r0, [r7, #12]
2000317e:	e00a      	b.n	20003196 <HAL_RCC_ClockConfig+0x10e>
20003180:	f7fd ff6c 	bl	2000105c <HAL_GetTick>
20003184:	4602      	mov	r2, r0
20003186:	68fb      	ldr	r3, [r7, #12]
20003188:	1ad3      	subs	r3, r2, r3
2000318a:	f241 3288 	movw	r2, #5000	; 0x1388
2000318e:	4293      	cmp	r3, r2
20003190:	d901      	bls.n	20003196 <HAL_RCC_ClockConfig+0x10e>
20003192:	2303      	movs	r3, #3
20003194:	e04f      	b.n	20003236 <HAL_RCC_ClockConfig+0x1ae>
20003196:	4b2b      	ldr	r3, [pc, #172]	; (20003244 <HAL_RCC_ClockConfig+0x1bc>)
20003198:	689b      	ldr	r3, [r3, #8]
2000319a:	f003 020c 	and.w	r2, r3, #12
2000319e:	687b      	ldr	r3, [r7, #4]
200031a0:	685b      	ldr	r3, [r3, #4]
200031a2:	009b      	lsls	r3, r3, #2
200031a4:	429a      	cmp	r2, r3
200031a6:	d1eb      	bne.n	20003180 <HAL_RCC_ClockConfig+0xf8>
200031a8:	4b25      	ldr	r3, [pc, #148]	; (20003240 <HAL_RCC_ClockConfig+0x1b8>)
200031aa:	681b      	ldr	r3, [r3, #0]
200031ac:	f003 0307 	and.w	r3, r3, #7
200031b0:	683a      	ldr	r2, [r7, #0]
200031b2:	429a      	cmp	r2, r3
200031b4:	d20c      	bcs.n	200031d0 <HAL_RCC_ClockConfig+0x148>
200031b6:	4b22      	ldr	r3, [pc, #136]	; (20003240 <HAL_RCC_ClockConfig+0x1b8>)
200031b8:	683a      	ldr	r2, [r7, #0]
200031ba:	b2d2      	uxtb	r2, r2
200031bc:	701a      	strb	r2, [r3, #0]
200031be:	4b20      	ldr	r3, [pc, #128]	; (20003240 <HAL_RCC_ClockConfig+0x1b8>)
200031c0:	681b      	ldr	r3, [r3, #0]
200031c2:	f003 0307 	and.w	r3, r3, #7
200031c6:	683a      	ldr	r2, [r7, #0]
200031c8:	429a      	cmp	r2, r3
200031ca:	d001      	beq.n	200031d0 <HAL_RCC_ClockConfig+0x148>
200031cc:	2301      	movs	r3, #1
200031ce:	e032      	b.n	20003236 <HAL_RCC_ClockConfig+0x1ae>
200031d0:	687b      	ldr	r3, [r7, #4]
200031d2:	681b      	ldr	r3, [r3, #0]
200031d4:	f003 0304 	and.w	r3, r3, #4
200031d8:	2b00      	cmp	r3, #0
200031da:	d008      	beq.n	200031ee <HAL_RCC_ClockConfig+0x166>
200031dc:	4b19      	ldr	r3, [pc, #100]	; (20003244 <HAL_RCC_ClockConfig+0x1bc>)
200031de:	689b      	ldr	r3, [r3, #8]
200031e0:	f423 52e0 	bic.w	r2, r3, #7168	; 0x1c00
200031e4:	687b      	ldr	r3, [r7, #4]
200031e6:	68db      	ldr	r3, [r3, #12]
200031e8:	4916      	ldr	r1, [pc, #88]	; (20003244 <HAL_RCC_ClockConfig+0x1bc>)
200031ea:	4313      	orrs	r3, r2
200031ec:	608b      	str	r3, [r1, #8]
200031ee:	687b      	ldr	r3, [r7, #4]
200031f0:	681b      	ldr	r3, [r3, #0]
200031f2:	f003 0308 	and.w	r3, r3, #8
200031f6:	2b00      	cmp	r3, #0
200031f8:	d009      	beq.n	2000320e <HAL_RCC_ClockConfig+0x186>
200031fa:	4b12      	ldr	r3, [pc, #72]	; (20003244 <HAL_RCC_ClockConfig+0x1bc>)
200031fc:	689b      	ldr	r3, [r3, #8]
200031fe:	f423 4260 	bic.w	r2, r3, #57344	; 0xe000
20003202:	687b      	ldr	r3, [r7, #4]
20003204:	691b      	ldr	r3, [r3, #16]
20003206:	00db      	lsls	r3, r3, #3
20003208:	490e      	ldr	r1, [pc, #56]	; (20003244 <HAL_RCC_ClockConfig+0x1bc>)
2000320a:	4313      	orrs	r3, r2
2000320c:	608b      	str	r3, [r1, #8]
2000320e:	f000 f8a1 	bl	20003354 <HAL_RCC_GetSysClockFreq>
20003212:	4602      	mov	r2, r0
20003214:	4b0b      	ldr	r3, [pc, #44]	; (20003244 <HAL_RCC_ClockConfig+0x1bc>)
20003216:	689b      	ldr	r3, [r3, #8]
20003218:	091b      	lsrs	r3, r3, #4
2000321a:	f003 030f 	and.w	r3, r3, #15
2000321e:	490a      	ldr	r1, [pc, #40]	; (20003248 <HAL_RCC_ClockConfig+0x1c0>)
20003220:	5ccb      	ldrb	r3, [r1, r3]
20003222:	fa22 f303 	lsr.w	r3, r2, r3
20003226:	4a09      	ldr	r2, [pc, #36]	; (2000324c <HAL_RCC_ClockConfig+0x1c4>)
20003228:	6013      	str	r3, [r2, #0]
2000322a:	4b09      	ldr	r3, [pc, #36]	; (20003250 <HAL_RCC_ClockConfig+0x1c8>)
2000322c:	681b      	ldr	r3, [r3, #0]
2000322e:	4618      	mov	r0, r3
20003230:	f7fd fed2 	bl	20000fd8 <HAL_InitTick>
20003234:	2300      	movs	r3, #0
20003236:	4618      	mov	r0, r3
20003238:	3710      	adds	r7, #16
2000323a:	46bd      	mov	sp, r7
2000323c:	bd80      	pop	{r7, pc}
2000323e:	bf00      	nop
20003240:	40023c00 	.word	0x40023c00
20003244:	40023800 	.word	0x40023800
20003248:	20006044 	.word	0x20006044
2000324c:	20000210 	.word	0x20000210
20003250:	20000214 	.word	0x20000214

20003254 <HAL_RCC_MCOConfig>:
20003254:	b580      	push	{r7, lr}
20003256:	b08c      	sub	sp, #48	; 0x30
20003258:	af00      	add	r7, sp, #0
2000325a:	60f8      	str	r0, [r7, #12]
2000325c:	60b9      	str	r1, [r7, #8]
2000325e:	607a      	str	r2, [r7, #4]
20003260:	68fb      	ldr	r3, [r7, #12]
20003262:	2b00      	cmp	r3, #0
20003264:	d129      	bne.n	200032ba <HAL_RCC_MCOConfig+0x66>
20003266:	2300      	movs	r3, #0
20003268:	61bb      	str	r3, [r7, #24]
2000326a:	4b2b      	ldr	r3, [pc, #172]	; (20003318 <HAL_RCC_MCOConfig+0xc4>)
2000326c:	6b1b      	ldr	r3, [r3, #48]	; 0x30
2000326e:	4a2a      	ldr	r2, [pc, #168]	; (20003318 <HAL_RCC_MCOConfig+0xc4>)
20003270:	f043 0301 	orr.w	r3, r3, #1
20003274:	6313      	str	r3, [r2, #48]	; 0x30
20003276:	4b28      	ldr	r3, [pc, #160]	; (20003318 <HAL_RCC_MCOConfig+0xc4>)
20003278:	6b1b      	ldr	r3, [r3, #48]	; 0x30
2000327a:	f003 0301 	and.w	r3, r3, #1
2000327e:	61bb      	str	r3, [r7, #24]
20003280:	69bb      	ldr	r3, [r7, #24]
20003282:	f44f 7380 	mov.w	r3, #256	; 0x100
20003286:	61fb      	str	r3, [r7, #28]
20003288:	2302      	movs	r3, #2
2000328a:	623b      	str	r3, [r7, #32]
2000328c:	2303      	movs	r3, #3
2000328e:	62bb      	str	r3, [r7, #40]	; 0x28
20003290:	2300      	movs	r3, #0
20003292:	627b      	str	r3, [r7, #36]	; 0x24
20003294:	2300      	movs	r3, #0
20003296:	62fb      	str	r3, [r7, #44]	; 0x2c
20003298:	f107 031c 	add.w	r3, r7, #28
2000329c:	4619      	mov	r1, r3
2000329e:	481f      	ldr	r0, [pc, #124]	; (2000331c <HAL_RCC_MCOConfig+0xc8>)
200032a0:	f7ff f97e 	bl	200025a0 <HAL_GPIO_Init>
200032a4:	4b1c      	ldr	r3, [pc, #112]	; (20003318 <HAL_RCC_MCOConfig+0xc4>)
200032a6:	689b      	ldr	r3, [r3, #8]
200032a8:	f023 62ec 	bic.w	r2, r3, #123731968	; 0x7600000
200032ac:	68b9      	ldr	r1, [r7, #8]
200032ae:	687b      	ldr	r3, [r7, #4]
200032b0:	430b      	orrs	r3, r1
200032b2:	4919      	ldr	r1, [pc, #100]	; (20003318 <HAL_RCC_MCOConfig+0xc4>)
200032b4:	4313      	orrs	r3, r2
200032b6:	608b      	str	r3, [r1, #8]
200032b8:	e029      	b.n	2000330e <HAL_RCC_MCOConfig+0xba>
200032ba:	2300      	movs	r3, #0
200032bc:	617b      	str	r3, [r7, #20]
200032be:	4b16      	ldr	r3, [pc, #88]	; (20003318 <HAL_RCC_MCOConfig+0xc4>)
200032c0:	6b1b      	ldr	r3, [r3, #48]	; 0x30
200032c2:	4a15      	ldr	r2, [pc, #84]	; (20003318 <HAL_RCC_MCOConfig+0xc4>)
200032c4:	f043 0304 	orr.w	r3, r3, #4
200032c8:	6313      	str	r3, [r2, #48]	; 0x30
200032ca:	4b13      	ldr	r3, [pc, #76]	; (20003318 <HAL_RCC_MCOConfig+0xc4>)
200032cc:	6b1b      	ldr	r3, [r3, #48]	; 0x30
200032ce:	f003 0304 	and.w	r3, r3, #4
200032d2:	617b      	str	r3, [r7, #20]
200032d4:	697b      	ldr	r3, [r7, #20]
200032d6:	f44f 7300 	mov.w	r3, #512	; 0x200
200032da:	61fb      	str	r3, [r7, #28]
200032dc:	2302      	movs	r3, #2
200032de:	623b      	str	r3, [r7, #32]
200032e0:	2303      	movs	r3, #3
200032e2:	62bb      	str	r3, [r7, #40]	; 0x28
200032e4:	2300      	movs	r3, #0
200032e6:	627b      	str	r3, [r7, #36]	; 0x24
200032e8:	2300      	movs	r3, #0
200032ea:	62fb      	str	r3, [r7, #44]	; 0x2c
200032ec:	f107 031c 	add.w	r3, r7, #28
200032f0:	4619      	mov	r1, r3
200032f2:	480b      	ldr	r0, [pc, #44]	; (20003320 <HAL_RCC_MCOConfig+0xcc>)
200032f4:	f7ff f954 	bl	200025a0 <HAL_GPIO_Init>
200032f8:	4b07      	ldr	r3, [pc, #28]	; (20003318 <HAL_RCC_MCOConfig+0xc4>)
200032fa:	689b      	ldr	r3, [r3, #8]
200032fc:	f023 4278 	bic.w	r2, r3, #4160749568	; 0xf8000000
20003300:	687b      	ldr	r3, [r7, #4]
20003302:	00d9      	lsls	r1, r3, #3
20003304:	68bb      	ldr	r3, [r7, #8]
20003306:	430b      	orrs	r3, r1
20003308:	4903      	ldr	r1, [pc, #12]	; (20003318 <HAL_RCC_MCOConfig+0xc4>)
2000330a:	4313      	orrs	r3, r2
2000330c:	608b      	str	r3, [r1, #8]
2000330e:	bf00      	nop
20003310:	3730      	adds	r7, #48	; 0x30
20003312:	46bd      	mov	sp, r7
20003314:	bd80      	pop	{r7, pc}
20003316:	bf00      	nop
20003318:	40023800 	.word	0x40023800
2000331c:	40020000 	.word	0x40020000
20003320:	40020800 	.word	0x40020800

20003324 <HAL_RCC_EnableCSS>:
20003324:	b480      	push	{r7}
20003326:	af00      	add	r7, sp, #0
20003328:	4b03      	ldr	r3, [pc, #12]	; (20003338 <HAL_RCC_EnableCSS+0x14>)
2000332a:	2201      	movs	r2, #1
2000332c:	601a      	str	r2, [r3, #0]
2000332e:	bf00      	nop
20003330:	46bd      	mov	sp, r7
20003332:	bc80      	pop	{r7}
20003334:	4770      	bx	lr
20003336:	bf00      	nop
20003338:	4247004c 	.word	0x4247004c

2000333c <HAL_RCC_DisableCSS>:
2000333c:	b480      	push	{r7}
2000333e:	af00      	add	r7, sp, #0
20003340:	4b03      	ldr	r3, [pc, #12]	; (20003350 <HAL_RCC_DisableCSS+0x14>)
20003342:	2200      	movs	r2, #0
20003344:	601a      	str	r2, [r3, #0]
20003346:	bf00      	nop
20003348:	46bd      	mov	sp, r7
2000334a:	bc80      	pop	{r7}
2000334c:	4770      	bx	lr
2000334e:	bf00      	nop
20003350:	4247004c 	.word	0x4247004c

20003354 <HAL_RCC_GetSysClockFreq>:
20003354:	b5b0      	push	{r4, r5, r7, lr}
20003356:	b084      	sub	sp, #16
20003358:	af00      	add	r7, sp, #0
2000335a:	2100      	movs	r1, #0
2000335c:	6079      	str	r1, [r7, #4]
2000335e:	2100      	movs	r1, #0
20003360:	60f9      	str	r1, [r7, #12]
20003362:	2100      	movs	r1, #0
20003364:	6039      	str	r1, [r7, #0]
20003366:	2100      	movs	r1, #0
20003368:	60b9      	str	r1, [r7, #8]
2000336a:	4952      	ldr	r1, [pc, #328]	; (200034b4 <HAL_RCC_GetSysClockFreq+0x160>)
2000336c:	6889      	ldr	r1, [r1, #8]
2000336e:	f001 010c 	and.w	r1, r1, #12
20003372:	2908      	cmp	r1, #8
20003374:	d00d      	beq.n	20003392 <HAL_RCC_GetSysClockFreq+0x3e>
20003376:	2908      	cmp	r1, #8
20003378:	f200 8094 	bhi.w	200034a4 <HAL_RCC_GetSysClockFreq+0x150>
2000337c:	2900      	cmp	r1, #0
2000337e:	d002      	beq.n	20003386 <HAL_RCC_GetSysClockFreq+0x32>
20003380:	2904      	cmp	r1, #4
20003382:	d003      	beq.n	2000338c <HAL_RCC_GetSysClockFreq+0x38>
20003384:	e08e      	b.n	200034a4 <HAL_RCC_GetSysClockFreq+0x150>
20003386:	4b4c      	ldr	r3, [pc, #304]	; (200034b8 <HAL_RCC_GetSysClockFreq+0x164>)
20003388:	60bb      	str	r3, [r7, #8]
2000338a:	e08e      	b.n	200034aa <HAL_RCC_GetSysClockFreq+0x156>
2000338c:	4b4b      	ldr	r3, [pc, #300]	; (200034bc <HAL_RCC_GetSysClockFreq+0x168>)
2000338e:	60bb      	str	r3, [r7, #8]
20003390:	e08b      	b.n	200034aa <HAL_RCC_GetSysClockFreq+0x156>
20003392:	4948      	ldr	r1, [pc, #288]	; (200034b4 <HAL_RCC_GetSysClockFreq+0x160>)
20003394:	6849      	ldr	r1, [r1, #4]
20003396:	f001 013f 	and.w	r1, r1, #63	; 0x3f
2000339a:	6079      	str	r1, [r7, #4]
2000339c:	4945      	ldr	r1, [pc, #276]	; (200034b4 <HAL_RCC_GetSysClockFreq+0x160>)
2000339e:	6849      	ldr	r1, [r1, #4]
200033a0:	f401 0180 	and.w	r1, r1, #4194304	; 0x400000
200033a4:	2900      	cmp	r1, #0
200033a6:	d024      	beq.n	200033f2 <HAL_RCC_GetSysClockFreq+0x9e>
200033a8:	4942      	ldr	r1, [pc, #264]	; (200034b4 <HAL_RCC_GetSysClockFreq+0x160>)
200033aa:	6849      	ldr	r1, [r1, #4]
200033ac:	0989      	lsrs	r1, r1, #6
200033ae:	4608      	mov	r0, r1
200033b0:	f04f 0100 	mov.w	r1, #0
200033b4:	f240 14ff 	movw	r4, #511	; 0x1ff
200033b8:	f04f 0500 	mov.w	r5, #0
200033bc:	ea00 0204 	and.w	r2, r0, r4
200033c0:	ea01 0305 	and.w	r3, r1, r5
200033c4:	493d      	ldr	r1, [pc, #244]	; (200034bc <HAL_RCC_GetSysClockFreq+0x168>)
200033c6:	fb01 f003 	mul.w	r0, r1, r3
200033ca:	2100      	movs	r1, #0
200033cc:	fb01 f102 	mul.w	r1, r1, r2
200033d0:	1844      	adds	r4, r0, r1
200033d2:	493a      	ldr	r1, [pc, #232]	; (200034bc <HAL_RCC_GetSysClockFreq+0x168>)
200033d4:	fba2 0101 	umull	r0, r1, r2, r1
200033d8:	1863      	adds	r3, r4, r1
200033da:	4619      	mov	r1, r3
200033dc:	687b      	ldr	r3, [r7, #4]
200033de:	461a      	mov	r2, r3
200033e0:	f04f 0300 	mov.w	r3, #0
200033e4:	f002 fc3c 	bl	20005c60 <__aeabi_uldivmod>
200033e8:	4602      	mov	r2, r0
200033ea:	460b      	mov	r3, r1
200033ec:	4613      	mov	r3, r2
200033ee:	60fb      	str	r3, [r7, #12]
200033f0:	e04a      	b.n	20003488 <HAL_RCC_GetSysClockFreq+0x134>
200033f2:	4b30      	ldr	r3, [pc, #192]	; (200034b4 <HAL_RCC_GetSysClockFreq+0x160>)
200033f4:	685b      	ldr	r3, [r3, #4]
200033f6:	099b      	lsrs	r3, r3, #6
200033f8:	461a      	mov	r2, r3
200033fa:	f04f 0300 	mov.w	r3, #0
200033fe:	f240 10ff 	movw	r0, #511	; 0x1ff
20003402:	f04f 0100 	mov.w	r1, #0
20003406:	ea02 0400 	and.w	r4, r2, r0
2000340a:	ea03 0501 	and.w	r5, r3, r1
2000340e:	4620      	mov	r0, r4
20003410:	4629      	mov	r1, r5
20003412:	f04f 0200 	mov.w	r2, #0
20003416:	f04f 0300 	mov.w	r3, #0
2000341a:	014b      	lsls	r3, r1, #5
2000341c:	ea43 63d0 	orr.w	r3, r3, r0, lsr #27
20003420:	0142      	lsls	r2, r0, #5
20003422:	4610      	mov	r0, r2
20003424:	4619      	mov	r1, r3
20003426:	1b00      	subs	r0, r0, r4
20003428:	eb61 0105 	sbc.w	r1, r1, r5
2000342c:	f04f 0200 	mov.w	r2, #0
20003430:	f04f 0300 	mov.w	r3, #0
20003434:	018b      	lsls	r3, r1, #6
20003436:	ea43 6390 	orr.w	r3, r3, r0, lsr #26
2000343a:	0182      	lsls	r2, r0, #6
2000343c:	1a12      	subs	r2, r2, r0
2000343e:	eb63 0301 	sbc.w	r3, r3, r1
20003442:	f04f 0000 	mov.w	r0, #0
20003446:	f04f 0100 	mov.w	r1, #0
2000344a:	00d9      	lsls	r1, r3, #3
2000344c:	ea41 7152 	orr.w	r1, r1, r2, lsr #29
20003450:	00d0      	lsls	r0, r2, #3
20003452:	4602      	mov	r2, r0
20003454:	460b      	mov	r3, r1
20003456:	1912      	adds	r2, r2, r4
20003458:	eb45 0303 	adc.w	r3, r5, r3
2000345c:	f04f 0000 	mov.w	r0, #0
20003460:	f04f 0100 	mov.w	r1, #0
20003464:	0299      	lsls	r1, r3, #10
20003466:	ea41 5192 	orr.w	r1, r1, r2, lsr #22
2000346a:	0290      	lsls	r0, r2, #10
2000346c:	4602      	mov	r2, r0
2000346e:	460b      	mov	r3, r1
20003470:	4610      	mov	r0, r2
20003472:	4619      	mov	r1, r3
20003474:	687b      	ldr	r3, [r7, #4]
20003476:	461a      	mov	r2, r3
20003478:	f04f 0300 	mov.w	r3, #0
2000347c:	f002 fbf0 	bl	20005c60 <__aeabi_uldivmod>
20003480:	4602      	mov	r2, r0
20003482:	460b      	mov	r3, r1
20003484:	4613      	mov	r3, r2
20003486:	60fb      	str	r3, [r7, #12]
20003488:	4b0a      	ldr	r3, [pc, #40]	; (200034b4 <HAL_RCC_GetSysClockFreq+0x160>)
2000348a:	685b      	ldr	r3, [r3, #4]
2000348c:	0c1b      	lsrs	r3, r3, #16
2000348e:	f003 0303 	and.w	r3, r3, #3
20003492:	3301      	adds	r3, #1
20003494:	005b      	lsls	r3, r3, #1
20003496:	603b      	str	r3, [r7, #0]
20003498:	68fa      	ldr	r2, [r7, #12]
2000349a:	683b      	ldr	r3, [r7, #0]
2000349c:	fbb2 f3f3 	udiv	r3, r2, r3
200034a0:	60bb      	str	r3, [r7, #8]
200034a2:	e002      	b.n	200034aa <HAL_RCC_GetSysClockFreq+0x156>
200034a4:	4b04      	ldr	r3, [pc, #16]	; (200034b8 <HAL_RCC_GetSysClockFreq+0x164>)
200034a6:	60bb      	str	r3, [r7, #8]
200034a8:	bf00      	nop
200034aa:	68bb      	ldr	r3, [r7, #8]
200034ac:	4618      	mov	r0, r3
200034ae:	3710      	adds	r7, #16
200034b0:	46bd      	mov	sp, r7
200034b2:	bdb0      	pop	{r4, r5, r7, pc}
200034b4:	40023800 	.word	0x40023800
200034b8:	00f42400 	.word	0x00f42400
200034bc:	017d7840 	.word	0x017d7840

200034c0 <HAL_RCC_GetHCLKFreq>:
200034c0:	b480      	push	{r7}
200034c2:	af00      	add	r7, sp, #0
200034c4:	4b02      	ldr	r3, [pc, #8]	; (200034d0 <HAL_RCC_GetHCLKFreq+0x10>)
200034c6:	681b      	ldr	r3, [r3, #0]
200034c8:	4618      	mov	r0, r3
200034ca:	46bd      	mov	sp, r7
200034cc:	bc80      	pop	{r7}
200034ce:	4770      	bx	lr
200034d0:	20000210 	.word	0x20000210

200034d4 <HAL_RCC_GetPCLK1Freq>:
200034d4:	b580      	push	{r7, lr}
200034d6:	af00      	add	r7, sp, #0
200034d8:	f7ff fff2 	bl	200034c0 <HAL_RCC_GetHCLKFreq>
200034dc:	4602      	mov	r2, r0
200034de:	4b05      	ldr	r3, [pc, #20]	; (200034f4 <HAL_RCC_GetPCLK1Freq+0x20>)
200034e0:	689b      	ldr	r3, [r3, #8]
200034e2:	0a9b      	lsrs	r3, r3, #10
200034e4:	f003 0307 	and.w	r3, r3, #7
200034e8:	4903      	ldr	r1, [pc, #12]	; (200034f8 <HAL_RCC_GetPCLK1Freq+0x24>)
200034ea:	5ccb      	ldrb	r3, [r1, r3]
200034ec:	fa22 f303 	lsr.w	r3, r2, r3
200034f0:	4618      	mov	r0, r3
200034f2:	bd80      	pop	{r7, pc}
200034f4:	40023800 	.word	0x40023800
200034f8:	20006054 	.word	0x20006054

200034fc <HAL_RCC_GetPCLK2Freq>:
200034fc:	b580      	push	{r7, lr}
200034fe:	af00      	add	r7, sp, #0
20003500:	f7ff ffde 	bl	200034c0 <HAL_RCC_GetHCLKFreq>
20003504:	4602      	mov	r2, r0
20003506:	4b05      	ldr	r3, [pc, #20]	; (2000351c <HAL_RCC_GetPCLK2Freq+0x20>)
20003508:	689b      	ldr	r3, [r3, #8]
2000350a:	0b5b      	lsrs	r3, r3, #13
2000350c:	f003 0307 	and.w	r3, r3, #7
20003510:	4903      	ldr	r1, [pc, #12]	; (20003520 <HAL_RCC_GetPCLK2Freq+0x24>)
20003512:	5ccb      	ldrb	r3, [r1, r3]
20003514:	fa22 f303 	lsr.w	r3, r2, r3
20003518:	4618      	mov	r0, r3
2000351a:	bd80      	pop	{r7, pc}
2000351c:	40023800 	.word	0x40023800
20003520:	20006054 	.word	0x20006054

20003524 <HAL_RCC_GetOscConfig>:
20003524:	b480      	push	{r7}
20003526:	b083      	sub	sp, #12
20003528:	af00      	add	r7, sp, #0
2000352a:	6078      	str	r0, [r7, #4]
2000352c:	687b      	ldr	r3, [r7, #4]
2000352e:	220f      	movs	r2, #15
20003530:	601a      	str	r2, [r3, #0]
20003532:	4b45      	ldr	r3, [pc, #276]	; (20003648 <HAL_RCC_GetOscConfig+0x124>)
20003534:	681b      	ldr	r3, [r3, #0]
20003536:	f403 2380 	and.w	r3, r3, #262144	; 0x40000
2000353a:	f5b3 2f80 	cmp.w	r3, #262144	; 0x40000
2000353e:	d104      	bne.n	2000354a <HAL_RCC_GetOscConfig+0x26>
20003540:	687b      	ldr	r3, [r7, #4]
20003542:	f44f 22a0 	mov.w	r2, #327680	; 0x50000
20003546:	605a      	str	r2, [r3, #4]
20003548:	e00e      	b.n	20003568 <HAL_RCC_GetOscConfig+0x44>
2000354a:	4b3f      	ldr	r3, [pc, #252]	; (20003648 <HAL_RCC_GetOscConfig+0x124>)
2000354c:	681b      	ldr	r3, [r3, #0]
2000354e:	f403 3380 	and.w	r3, r3, #65536	; 0x10000
20003552:	f5b3 3f80 	cmp.w	r3, #65536	; 0x10000
20003556:	d104      	bne.n	20003562 <HAL_RCC_GetOscConfig+0x3e>
20003558:	687b      	ldr	r3, [r7, #4]
2000355a:	f44f 3280 	mov.w	r2, #65536	; 0x10000
2000355e:	605a      	str	r2, [r3, #4]
20003560:	e002      	b.n	20003568 <HAL_RCC_GetOscConfig+0x44>
20003562:	687b      	ldr	r3, [r7, #4]
20003564:	2200      	movs	r2, #0
20003566:	605a      	str	r2, [r3, #4]
20003568:	4b37      	ldr	r3, [pc, #220]	; (20003648 <HAL_RCC_GetOscConfig+0x124>)
2000356a:	681b      	ldr	r3, [r3, #0]
2000356c:	f003 0301 	and.w	r3, r3, #1
20003570:	2b01      	cmp	r3, #1
20003572:	d103      	bne.n	2000357c <HAL_RCC_GetOscConfig+0x58>
20003574:	687b      	ldr	r3, [r7, #4]
20003576:	2201      	movs	r2, #1
20003578:	60da      	str	r2, [r3, #12]
2000357a:	e002      	b.n	20003582 <HAL_RCC_GetOscConfig+0x5e>
2000357c:	687b      	ldr	r3, [r7, #4]
2000357e:	2200      	movs	r2, #0
20003580:	60da      	str	r2, [r3, #12]
20003582:	4b31      	ldr	r3, [pc, #196]	; (20003648 <HAL_RCC_GetOscConfig+0x124>)
20003584:	681b      	ldr	r3, [r3, #0]
20003586:	08db      	lsrs	r3, r3, #3
20003588:	f003 021f 	and.w	r2, r3, #31
2000358c:	687b      	ldr	r3, [r7, #4]
2000358e:	611a      	str	r2, [r3, #16]
20003590:	4b2d      	ldr	r3, [pc, #180]	; (20003648 <HAL_RCC_GetOscConfig+0x124>)
20003592:	6f1b      	ldr	r3, [r3, #112]	; 0x70
20003594:	f003 0304 	and.w	r3, r3, #4
20003598:	2b04      	cmp	r3, #4
2000359a:	d103      	bne.n	200035a4 <HAL_RCC_GetOscConfig+0x80>
2000359c:	687b      	ldr	r3, [r7, #4]
2000359e:	2205      	movs	r2, #5
200035a0:	609a      	str	r2, [r3, #8]
200035a2:	e00c      	b.n	200035be <HAL_RCC_GetOscConfig+0x9a>
200035a4:	4b28      	ldr	r3, [pc, #160]	; (20003648 <HAL_RCC_GetOscConfig+0x124>)
200035a6:	6f1b      	ldr	r3, [r3, #112]	; 0x70
200035a8:	f003 0301 	and.w	r3, r3, #1
200035ac:	2b01      	cmp	r3, #1
200035ae:	d103      	bne.n	200035b8 <HAL_RCC_GetOscConfig+0x94>
200035b0:	687b      	ldr	r3, [r7, #4]
200035b2:	2201      	movs	r2, #1
200035b4:	609a      	str	r2, [r3, #8]
200035b6:	e002      	b.n	200035be <HAL_RCC_GetOscConfig+0x9a>
200035b8:	687b      	ldr	r3, [r7, #4]
200035ba:	2200      	movs	r2, #0
200035bc:	609a      	str	r2, [r3, #8]
200035be:	4b22      	ldr	r3, [pc, #136]	; (20003648 <HAL_RCC_GetOscConfig+0x124>)
200035c0:	6f5b      	ldr	r3, [r3, #116]	; 0x74
200035c2:	f003 0301 	and.w	r3, r3, #1
200035c6:	2b01      	cmp	r3, #1
200035c8:	d103      	bne.n	200035d2 <HAL_RCC_GetOscConfig+0xae>
200035ca:	687b      	ldr	r3, [r7, #4]
200035cc:	2201      	movs	r2, #1
200035ce:	615a      	str	r2, [r3, #20]
200035d0:	e002      	b.n	200035d8 <HAL_RCC_GetOscConfig+0xb4>
200035d2:	687b      	ldr	r3, [r7, #4]
200035d4:	2200      	movs	r2, #0
200035d6:	615a      	str	r2, [r3, #20]
200035d8:	4b1b      	ldr	r3, [pc, #108]	; (20003648 <HAL_RCC_GetOscConfig+0x124>)
200035da:	681b      	ldr	r3, [r3, #0]
200035dc:	f003 7380 	and.w	r3, r3, #16777216	; 0x1000000
200035e0:	f1b3 7f80 	cmp.w	r3, #16777216	; 0x1000000
200035e4:	d103      	bne.n	200035ee <HAL_RCC_GetOscConfig+0xca>
200035e6:	687b      	ldr	r3, [r7, #4]
200035e8:	2202      	movs	r2, #2
200035ea:	619a      	str	r2, [r3, #24]
200035ec:	e002      	b.n	200035f4 <HAL_RCC_GetOscConfig+0xd0>
200035ee:	687b      	ldr	r3, [r7, #4]
200035f0:	2201      	movs	r2, #1
200035f2:	619a      	str	r2, [r3, #24]
200035f4:	4b14      	ldr	r3, [pc, #80]	; (20003648 <HAL_RCC_GetOscConfig+0x124>)
200035f6:	685b      	ldr	r3, [r3, #4]
200035f8:	f403 0280 	and.w	r2, r3, #4194304	; 0x400000
200035fc:	687b      	ldr	r3, [r7, #4]
200035fe:	61da      	str	r2, [r3, #28]
20003600:	4b11      	ldr	r3, [pc, #68]	; (20003648 <HAL_RCC_GetOscConfig+0x124>)
20003602:	685b      	ldr	r3, [r3, #4]
20003604:	f003 023f 	and.w	r2, r3, #63	; 0x3f
20003608:	687b      	ldr	r3, [r7, #4]
2000360a:	621a      	str	r2, [r3, #32]
2000360c:	4b0e      	ldr	r3, [pc, #56]	; (20003648 <HAL_RCC_GetOscConfig+0x124>)
2000360e:	685b      	ldr	r3, [r3, #4]
20003610:	099b      	lsrs	r3, r3, #6
20003612:	f3c3 0208 	ubfx	r2, r3, #0, #9
20003616:	687b      	ldr	r3, [r7, #4]
20003618:	625a      	str	r2, [r3, #36]	; 0x24
2000361a:	4b0b      	ldr	r3, [pc, #44]	; (20003648 <HAL_RCC_GetOscConfig+0x124>)
2000361c:	685b      	ldr	r3, [r3, #4]
2000361e:	f403 3340 	and.w	r3, r3, #196608	; 0x30000
20003622:	f503 3380 	add.w	r3, r3, #65536	; 0x10000
20003626:	005b      	lsls	r3, r3, #1
20003628:	0c1a      	lsrs	r2, r3, #16
2000362a:	687b      	ldr	r3, [r7, #4]
2000362c:	629a      	str	r2, [r3, #40]	; 0x28
2000362e:	4b06      	ldr	r3, [pc, #24]	; (20003648 <HAL_RCC_GetOscConfig+0x124>)
20003630:	685b      	ldr	r3, [r3, #4]
20003632:	0e1b      	lsrs	r3, r3, #24
20003634:	f003 020f 	and.w	r2, r3, #15
20003638:	687b      	ldr	r3, [r7, #4]
2000363a:	62da      	str	r2, [r3, #44]	; 0x2c
2000363c:	bf00      	nop
2000363e:	370c      	adds	r7, #12
20003640:	46bd      	mov	sp, r7
20003642:	bc80      	pop	{r7}
20003644:	4770      	bx	lr
20003646:	bf00      	nop
20003648:	40023800 	.word	0x40023800

2000364c <HAL_RCC_GetClockConfig>:
2000364c:	b480      	push	{r7}
2000364e:	b083      	sub	sp, #12
20003650:	af00      	add	r7, sp, #0
20003652:	6078      	str	r0, [r7, #4]
20003654:	6039      	str	r1, [r7, #0]
20003656:	687b      	ldr	r3, [r7, #4]
20003658:	220f      	movs	r2, #15
2000365a:	601a      	str	r2, [r3, #0]
2000365c:	4b11      	ldr	r3, [pc, #68]	; (200036a4 <HAL_RCC_GetClockConfig+0x58>)
2000365e:	689b      	ldr	r3, [r3, #8]
20003660:	f003 0203 	and.w	r2, r3, #3
20003664:	687b      	ldr	r3, [r7, #4]
20003666:	605a      	str	r2, [r3, #4]
20003668:	4b0e      	ldr	r3, [pc, #56]	; (200036a4 <HAL_RCC_GetClockConfig+0x58>)
2000366a:	689b      	ldr	r3, [r3, #8]
2000366c:	f003 02f0 	and.w	r2, r3, #240	; 0xf0
20003670:	687b      	ldr	r3, [r7, #4]
20003672:	609a      	str	r2, [r3, #8]
20003674:	4b0b      	ldr	r3, [pc, #44]	; (200036a4 <HAL_RCC_GetClockConfig+0x58>)
20003676:	689b      	ldr	r3, [r3, #8]
20003678:	f403 52e0 	and.w	r2, r3, #7168	; 0x1c00
2000367c:	687b      	ldr	r3, [r7, #4]
2000367e:	60da      	str	r2, [r3, #12]
20003680:	4b08      	ldr	r3, [pc, #32]	; (200036a4 <HAL_RCC_GetClockConfig+0x58>)
20003682:	689b      	ldr	r3, [r3, #8]
20003684:	08db      	lsrs	r3, r3, #3
20003686:	f403 52e0 	and.w	r2, r3, #7168	; 0x1c00
2000368a:	687b      	ldr	r3, [r7, #4]
2000368c:	611a      	str	r2, [r3, #16]
2000368e:	4b06      	ldr	r3, [pc, #24]	; (200036a8 <HAL_RCC_GetClockConfig+0x5c>)
20003690:	681b      	ldr	r3, [r3, #0]
20003692:	f003 0207 	and.w	r2, r3, #7
20003696:	683b      	ldr	r3, [r7, #0]
20003698:	601a      	str	r2, [r3, #0]
2000369a:	bf00      	nop
2000369c:	370c      	adds	r7, #12
2000369e:	46bd      	mov	sp, r7
200036a0:	bc80      	pop	{r7}
200036a2:	4770      	bx	lr
200036a4:	40023800 	.word	0x40023800
200036a8:	40023c00 	.word	0x40023c00

200036ac <HAL_RCC_NMI_IRQHandler>:
200036ac:	b580      	push	{r7, lr}
200036ae:	af00      	add	r7, sp, #0
200036b0:	4b06      	ldr	r3, [pc, #24]	; (200036cc <HAL_RCC_NMI_IRQHandler+0x20>)
200036b2:	68db      	ldr	r3, [r3, #12]
200036b4:	f003 0380 	and.w	r3, r3, #128	; 0x80
200036b8:	2b80      	cmp	r3, #128	; 0x80
200036ba:	d104      	bne.n	200036c6 <HAL_RCC_NMI_IRQHandler+0x1a>
200036bc:	f000 f80a 	bl	200036d4 <HAL_RCC_CSSCallback>
200036c0:	4b03      	ldr	r3, [pc, #12]	; (200036d0 <HAL_RCC_NMI_IRQHandler+0x24>)
200036c2:	2280      	movs	r2, #128	; 0x80
200036c4:	701a      	strb	r2, [r3, #0]
200036c6:	bf00      	nop
200036c8:	bd80      	pop	{r7, pc}
200036ca:	bf00      	nop
200036cc:	40023800 	.word	0x40023800
200036d0:	4002380e 	.word	0x4002380e

200036d4 <HAL_RCC_CSSCallback>:
200036d4:	b480      	push	{r7}
200036d6:	af00      	add	r7, sp, #0
200036d8:	bf00      	nop
200036da:	46bd      	mov	sp, r7
200036dc:	bc80      	pop	{r7}
200036de:	4770      	bx	lr

200036e0 <HAL_SPI_Init>:
200036e0:	b580      	push	{r7, lr}
200036e2:	b082      	sub	sp, #8
200036e4:	af00      	add	r7, sp, #0
200036e6:	6078      	str	r0, [r7, #4]
200036e8:	687b      	ldr	r3, [r7, #4]
200036ea:	2b00      	cmp	r3, #0
200036ec:	d101      	bne.n	200036f2 <HAL_SPI_Init+0x12>
200036ee:	2301      	movs	r3, #1
200036f0:	e07b      	b.n	200037ea <HAL_SPI_Init+0x10a>
200036f2:	687b      	ldr	r3, [r7, #4]
200036f4:	6a5b      	ldr	r3, [r3, #36]	; 0x24
200036f6:	2b00      	cmp	r3, #0
200036f8:	d108      	bne.n	2000370c <HAL_SPI_Init+0x2c>
200036fa:	687b      	ldr	r3, [r7, #4]
200036fc:	685b      	ldr	r3, [r3, #4]
200036fe:	f5b3 7f82 	cmp.w	r3, #260	; 0x104
20003702:	d009      	beq.n	20003718 <HAL_SPI_Init+0x38>
20003704:	687b      	ldr	r3, [r7, #4]
20003706:	2200      	movs	r2, #0
20003708:	61da      	str	r2, [r3, #28]
2000370a:	e005      	b.n	20003718 <HAL_SPI_Init+0x38>
2000370c:	687b      	ldr	r3, [r7, #4]
2000370e:	2200      	movs	r2, #0
20003710:	611a      	str	r2, [r3, #16]
20003712:	687b      	ldr	r3, [r7, #4]
20003714:	2200      	movs	r2, #0
20003716:	615a      	str	r2, [r3, #20]
20003718:	687b      	ldr	r3, [r7, #4]
2000371a:	2200      	movs	r2, #0
2000371c:	629a      	str	r2, [r3, #40]	; 0x28
2000371e:	687b      	ldr	r3, [r7, #4]
20003720:	f893 3051 	ldrb.w	r3, [r3, #81]	; 0x51
20003724:	b2db      	uxtb	r3, r3
20003726:	2b00      	cmp	r3, #0
20003728:	d106      	bne.n	20003738 <HAL_SPI_Init+0x58>
2000372a:	687b      	ldr	r3, [r7, #4]
2000372c:	2200      	movs	r2, #0
2000372e:	f883 2050 	strb.w	r2, [r3, #80]	; 0x50
20003732:	6878      	ldr	r0, [r7, #4]
20003734:	f7fd f8c6 	bl	200008c4 <HAL_SPI_MspInit>
20003738:	687b      	ldr	r3, [r7, #4]
2000373a:	2202      	movs	r2, #2
2000373c:	f883 2051 	strb.w	r2, [r3, #81]	; 0x51
20003740:	687b      	ldr	r3, [r7, #4]
20003742:	681b      	ldr	r3, [r3, #0]
20003744:	681a      	ldr	r2, [r3, #0]
20003746:	687b      	ldr	r3, [r7, #4]
20003748:	681b      	ldr	r3, [r3, #0]
2000374a:	f022 0240 	bic.w	r2, r2, #64	; 0x40
2000374e:	601a      	str	r2, [r3, #0]
20003750:	687b      	ldr	r3, [r7, #4]
20003752:	685b      	ldr	r3, [r3, #4]
20003754:	f403 7282 	and.w	r2, r3, #260	; 0x104
20003758:	687b      	ldr	r3, [r7, #4]
2000375a:	689b      	ldr	r3, [r3, #8]
2000375c:	f403 4304 	and.w	r3, r3, #33792	; 0x8400
20003760:	431a      	orrs	r2, r3
20003762:	687b      	ldr	r3, [r7, #4]
20003764:	68db      	ldr	r3, [r3, #12]
20003766:	f403 6300 	and.w	r3, r3, #2048	; 0x800
2000376a:	431a      	orrs	r2, r3
2000376c:	687b      	ldr	r3, [r7, #4]
2000376e:	691b      	ldr	r3, [r3, #16]
20003770:	f003 0302 	and.w	r3, r3, #2
20003774:	431a      	orrs	r2, r3
20003776:	687b      	ldr	r3, [r7, #4]
20003778:	695b      	ldr	r3, [r3, #20]
2000377a:	f003 0301 	and.w	r3, r3, #1
2000377e:	431a      	orrs	r2, r3
20003780:	687b      	ldr	r3, [r7, #4]
20003782:	699b      	ldr	r3, [r3, #24]
20003784:	f403 7300 	and.w	r3, r3, #512	; 0x200
20003788:	431a      	orrs	r2, r3
2000378a:	687b      	ldr	r3, [r7, #4]
2000378c:	69db      	ldr	r3, [r3, #28]
2000378e:	f003 0338 	and.w	r3, r3, #56	; 0x38
20003792:	431a      	orrs	r2, r3
20003794:	687b      	ldr	r3, [r7, #4]
20003796:	6a1b      	ldr	r3, [r3, #32]
20003798:	f003 0380 	and.w	r3, r3, #128	; 0x80
2000379c:	ea42 0103 	orr.w	r1, r2, r3
200037a0:	687b      	ldr	r3, [r7, #4]
200037a2:	6a9b      	ldr	r3, [r3, #40]	; 0x28
200037a4:	f403 5200 	and.w	r2, r3, #8192	; 0x2000
200037a8:	687b      	ldr	r3, [r7, #4]
200037aa:	681b      	ldr	r3, [r3, #0]
200037ac:	430a      	orrs	r2, r1
200037ae:	601a      	str	r2, [r3, #0]
200037b0:	687b      	ldr	r3, [r7, #4]
200037b2:	699b      	ldr	r3, [r3, #24]
200037b4:	0c1b      	lsrs	r3, r3, #16
200037b6:	f003 0104 	and.w	r1, r3, #4
200037ba:	687b      	ldr	r3, [r7, #4]
200037bc:	6a5b      	ldr	r3, [r3, #36]	; 0x24
200037be:	f003 0210 	and.w	r2, r3, #16
200037c2:	687b      	ldr	r3, [r7, #4]
200037c4:	681b      	ldr	r3, [r3, #0]
200037c6:	430a      	orrs	r2, r1
200037c8:	605a      	str	r2, [r3, #4]
200037ca:	687b      	ldr	r3, [r7, #4]
200037cc:	681b      	ldr	r3, [r3, #0]
200037ce:	69da      	ldr	r2, [r3, #28]
200037d0:	687b      	ldr	r3, [r7, #4]
200037d2:	681b      	ldr	r3, [r3, #0]
200037d4:	f422 6200 	bic.w	r2, r2, #2048	; 0x800
200037d8:	61da      	str	r2, [r3, #28]
200037da:	687b      	ldr	r3, [r7, #4]
200037dc:	2200      	movs	r2, #0
200037de:	655a      	str	r2, [r3, #84]	; 0x54
200037e0:	687b      	ldr	r3, [r7, #4]
200037e2:	2201      	movs	r2, #1
200037e4:	f883 2051 	strb.w	r2, [r3, #81]	; 0x51
200037e8:	2300      	movs	r3, #0
200037ea:	4618      	mov	r0, r3
200037ec:	3708      	adds	r7, #8
200037ee:	46bd      	mov	sp, r7
200037f0:	bd80      	pop	{r7, pc}

200037f2 <HAL_SPI_DeInit>:
200037f2:	b580      	push	{r7, lr}
200037f4:	b082      	sub	sp, #8
200037f6:	af00      	add	r7, sp, #0
200037f8:	6078      	str	r0, [r7, #4]
200037fa:	687b      	ldr	r3, [r7, #4]
200037fc:	2b00      	cmp	r3, #0
200037fe:	d101      	bne.n	20003804 <HAL_SPI_DeInit+0x12>
20003800:	2301      	movs	r3, #1
20003802:	e01a      	b.n	2000383a <HAL_SPI_DeInit+0x48>
20003804:	687b      	ldr	r3, [r7, #4]
20003806:	2202      	movs	r2, #2
20003808:	f883 2051 	strb.w	r2, [r3, #81]	; 0x51
2000380c:	687b      	ldr	r3, [r7, #4]
2000380e:	681b      	ldr	r3, [r3, #0]
20003810:	681a      	ldr	r2, [r3, #0]
20003812:	687b      	ldr	r3, [r7, #4]
20003814:	681b      	ldr	r3, [r3, #0]
20003816:	f022 0240 	bic.w	r2, r2, #64	; 0x40
2000381a:	601a      	str	r2, [r3, #0]
2000381c:	6878      	ldr	r0, [r7, #4]
2000381e:	f7fd f899 	bl	20000954 <HAL_SPI_MspDeInit>
20003822:	687b      	ldr	r3, [r7, #4]
20003824:	2200      	movs	r2, #0
20003826:	655a      	str	r2, [r3, #84]	; 0x54
20003828:	687b      	ldr	r3, [r7, #4]
2000382a:	2200      	movs	r2, #0
2000382c:	f883 2051 	strb.w	r2, [r3, #81]	; 0x51
20003830:	687b      	ldr	r3, [r7, #4]
20003832:	2200      	movs	r2, #0
20003834:	f883 2050 	strb.w	r2, [r3, #80]	; 0x50
20003838:	2300      	movs	r3, #0
2000383a:	4618      	mov	r0, r3
2000383c:	3708      	adds	r7, #8
2000383e:	46bd      	mov	sp, r7
20003840:	bd80      	pop	{r7, pc}
20003842:	b480      	push	{r7}
20003844:	b083      	sub	sp, #12
20003846:	af00      	add	r7, sp, #0
20003848:	6078      	str	r0, [r7, #4]
2000384a:	bf00      	nop
2000384c:	370c      	adds	r7, #12
2000384e:	46bd      	mov	sp, r7
20003850:	bc80      	pop	{r7}
20003852:	4770      	bx	lr
20003854:	b480      	push	{r7}
20003856:	b083      	sub	sp, #12
20003858:	af00      	add	r7, sp, #0
2000385a:	6078      	str	r0, [r7, #4]
2000385c:	bf00      	nop
2000385e:	370c      	adds	r7, #12
20003860:	46bd      	mov	sp, r7
20003862:	bc80      	pop	{r7}
20003864:	4770      	bx	lr

20003866 <HAL_SPI_Transmit>:
20003866:	b580      	push	{r7, lr}
20003868:	b088      	sub	sp, #32
2000386a:	af00      	add	r7, sp, #0
2000386c:	60f8      	str	r0, [r7, #12]
2000386e:	60b9      	str	r1, [r7, #8]
20003870:	603b      	str	r3, [r7, #0]
20003872:	4613      	mov	r3, r2
20003874:	80fb      	strh	r3, [r7, #6]
20003876:	2300      	movs	r3, #0
20003878:	77fb      	strb	r3, [r7, #31]
2000387a:	68fb      	ldr	r3, [r7, #12]
2000387c:	f893 3050 	ldrb.w	r3, [r3, #80]	; 0x50
20003880:	2b01      	cmp	r3, #1
20003882:	d101      	bne.n	20003888 <HAL_SPI_Transmit+0x22>
20003884:	2302      	movs	r3, #2
20003886:	e126      	b.n	20003ad6 <HAL_SPI_Transmit+0x270>
20003888:	68fb      	ldr	r3, [r7, #12]
2000388a:	2201      	movs	r2, #1
2000388c:	f883 2050 	strb.w	r2, [r3, #80]	; 0x50
20003890:	f7fd fbe4 	bl	2000105c <HAL_GetTick>
20003894:	61b8      	str	r0, [r7, #24]
20003896:	88fb      	ldrh	r3, [r7, #6]
20003898:	82fb      	strh	r3, [r7, #22]
2000389a:	68fb      	ldr	r3, [r7, #12]
2000389c:	f893 3051 	ldrb.w	r3, [r3, #81]	; 0x51
200038a0:	b2db      	uxtb	r3, r3
200038a2:	2b01      	cmp	r3, #1
200038a4:	d002      	beq.n	200038ac <HAL_SPI_Transmit+0x46>
200038a6:	2302      	movs	r3, #2
200038a8:	77fb      	strb	r3, [r7, #31]
200038aa:	e10b      	b.n	20003ac4 <HAL_SPI_Transmit+0x25e>
200038ac:	68bb      	ldr	r3, [r7, #8]
200038ae:	2b00      	cmp	r3, #0
200038b0:	d002      	beq.n	200038b8 <HAL_SPI_Transmit+0x52>
200038b2:	88fb      	ldrh	r3, [r7, #6]
200038b4:	2b00      	cmp	r3, #0
200038b6:	d102      	bne.n	200038be <HAL_SPI_Transmit+0x58>
200038b8:	2301      	movs	r3, #1
200038ba:	77fb      	strb	r3, [r7, #31]
200038bc:	e102      	b.n	20003ac4 <HAL_SPI_Transmit+0x25e>
200038be:	68fb      	ldr	r3, [r7, #12]
200038c0:	2203      	movs	r2, #3
200038c2:	f883 2051 	strb.w	r2, [r3, #81]	; 0x51
200038c6:	68fb      	ldr	r3, [r7, #12]
200038c8:	2200      	movs	r2, #0
200038ca:	655a      	str	r2, [r3, #84]	; 0x54
200038cc:	68fb      	ldr	r3, [r7, #12]
200038ce:	68ba      	ldr	r2, [r7, #8]
200038d0:	631a      	str	r2, [r3, #48]	; 0x30
200038d2:	68fb      	ldr	r3, [r7, #12]
200038d4:	88fa      	ldrh	r2, [r7, #6]
200038d6:	869a      	strh	r2, [r3, #52]	; 0x34
200038d8:	68fb      	ldr	r3, [r7, #12]
200038da:	88fa      	ldrh	r2, [r7, #6]
200038dc:	86da      	strh	r2, [r3, #54]	; 0x36
200038de:	68fb      	ldr	r3, [r7, #12]
200038e0:	2200      	movs	r2, #0
200038e2:	639a      	str	r2, [r3, #56]	; 0x38
200038e4:	68fb      	ldr	r3, [r7, #12]
200038e6:	2200      	movs	r2, #0
200038e8:	879a      	strh	r2, [r3, #60]	; 0x3c
200038ea:	68fb      	ldr	r3, [r7, #12]
200038ec:	2200      	movs	r2, #0
200038ee:	87da      	strh	r2, [r3, #62]	; 0x3e
200038f0:	68fb      	ldr	r3, [r7, #12]
200038f2:	2200      	movs	r2, #0
200038f4:	645a      	str	r2, [r3, #68]	; 0x44
200038f6:	68fb      	ldr	r3, [r7, #12]
200038f8:	2200      	movs	r2, #0
200038fa:	641a      	str	r2, [r3, #64]	; 0x40
200038fc:	68fb      	ldr	r3, [r7, #12]
200038fe:	689b      	ldr	r3, [r3, #8]
20003900:	f5b3 4f00 	cmp.w	r3, #32768	; 0x8000
20003904:	d10f      	bne.n	20003926 <HAL_SPI_Transmit+0xc0>
20003906:	68fb      	ldr	r3, [r7, #12]
20003908:	681b      	ldr	r3, [r3, #0]
2000390a:	681a      	ldr	r2, [r3, #0]
2000390c:	68fb      	ldr	r3, [r7, #12]
2000390e:	681b      	ldr	r3, [r3, #0]
20003910:	f022 0240 	bic.w	r2, r2, #64	; 0x40
20003914:	601a      	str	r2, [r3, #0]
20003916:	68fb      	ldr	r3, [r7, #12]
20003918:	681b      	ldr	r3, [r3, #0]
2000391a:	681a      	ldr	r2, [r3, #0]
2000391c:	68fb      	ldr	r3, [r7, #12]
2000391e:	681b      	ldr	r3, [r3, #0]
20003920:	f442 4280 	orr.w	r2, r2, #16384	; 0x4000
20003924:	601a      	str	r2, [r3, #0]
20003926:	68fb      	ldr	r3, [r7, #12]
20003928:	681b      	ldr	r3, [r3, #0]
2000392a:	681b      	ldr	r3, [r3, #0]
2000392c:	f003 0340 	and.w	r3, r3, #64	; 0x40
20003930:	2b40      	cmp	r3, #64	; 0x40
20003932:	d007      	beq.n	20003944 <HAL_SPI_Transmit+0xde>
20003934:	68fb      	ldr	r3, [r7, #12]
20003936:	681b      	ldr	r3, [r3, #0]
20003938:	681a      	ldr	r2, [r3, #0]
2000393a:	68fb      	ldr	r3, [r7, #12]
2000393c:	681b      	ldr	r3, [r3, #0]
2000393e:	f042 0240 	orr.w	r2, r2, #64	; 0x40
20003942:	601a      	str	r2, [r3, #0]
20003944:	68fb      	ldr	r3, [r7, #12]
20003946:	68db      	ldr	r3, [r3, #12]
20003948:	f5b3 6f00 	cmp.w	r3, #2048	; 0x800
2000394c:	d14b      	bne.n	200039e6 <HAL_SPI_Transmit+0x180>
2000394e:	68fb      	ldr	r3, [r7, #12]
20003950:	685b      	ldr	r3, [r3, #4]
20003952:	2b00      	cmp	r3, #0
20003954:	d002      	beq.n	2000395c <HAL_SPI_Transmit+0xf6>
20003956:	8afb      	ldrh	r3, [r7, #22]
20003958:	2b01      	cmp	r3, #1
2000395a:	d13e      	bne.n	200039da <HAL_SPI_Transmit+0x174>
2000395c:	68fb      	ldr	r3, [r7, #12]
2000395e:	6b1b      	ldr	r3, [r3, #48]	; 0x30
20003960:	881a      	ldrh	r2, [r3, #0]
20003962:	68fb      	ldr	r3, [r7, #12]
20003964:	681b      	ldr	r3, [r3, #0]
20003966:	60da      	str	r2, [r3, #12]
20003968:	68fb      	ldr	r3, [r7, #12]
2000396a:	6b1b      	ldr	r3, [r3, #48]	; 0x30
2000396c:	1c9a      	adds	r2, r3, #2
2000396e:	68fb      	ldr	r3, [r7, #12]
20003970:	631a      	str	r2, [r3, #48]	; 0x30
20003972:	68fb      	ldr	r3, [r7, #12]
20003974:	8edb      	ldrh	r3, [r3, #54]	; 0x36
20003976:	b29b      	uxth	r3, r3
20003978:	3b01      	subs	r3, #1
2000397a:	b29a      	uxth	r2, r3
2000397c:	68fb      	ldr	r3, [r7, #12]
2000397e:	86da      	strh	r2, [r3, #54]	; 0x36
20003980:	e02b      	b.n	200039da <HAL_SPI_Transmit+0x174>
20003982:	68fb      	ldr	r3, [r7, #12]
20003984:	681b      	ldr	r3, [r3, #0]
20003986:	689b      	ldr	r3, [r3, #8]
20003988:	f003 0302 	and.w	r3, r3, #2
2000398c:	2b02      	cmp	r3, #2
2000398e:	d112      	bne.n	200039b6 <HAL_SPI_Transmit+0x150>
20003990:	68fb      	ldr	r3, [r7, #12]
20003992:	6b1b      	ldr	r3, [r3, #48]	; 0x30
20003994:	881a      	ldrh	r2, [r3, #0]
20003996:	68fb      	ldr	r3, [r7, #12]
20003998:	681b      	ldr	r3, [r3, #0]
2000399a:	60da      	str	r2, [r3, #12]
2000399c:	68fb      	ldr	r3, [r7, #12]
2000399e:	6b1b      	ldr	r3, [r3, #48]	; 0x30
200039a0:	1c9a      	adds	r2, r3, #2
200039a2:	68fb      	ldr	r3, [r7, #12]
200039a4:	631a      	str	r2, [r3, #48]	; 0x30
200039a6:	68fb      	ldr	r3, [r7, #12]
200039a8:	8edb      	ldrh	r3, [r3, #54]	; 0x36
200039aa:	b29b      	uxth	r3, r3
200039ac:	3b01      	subs	r3, #1
200039ae:	b29a      	uxth	r2, r3
200039b0:	68fb      	ldr	r3, [r7, #12]
200039b2:	86da      	strh	r2, [r3, #54]	; 0x36
200039b4:	e011      	b.n	200039da <HAL_SPI_Transmit+0x174>
200039b6:	f7fd fb51 	bl	2000105c <HAL_GetTick>
200039ba:	4602      	mov	r2, r0
200039bc:	69bb      	ldr	r3, [r7, #24]
200039be:	1ad3      	subs	r3, r2, r3
200039c0:	683a      	ldr	r2, [r7, #0]
200039c2:	429a      	cmp	r2, r3
200039c4:	d803      	bhi.n	200039ce <HAL_SPI_Transmit+0x168>
200039c6:	683b      	ldr	r3, [r7, #0]
200039c8:	f1b3 3fff 	cmp.w	r3, #4294967295
200039cc:	d102      	bne.n	200039d4 <HAL_SPI_Transmit+0x16e>
200039ce:	683b      	ldr	r3, [r7, #0]
200039d0:	2b00      	cmp	r3, #0
200039d2:	d102      	bne.n	200039da <HAL_SPI_Transmit+0x174>
200039d4:	2303      	movs	r3, #3
200039d6:	77fb      	strb	r3, [r7, #31]
200039d8:	e074      	b.n	20003ac4 <HAL_SPI_Transmit+0x25e>
200039da:	68fb      	ldr	r3, [r7, #12]
200039dc:	8edb      	ldrh	r3, [r3, #54]	; 0x36
200039de:	b29b      	uxth	r3, r3
200039e0:	2b00      	cmp	r3, #0
200039e2:	d1ce      	bne.n	20003982 <HAL_SPI_Transmit+0x11c>
200039e4:	e04c      	b.n	20003a80 <HAL_SPI_Transmit+0x21a>
200039e6:	68fb      	ldr	r3, [r7, #12]
200039e8:	685b      	ldr	r3, [r3, #4]
200039ea:	2b00      	cmp	r3, #0
200039ec:	d002      	beq.n	200039f4 <HAL_SPI_Transmit+0x18e>
200039ee:	8afb      	ldrh	r3, [r7, #22]
200039f0:	2b01      	cmp	r3, #1
200039f2:	d140      	bne.n	20003a76 <HAL_SPI_Transmit+0x210>
200039f4:	68fb      	ldr	r3, [r7, #12]
200039f6:	6b1a      	ldr	r2, [r3, #48]	; 0x30
200039f8:	68fb      	ldr	r3, [r7, #12]
200039fa:	681b      	ldr	r3, [r3, #0]
200039fc:	330c      	adds	r3, #12
200039fe:	7812      	ldrb	r2, [r2, #0]
20003a00:	701a      	strb	r2, [r3, #0]
20003a02:	68fb      	ldr	r3, [r7, #12]
20003a04:	6b1b      	ldr	r3, [r3, #48]	; 0x30
20003a06:	1c5a      	adds	r2, r3, #1
20003a08:	68fb      	ldr	r3, [r7, #12]
20003a0a:	631a      	str	r2, [r3, #48]	; 0x30
20003a0c:	68fb      	ldr	r3, [r7, #12]
20003a0e:	8edb      	ldrh	r3, [r3, #54]	; 0x36
20003a10:	b29b      	uxth	r3, r3
20003a12:	3b01      	subs	r3, #1
20003a14:	b29a      	uxth	r2, r3
20003a16:	68fb      	ldr	r3, [r7, #12]
20003a18:	86da      	strh	r2, [r3, #54]	; 0x36
20003a1a:	e02c      	b.n	20003a76 <HAL_SPI_Transmit+0x210>
20003a1c:	68fb      	ldr	r3, [r7, #12]
20003a1e:	681b      	ldr	r3, [r3, #0]
20003a20:	689b      	ldr	r3, [r3, #8]
20003a22:	f003 0302 	and.w	r3, r3, #2
20003a26:	2b02      	cmp	r3, #2
20003a28:	d113      	bne.n	20003a52 <HAL_SPI_Transmit+0x1ec>
20003a2a:	68fb      	ldr	r3, [r7, #12]
20003a2c:	6b1a      	ldr	r2, [r3, #48]	; 0x30
20003a2e:	68fb      	ldr	r3, [r7, #12]
20003a30:	681b      	ldr	r3, [r3, #0]
20003a32:	330c      	adds	r3, #12
20003a34:	7812      	ldrb	r2, [r2, #0]
20003a36:	701a      	strb	r2, [r3, #0]
20003a38:	68fb      	ldr	r3, [r7, #12]
20003a3a:	6b1b      	ldr	r3, [r3, #48]	; 0x30
20003a3c:	1c5a      	adds	r2, r3, #1
20003a3e:	68fb      	ldr	r3, [r7, #12]
20003a40:	631a      	str	r2, [r3, #48]	; 0x30
20003a42:	68fb      	ldr	r3, [r7, #12]
20003a44:	8edb      	ldrh	r3, [r3, #54]	; 0x36
20003a46:	b29b      	uxth	r3, r3
20003a48:	3b01      	subs	r3, #1
20003a4a:	b29a      	uxth	r2, r3
20003a4c:	68fb      	ldr	r3, [r7, #12]
20003a4e:	86da      	strh	r2, [r3, #54]	; 0x36
20003a50:	e011      	b.n	20003a76 <HAL_SPI_Transmit+0x210>
20003a52:	f7fd fb03 	bl	2000105c <HAL_GetTick>
20003a56:	4602      	mov	r2, r0
20003a58:	69bb      	ldr	r3, [r7, #24]
20003a5a:	1ad3      	subs	r3, r2, r3
20003a5c:	683a      	ldr	r2, [r7, #0]
20003a5e:	429a      	cmp	r2, r3
20003a60:	d803      	bhi.n	20003a6a <HAL_SPI_Transmit+0x204>
20003a62:	683b      	ldr	r3, [r7, #0]
20003a64:	f1b3 3fff 	cmp.w	r3, #4294967295
20003a68:	d102      	bne.n	20003a70 <HAL_SPI_Transmit+0x20a>
20003a6a:	683b      	ldr	r3, [r7, #0]
20003a6c:	2b00      	cmp	r3, #0
20003a6e:	d102      	bne.n	20003a76 <HAL_SPI_Transmit+0x210>
20003a70:	2303      	movs	r3, #3
20003a72:	77fb      	strb	r3, [r7, #31]
20003a74:	e026      	b.n	20003ac4 <HAL_SPI_Transmit+0x25e>
20003a76:	68fb      	ldr	r3, [r7, #12]
20003a78:	8edb      	ldrh	r3, [r3, #54]	; 0x36
20003a7a:	b29b      	uxth	r3, r3
20003a7c:	2b00      	cmp	r3, #0
20003a7e:	d1cd      	bne.n	20003a1c <HAL_SPI_Transmit+0x1b6>
20003a80:	69ba      	ldr	r2, [r7, #24]
20003a82:	6839      	ldr	r1, [r7, #0]
20003a84:	68f8      	ldr	r0, [r7, #12]
20003a86:	f001 ff32 	bl	200058ee <SPI_EndRxTxTransaction>
20003a8a:	4603      	mov	r3, r0
20003a8c:	2b00      	cmp	r3, #0
20003a8e:	d002      	beq.n	20003a96 <HAL_SPI_Transmit+0x230>
20003a90:	68fb      	ldr	r3, [r7, #12]
20003a92:	2220      	movs	r2, #32
20003a94:	655a      	str	r2, [r3, #84]	; 0x54
20003a96:	68fb      	ldr	r3, [r7, #12]
20003a98:	689b      	ldr	r3, [r3, #8]
20003a9a:	2b00      	cmp	r3, #0
20003a9c:	d10a      	bne.n	20003ab4 <HAL_SPI_Transmit+0x24e>
20003a9e:	2300      	movs	r3, #0
20003aa0:	613b      	str	r3, [r7, #16]
20003aa2:	68fb      	ldr	r3, [r7, #12]
20003aa4:	681b      	ldr	r3, [r3, #0]
20003aa6:	68db      	ldr	r3, [r3, #12]
20003aa8:	613b      	str	r3, [r7, #16]
20003aaa:	68fb      	ldr	r3, [r7, #12]
20003aac:	681b      	ldr	r3, [r3, #0]
20003aae:	689b      	ldr	r3, [r3, #8]
20003ab0:	613b      	str	r3, [r7, #16]
20003ab2:	693b      	ldr	r3, [r7, #16]
20003ab4:	68fb      	ldr	r3, [r7, #12]
20003ab6:	6d5b      	ldr	r3, [r3, #84]	; 0x54
20003ab8:	2b00      	cmp	r3, #0
20003aba:	d002      	beq.n	20003ac2 <HAL_SPI_Transmit+0x25c>
20003abc:	2301      	movs	r3, #1
20003abe:	77fb      	strb	r3, [r7, #31]
20003ac0:	e000      	b.n	20003ac4 <HAL_SPI_Transmit+0x25e>
20003ac2:	bf00      	nop
20003ac4:	68fb      	ldr	r3, [r7, #12]
20003ac6:	2201      	movs	r2, #1
20003ac8:	f883 2051 	strb.w	r2, [r3, #81]	; 0x51
20003acc:	68fb      	ldr	r3, [r7, #12]
20003ace:	2200      	movs	r2, #0
20003ad0:	f883 2050 	strb.w	r2, [r3, #80]	; 0x50
20003ad4:	7ffb      	ldrb	r3, [r7, #31]
20003ad6:	4618      	mov	r0, r3
20003ad8:	3720      	adds	r7, #32
20003ada:	46bd      	mov	sp, r7
20003adc:	bd80      	pop	{r7, pc}

20003ade <HAL_SPI_Receive>:
20003ade:	b580      	push	{r7, lr}
20003ae0:	b088      	sub	sp, #32
20003ae2:	af02      	add	r7, sp, #8
20003ae4:	60f8      	str	r0, [r7, #12]
20003ae6:	60b9      	str	r1, [r7, #8]
20003ae8:	603b      	str	r3, [r7, #0]
20003aea:	4613      	mov	r3, r2
20003aec:	80fb      	strh	r3, [r7, #6]
20003aee:	2300      	movs	r3, #0
20003af0:	75fb      	strb	r3, [r7, #23]
20003af2:	68fb      	ldr	r3, [r7, #12]
20003af4:	685b      	ldr	r3, [r3, #4]
20003af6:	f5b3 7f82 	cmp.w	r3, #260	; 0x104
20003afa:	d112      	bne.n	20003b22 <HAL_SPI_Receive+0x44>
20003afc:	68fb      	ldr	r3, [r7, #12]
20003afe:	689b      	ldr	r3, [r3, #8]
20003b00:	2b00      	cmp	r3, #0
20003b02:	d10e      	bne.n	20003b22 <HAL_SPI_Receive+0x44>
20003b04:	68fb      	ldr	r3, [r7, #12]
20003b06:	2204      	movs	r2, #4
20003b08:	f883 2051 	strb.w	r2, [r3, #81]	; 0x51
20003b0c:	88fa      	ldrh	r2, [r7, #6]
20003b0e:	683b      	ldr	r3, [r7, #0]
20003b10:	9300      	str	r3, [sp, #0]
20003b12:	4613      	mov	r3, r2
20003b14:	68ba      	ldr	r2, [r7, #8]
20003b16:	68b9      	ldr	r1, [r7, #8]
20003b18:	68f8      	ldr	r0, [r7, #12]
20003b1a:	f000 f8f1 	bl	20003d00 <HAL_SPI_TransmitReceive>
20003b1e:	4603      	mov	r3, r0
20003b20:	e0ea      	b.n	20003cf8 <HAL_SPI_Receive+0x21a>
20003b22:	68fb      	ldr	r3, [r7, #12]
20003b24:	f893 3050 	ldrb.w	r3, [r3, #80]	; 0x50
20003b28:	2b01      	cmp	r3, #1
20003b2a:	d101      	bne.n	20003b30 <HAL_SPI_Receive+0x52>
20003b2c:	2302      	movs	r3, #2
20003b2e:	e0e3      	b.n	20003cf8 <HAL_SPI_Receive+0x21a>
20003b30:	68fb      	ldr	r3, [r7, #12]
20003b32:	2201      	movs	r2, #1
20003b34:	f883 2050 	strb.w	r2, [r3, #80]	; 0x50
20003b38:	f7fd fa90 	bl	2000105c <HAL_GetTick>
20003b3c:	6138      	str	r0, [r7, #16]
20003b3e:	68fb      	ldr	r3, [r7, #12]
20003b40:	f893 3051 	ldrb.w	r3, [r3, #81]	; 0x51
20003b44:	b2db      	uxtb	r3, r3
20003b46:	2b01      	cmp	r3, #1
20003b48:	d002      	beq.n	20003b50 <HAL_SPI_Receive+0x72>
20003b4a:	2302      	movs	r3, #2
20003b4c:	75fb      	strb	r3, [r7, #23]
20003b4e:	e0ca      	b.n	20003ce6 <HAL_SPI_Receive+0x208>
20003b50:	68bb      	ldr	r3, [r7, #8]
20003b52:	2b00      	cmp	r3, #0
20003b54:	d002      	beq.n	20003b5c <HAL_SPI_Receive+0x7e>
20003b56:	88fb      	ldrh	r3, [r7, #6]
20003b58:	2b00      	cmp	r3, #0
20003b5a:	d102      	bne.n	20003b62 <HAL_SPI_Receive+0x84>
20003b5c:	2301      	movs	r3, #1
20003b5e:	75fb      	strb	r3, [r7, #23]
20003b60:	e0c1      	b.n	20003ce6 <HAL_SPI_Receive+0x208>
20003b62:	68fb      	ldr	r3, [r7, #12]
20003b64:	2204      	movs	r2, #4
20003b66:	f883 2051 	strb.w	r2, [r3, #81]	; 0x51
20003b6a:	68fb      	ldr	r3, [r7, #12]
20003b6c:	2200      	movs	r2, #0
20003b6e:	655a      	str	r2, [r3, #84]	; 0x54
20003b70:	68fb      	ldr	r3, [r7, #12]
20003b72:	68ba      	ldr	r2, [r7, #8]
20003b74:	639a      	str	r2, [r3, #56]	; 0x38
20003b76:	68fb      	ldr	r3, [r7, #12]
20003b78:	88fa      	ldrh	r2, [r7, #6]
20003b7a:	879a      	strh	r2, [r3, #60]	; 0x3c
20003b7c:	68fb      	ldr	r3, [r7, #12]
20003b7e:	88fa      	ldrh	r2, [r7, #6]
20003b80:	87da      	strh	r2, [r3, #62]	; 0x3e
20003b82:	68fb      	ldr	r3, [r7, #12]
20003b84:	2200      	movs	r2, #0
20003b86:	631a      	str	r2, [r3, #48]	; 0x30
20003b88:	68fb      	ldr	r3, [r7, #12]
20003b8a:	2200      	movs	r2, #0
20003b8c:	869a      	strh	r2, [r3, #52]	; 0x34
20003b8e:	68fb      	ldr	r3, [r7, #12]
20003b90:	2200      	movs	r2, #0
20003b92:	86da      	strh	r2, [r3, #54]	; 0x36
20003b94:	68fb      	ldr	r3, [r7, #12]
20003b96:	2200      	movs	r2, #0
20003b98:	641a      	str	r2, [r3, #64]	; 0x40
20003b9a:	68fb      	ldr	r3, [r7, #12]
20003b9c:	2200      	movs	r2, #0
20003b9e:	645a      	str	r2, [r3, #68]	; 0x44
20003ba0:	68fb      	ldr	r3, [r7, #12]
20003ba2:	689b      	ldr	r3, [r3, #8]
20003ba4:	f5b3 4f00 	cmp.w	r3, #32768	; 0x8000
20003ba8:	d10f      	bne.n	20003bca <HAL_SPI_Receive+0xec>
20003baa:	68fb      	ldr	r3, [r7, #12]
20003bac:	681b      	ldr	r3, [r3, #0]
20003bae:	681a      	ldr	r2, [r3, #0]
20003bb0:	68fb      	ldr	r3, [r7, #12]
20003bb2:	681b      	ldr	r3, [r3, #0]
20003bb4:	f022 0240 	bic.w	r2, r2, #64	; 0x40
20003bb8:	601a      	str	r2, [r3, #0]
20003bba:	68fb      	ldr	r3, [r7, #12]
20003bbc:	681b      	ldr	r3, [r3, #0]
20003bbe:	681a      	ldr	r2, [r3, #0]
20003bc0:	68fb      	ldr	r3, [r7, #12]
20003bc2:	681b      	ldr	r3, [r3, #0]
20003bc4:	f422 4280 	bic.w	r2, r2, #16384	; 0x4000
20003bc8:	601a      	str	r2, [r3, #0]
20003bca:	68fb      	ldr	r3, [r7, #12]
20003bcc:	681b      	ldr	r3, [r3, #0]
20003bce:	681b      	ldr	r3, [r3, #0]
20003bd0:	f003 0340 	and.w	r3, r3, #64	; 0x40
20003bd4:	2b40      	cmp	r3, #64	; 0x40
20003bd6:	d007      	beq.n	20003be8 <HAL_SPI_Receive+0x10a>
20003bd8:	68fb      	ldr	r3, [r7, #12]
20003bda:	681b      	ldr	r3, [r3, #0]
20003bdc:	681a      	ldr	r2, [r3, #0]
20003bde:	68fb      	ldr	r3, [r7, #12]
20003be0:	681b      	ldr	r3, [r3, #0]
20003be2:	f042 0240 	orr.w	r2, r2, #64	; 0x40
20003be6:	601a      	str	r2, [r3, #0]
20003be8:	68fb      	ldr	r3, [r7, #12]
20003bea:	68db      	ldr	r3, [r3, #12]
20003bec:	2b00      	cmp	r3, #0
20003bee:	d162      	bne.n	20003cb6 <HAL_SPI_Receive+0x1d8>
20003bf0:	e02e      	b.n	20003c50 <HAL_SPI_Receive+0x172>
20003bf2:	68fb      	ldr	r3, [r7, #12]
20003bf4:	681b      	ldr	r3, [r3, #0]
20003bf6:	689b      	ldr	r3, [r3, #8]
20003bf8:	f003 0301 	and.w	r3, r3, #1
20003bfc:	2b01      	cmp	r3, #1
20003bfe:	d115      	bne.n	20003c2c <HAL_SPI_Receive+0x14e>
20003c00:	68fb      	ldr	r3, [r7, #12]
20003c02:	681b      	ldr	r3, [r3, #0]
20003c04:	f103 020c 	add.w	r2, r3, #12
20003c08:	68fb      	ldr	r3, [r7, #12]
20003c0a:	6b9b      	ldr	r3, [r3, #56]	; 0x38
20003c0c:	7812      	ldrb	r2, [r2, #0]
20003c0e:	b2d2      	uxtb	r2, r2
20003c10:	701a      	strb	r2, [r3, #0]
20003c12:	68fb      	ldr	r3, [r7, #12]
20003c14:	6b9b      	ldr	r3, [r3, #56]	; 0x38
20003c16:	1c5a      	adds	r2, r3, #1
20003c18:	68fb      	ldr	r3, [r7, #12]
20003c1a:	639a      	str	r2, [r3, #56]	; 0x38
20003c1c:	68fb      	ldr	r3, [r7, #12]
20003c1e:	8fdb      	ldrh	r3, [r3, #62]	; 0x3e
20003c20:	b29b      	uxth	r3, r3
20003c22:	3b01      	subs	r3, #1
20003c24:	b29a      	uxth	r2, r3
20003c26:	68fb      	ldr	r3, [r7, #12]
20003c28:	87da      	strh	r2, [r3, #62]	; 0x3e
20003c2a:	e011      	b.n	20003c50 <HAL_SPI_Receive+0x172>
20003c2c:	f7fd fa16 	bl	2000105c <HAL_GetTick>
20003c30:	4602      	mov	r2, r0
20003c32:	693b      	ldr	r3, [r7, #16]
20003c34:	1ad3      	subs	r3, r2, r3
20003c36:	683a      	ldr	r2, [r7, #0]
20003c38:	429a      	cmp	r2, r3
20003c3a:	d803      	bhi.n	20003c44 <HAL_SPI_Receive+0x166>
20003c3c:	683b      	ldr	r3, [r7, #0]
20003c3e:	f1b3 3fff 	cmp.w	r3, #4294967295
20003c42:	d102      	bne.n	20003c4a <HAL_SPI_Receive+0x16c>
20003c44:	683b      	ldr	r3, [r7, #0]
20003c46:	2b00      	cmp	r3, #0
20003c48:	d102      	bne.n	20003c50 <HAL_SPI_Receive+0x172>
20003c4a:	2303      	movs	r3, #3
20003c4c:	75fb      	strb	r3, [r7, #23]
20003c4e:	e04a      	b.n	20003ce6 <HAL_SPI_Receive+0x208>
20003c50:	68fb      	ldr	r3, [r7, #12]
20003c52:	8fdb      	ldrh	r3, [r3, #62]	; 0x3e
20003c54:	b29b      	uxth	r3, r3
20003c56:	2b00      	cmp	r3, #0
20003c58:	d1cb      	bne.n	20003bf2 <HAL_SPI_Receive+0x114>
20003c5a:	e031      	b.n	20003cc0 <HAL_SPI_Receive+0x1e2>
20003c5c:	68fb      	ldr	r3, [r7, #12]
20003c5e:	681b      	ldr	r3, [r3, #0]
20003c60:	689b      	ldr	r3, [r3, #8]
20003c62:	f003 0301 	and.w	r3, r3, #1
20003c66:	2b01      	cmp	r3, #1
20003c68:	d113      	bne.n	20003c92 <HAL_SPI_Receive+0x1b4>
20003c6a:	68fb      	ldr	r3, [r7, #12]
20003c6c:	681b      	ldr	r3, [r3, #0]
20003c6e:	68da      	ldr	r2, [r3, #12]
20003c70:	68fb      	ldr	r3, [r7, #12]
20003c72:	6b9b      	ldr	r3, [r3, #56]	; 0x38
20003c74:	b292      	uxth	r2, r2
20003c76:	801a      	strh	r2, [r3, #0]
20003c78:	68fb      	ldr	r3, [r7, #12]
20003c7a:	6b9b      	ldr	r3, [r3, #56]	; 0x38
20003c7c:	1c9a      	adds	r2, r3, #2
20003c7e:	68fb      	ldr	r3, [r7, #12]
20003c80:	639a      	str	r2, [r3, #56]	; 0x38
20003c82:	68fb      	ldr	r3, [r7, #12]
20003c84:	8fdb      	ldrh	r3, [r3, #62]	; 0x3e
20003c86:	b29b      	uxth	r3, r3
20003c88:	3b01      	subs	r3, #1
20003c8a:	b29a      	uxth	r2, r3
20003c8c:	68fb      	ldr	r3, [r7, #12]
20003c8e:	87da      	strh	r2, [r3, #62]	; 0x3e
20003c90:	e011      	b.n	20003cb6 <HAL_SPI_Receive+0x1d8>
20003c92:	f7fd f9e3 	bl	2000105c <HAL_GetTick>
20003c96:	4602      	mov	r2, r0
20003c98:	693b      	ldr	r3, [r7, #16]
20003c9a:	1ad3      	subs	r3, r2, r3
20003c9c:	683a      	ldr	r2, [r7, #0]
20003c9e:	429a      	cmp	r2, r3
20003ca0:	d803      	bhi.n	20003caa <HAL_SPI_Receive+0x1cc>
20003ca2:	683b      	ldr	r3, [r7, #0]
20003ca4:	f1b3 3fff 	cmp.w	r3, #4294967295
20003ca8:	d102      	bne.n	20003cb0 <HAL_SPI_Receive+0x1d2>
20003caa:	683b      	ldr	r3, [r7, #0]
20003cac:	2b00      	cmp	r3, #0
20003cae:	d102      	bne.n	20003cb6 <HAL_SPI_Receive+0x1d8>
20003cb0:	2303      	movs	r3, #3
20003cb2:	75fb      	strb	r3, [r7, #23]
20003cb4:	e017      	b.n	20003ce6 <HAL_SPI_Receive+0x208>
20003cb6:	68fb      	ldr	r3, [r7, #12]
20003cb8:	8fdb      	ldrh	r3, [r3, #62]	; 0x3e
20003cba:	b29b      	uxth	r3, r3
20003cbc:	2b00      	cmp	r3, #0
20003cbe:	d1cd      	bne.n	20003c5c <HAL_SPI_Receive+0x17e>
20003cc0:	693a      	ldr	r2, [r7, #16]
20003cc2:	6839      	ldr	r1, [r7, #0]
20003cc4:	68f8      	ldr	r0, [r7, #12]
20003cc6:	f001 fdad 	bl	20005824 <SPI_EndRxTransaction>
20003cca:	4603      	mov	r3, r0
20003ccc:	2b00      	cmp	r3, #0
20003cce:	d002      	beq.n	20003cd6 <HAL_SPI_Receive+0x1f8>
20003cd0:	68fb      	ldr	r3, [r7, #12]
20003cd2:	2220      	movs	r2, #32
20003cd4:	655a      	str	r2, [r3, #84]	; 0x54
20003cd6:	68fb      	ldr	r3, [r7, #12]
20003cd8:	6d5b      	ldr	r3, [r3, #84]	; 0x54
20003cda:	2b00      	cmp	r3, #0
20003cdc:	d002      	beq.n	20003ce4 <HAL_SPI_Receive+0x206>
20003cde:	2301      	movs	r3, #1
20003ce0:	75fb      	strb	r3, [r7, #23]
20003ce2:	e000      	b.n	20003ce6 <HAL_SPI_Receive+0x208>
20003ce4:	bf00      	nop
20003ce6:	68fb      	ldr	r3, [r7, #12]
20003ce8:	2201      	movs	r2, #1
20003cea:	f883 2051 	strb.w	r2, [r3, #81]	; 0x51
20003cee:	68fb      	ldr	r3, [r7, #12]
20003cf0:	2200      	movs	r2, #0
20003cf2:	f883 2050 	strb.w	r2, [r3, #80]	; 0x50
20003cf6:	7dfb      	ldrb	r3, [r7, #23]
20003cf8:	4618      	mov	r0, r3
20003cfa:	3718      	adds	r7, #24
20003cfc:	46bd      	mov	sp, r7
20003cfe:	bd80      	pop	{r7, pc}

20003d00 <HAL_SPI_TransmitReceive>:
20003d00:	b580      	push	{r7, lr}
20003d02:	b08c      	sub	sp, #48	; 0x30
20003d04:	af00      	add	r7, sp, #0
20003d06:	60f8      	str	r0, [r7, #12]
20003d08:	60b9      	str	r1, [r7, #8]
20003d0a:	607a      	str	r2, [r7, #4]
20003d0c:	807b      	strh	r3, [r7, #2]
20003d0e:	2301      	movs	r3, #1
20003d10:	62fb      	str	r3, [r7, #44]	; 0x2c
20003d12:	2300      	movs	r3, #0
20003d14:	f887 302b 	strb.w	r3, [r7, #43]	; 0x2b
20003d18:	68fb      	ldr	r3, [r7, #12]
20003d1a:	f893 3050 	ldrb.w	r3, [r3, #80]	; 0x50
20003d1e:	2b01      	cmp	r3, #1
20003d20:	d101      	bne.n	20003d26 <HAL_SPI_TransmitReceive+0x26>
20003d22:	2302      	movs	r3, #2
20003d24:	e18a      	b.n	2000403c <HAL_SPI_TransmitReceive+0x33c>
20003d26:	68fb      	ldr	r3, [r7, #12]
20003d28:	2201      	movs	r2, #1
20003d2a:	f883 2050 	strb.w	r2, [r3, #80]	; 0x50
20003d2e:	f7fd f995 	bl	2000105c <HAL_GetTick>
20003d32:	6278      	str	r0, [r7, #36]	; 0x24
20003d34:	68fb      	ldr	r3, [r7, #12]
20003d36:	f893 3051 	ldrb.w	r3, [r3, #81]	; 0x51
20003d3a:	f887 3023 	strb.w	r3, [r7, #35]	; 0x23
20003d3e:	68fb      	ldr	r3, [r7, #12]
20003d40:	685b      	ldr	r3, [r3, #4]
20003d42:	61fb      	str	r3, [r7, #28]
20003d44:	887b      	ldrh	r3, [r7, #2]
20003d46:	837b      	strh	r3, [r7, #26]
20003d48:	f897 3023 	ldrb.w	r3, [r7, #35]	; 0x23
20003d4c:	2b01      	cmp	r3, #1
20003d4e:	d00f      	beq.n	20003d70 <HAL_SPI_TransmitReceive+0x70>
20003d50:	69fb      	ldr	r3, [r7, #28]
20003d52:	f5b3 7f82 	cmp.w	r3, #260	; 0x104
20003d56:	d107      	bne.n	20003d68 <HAL_SPI_TransmitReceive+0x68>
20003d58:	68fb      	ldr	r3, [r7, #12]
20003d5a:	689b      	ldr	r3, [r3, #8]
20003d5c:	2b00      	cmp	r3, #0
20003d5e:	d103      	bne.n	20003d68 <HAL_SPI_TransmitReceive+0x68>
20003d60:	f897 3023 	ldrb.w	r3, [r7, #35]	; 0x23
20003d64:	2b04      	cmp	r3, #4
20003d66:	d003      	beq.n	20003d70 <HAL_SPI_TransmitReceive+0x70>
20003d68:	2302      	movs	r3, #2
20003d6a:	f887 302b 	strb.w	r3, [r7, #43]	; 0x2b
20003d6e:	e15b      	b.n	20004028 <HAL_SPI_TransmitReceive+0x328>
20003d70:	68bb      	ldr	r3, [r7, #8]
20003d72:	2b00      	cmp	r3, #0
20003d74:	d005      	beq.n	20003d82 <HAL_SPI_TransmitReceive+0x82>
20003d76:	687b      	ldr	r3, [r7, #4]
20003d78:	2b00      	cmp	r3, #0
20003d7a:	d002      	beq.n	20003d82 <HAL_SPI_TransmitReceive+0x82>
20003d7c:	887b      	ldrh	r3, [r7, #2]
20003d7e:	2b00      	cmp	r3, #0
20003d80:	d103      	bne.n	20003d8a <HAL_SPI_TransmitReceive+0x8a>
20003d82:	2301      	movs	r3, #1
20003d84:	f887 302b 	strb.w	r3, [r7, #43]	; 0x2b
20003d88:	e14e      	b.n	20004028 <HAL_SPI_TransmitReceive+0x328>
20003d8a:	68fb      	ldr	r3, [r7, #12]
20003d8c:	f893 3051 	ldrb.w	r3, [r3, #81]	; 0x51
20003d90:	b2db      	uxtb	r3, r3
20003d92:	2b04      	cmp	r3, #4
20003d94:	d003      	beq.n	20003d9e <HAL_SPI_TransmitReceive+0x9e>
20003d96:	68fb      	ldr	r3, [r7, #12]
20003d98:	2205      	movs	r2, #5
20003d9a:	f883 2051 	strb.w	r2, [r3, #81]	; 0x51
20003d9e:	68fb      	ldr	r3, [r7, #12]
20003da0:	2200      	movs	r2, #0
20003da2:	655a      	str	r2, [r3, #84]	; 0x54
20003da4:	68fb      	ldr	r3, [r7, #12]
20003da6:	687a      	ldr	r2, [r7, #4]
20003da8:	639a      	str	r2, [r3, #56]	; 0x38
20003daa:	68fb      	ldr	r3, [r7, #12]
20003dac:	887a      	ldrh	r2, [r7, #2]
20003dae:	87da      	strh	r2, [r3, #62]	; 0x3e
20003db0:	68fb      	ldr	r3, [r7, #12]
20003db2:	887a      	ldrh	r2, [r7, #2]
20003db4:	879a      	strh	r2, [r3, #60]	; 0x3c
20003db6:	68fb      	ldr	r3, [r7, #12]
20003db8:	68ba      	ldr	r2, [r7, #8]
20003dba:	631a      	str	r2, [r3, #48]	; 0x30
20003dbc:	68fb      	ldr	r3, [r7, #12]
20003dbe:	887a      	ldrh	r2, [r7, #2]
20003dc0:	86da      	strh	r2, [r3, #54]	; 0x36
20003dc2:	68fb      	ldr	r3, [r7, #12]
20003dc4:	887a      	ldrh	r2, [r7, #2]
20003dc6:	869a      	strh	r2, [r3, #52]	; 0x34
20003dc8:	68fb      	ldr	r3, [r7, #12]
20003dca:	2200      	movs	r2, #0
20003dcc:	641a      	str	r2, [r3, #64]	; 0x40
20003dce:	68fb      	ldr	r3, [r7, #12]
20003dd0:	2200      	movs	r2, #0
20003dd2:	645a      	str	r2, [r3, #68]	; 0x44
20003dd4:	68fb      	ldr	r3, [r7, #12]
20003dd6:	681b      	ldr	r3, [r3, #0]
20003dd8:	681b      	ldr	r3, [r3, #0]
20003dda:	f003 0340 	and.w	r3, r3, #64	; 0x40
20003dde:	2b40      	cmp	r3, #64	; 0x40
20003de0:	d007      	beq.n	20003df2 <HAL_SPI_TransmitReceive+0xf2>
20003de2:	68fb      	ldr	r3, [r7, #12]
20003de4:	681b      	ldr	r3, [r3, #0]
20003de6:	681a      	ldr	r2, [r3, #0]
20003de8:	68fb      	ldr	r3, [r7, #12]
20003dea:	681b      	ldr	r3, [r3, #0]
20003dec:	f042 0240 	orr.w	r2, r2, #64	; 0x40
20003df0:	601a      	str	r2, [r3, #0]
20003df2:	68fb      	ldr	r3, [r7, #12]
20003df4:	68db      	ldr	r3, [r3, #12]
20003df6:	f5b3 6f00 	cmp.w	r3, #2048	; 0x800
20003dfa:	d178      	bne.n	20003eee <HAL_SPI_TransmitReceive+0x1ee>
20003dfc:	68fb      	ldr	r3, [r7, #12]
20003dfe:	685b      	ldr	r3, [r3, #4]
20003e00:	2b00      	cmp	r3, #0
20003e02:	d002      	beq.n	20003e0a <HAL_SPI_TransmitReceive+0x10a>
20003e04:	8b7b      	ldrh	r3, [r7, #26]
20003e06:	2b01      	cmp	r3, #1
20003e08:	d166      	bne.n	20003ed8 <HAL_SPI_TransmitReceive+0x1d8>
20003e0a:	68fb      	ldr	r3, [r7, #12]
20003e0c:	6b1b      	ldr	r3, [r3, #48]	; 0x30
20003e0e:	881a      	ldrh	r2, [r3, #0]
20003e10:	68fb      	ldr	r3, [r7, #12]
20003e12:	681b      	ldr	r3, [r3, #0]
20003e14:	60da      	str	r2, [r3, #12]
20003e16:	68fb      	ldr	r3, [r7, #12]
20003e18:	6b1b      	ldr	r3, [r3, #48]	; 0x30
20003e1a:	1c9a      	adds	r2, r3, #2
20003e1c:	68fb      	ldr	r3, [r7, #12]
20003e1e:	631a      	str	r2, [r3, #48]	; 0x30
20003e20:	68fb      	ldr	r3, [r7, #12]
20003e22:	8edb      	ldrh	r3, [r3, #54]	; 0x36
20003e24:	b29b      	uxth	r3, r3
20003e26:	3b01      	subs	r3, #1
20003e28:	b29a      	uxth	r2, r3
20003e2a:	68fb      	ldr	r3, [r7, #12]
20003e2c:	86da      	strh	r2, [r3, #54]	; 0x36
20003e2e:	e053      	b.n	20003ed8 <HAL_SPI_TransmitReceive+0x1d8>
20003e30:	68fb      	ldr	r3, [r7, #12]
20003e32:	681b      	ldr	r3, [r3, #0]
20003e34:	689b      	ldr	r3, [r3, #8]
20003e36:	f003 0302 	and.w	r3, r3, #2
20003e3a:	2b02      	cmp	r3, #2
20003e3c:	d11b      	bne.n	20003e76 <HAL_SPI_TransmitReceive+0x176>
20003e3e:	68fb      	ldr	r3, [r7, #12]
20003e40:	8edb      	ldrh	r3, [r3, #54]	; 0x36
20003e42:	b29b      	uxth	r3, r3
20003e44:	2b00      	cmp	r3, #0
20003e46:	d016      	beq.n	20003e76 <HAL_SPI_TransmitReceive+0x176>
20003e48:	6afb      	ldr	r3, [r7, #44]	; 0x2c
20003e4a:	2b01      	cmp	r3, #1
20003e4c:	d113      	bne.n	20003e76 <HAL_SPI_TransmitReceive+0x176>
20003e4e:	68fb      	ldr	r3, [r7, #12]
20003e50:	6b1b      	ldr	r3, [r3, #48]	; 0x30
20003e52:	881a      	ldrh	r2, [r3, #0]
20003e54:	68fb      	ldr	r3, [r7, #12]
20003e56:	681b      	ldr	r3, [r3, #0]
20003e58:	60da      	str	r2, [r3, #12]
20003e5a:	68fb      	ldr	r3, [r7, #12]
20003e5c:	6b1b      	ldr	r3, [r3, #48]	; 0x30
20003e5e:	1c9a      	adds	r2, r3, #2
20003e60:	68fb      	ldr	r3, [r7, #12]
20003e62:	631a      	str	r2, [r3, #48]	; 0x30
20003e64:	68fb      	ldr	r3, [r7, #12]
20003e66:	8edb      	ldrh	r3, [r3, #54]	; 0x36
20003e68:	b29b      	uxth	r3, r3
20003e6a:	3b01      	subs	r3, #1
20003e6c:	b29a      	uxth	r2, r3
20003e6e:	68fb      	ldr	r3, [r7, #12]
20003e70:	86da      	strh	r2, [r3, #54]	; 0x36
20003e72:	2300      	movs	r3, #0
20003e74:	62fb      	str	r3, [r7, #44]	; 0x2c
20003e76:	68fb      	ldr	r3, [r7, #12]
20003e78:	681b      	ldr	r3, [r3, #0]
20003e7a:	689b      	ldr	r3, [r3, #8]
20003e7c:	f003 0301 	and.w	r3, r3, #1
20003e80:	2b01      	cmp	r3, #1
20003e82:	d119      	bne.n	20003eb8 <HAL_SPI_TransmitReceive+0x1b8>
20003e84:	68fb      	ldr	r3, [r7, #12]
20003e86:	8fdb      	ldrh	r3, [r3, #62]	; 0x3e
20003e88:	b29b      	uxth	r3, r3
20003e8a:	2b00      	cmp	r3, #0
20003e8c:	d014      	beq.n	20003eb8 <HAL_SPI_TransmitReceive+0x1b8>
20003e8e:	68fb      	ldr	r3, [r7, #12]
20003e90:	681b      	ldr	r3, [r3, #0]
20003e92:	68da      	ldr	r2, [r3, #12]
20003e94:	68fb      	ldr	r3, [r7, #12]
20003e96:	6b9b      	ldr	r3, [r3, #56]	; 0x38
20003e98:	b292      	uxth	r2, r2
20003e9a:	801a      	strh	r2, [r3, #0]
20003e9c:	68fb      	ldr	r3, [r7, #12]
20003e9e:	6b9b      	ldr	r3, [r3, #56]	; 0x38
20003ea0:	1c9a      	adds	r2, r3, #2
20003ea2:	68fb      	ldr	r3, [r7, #12]
20003ea4:	639a      	str	r2, [r3, #56]	; 0x38
20003ea6:	68fb      	ldr	r3, [r7, #12]
20003ea8:	8fdb      	ldrh	r3, [r3, #62]	; 0x3e
20003eaa:	b29b      	uxth	r3, r3
20003eac:	3b01      	subs	r3, #1
20003eae:	b29a      	uxth	r2, r3
20003eb0:	68fb      	ldr	r3, [r7, #12]
20003eb2:	87da      	strh	r2, [r3, #62]	; 0x3e
20003eb4:	2301      	movs	r3, #1
20003eb6:	62fb      	str	r3, [r7, #44]	; 0x2c
20003eb8:	f7fd f8d0 	bl	2000105c <HAL_GetTick>
20003ebc:	4602      	mov	r2, r0
20003ebe:	6a7b      	ldr	r3, [r7, #36]	; 0x24
20003ec0:	1ad3      	subs	r3, r2, r3
20003ec2:	6bba      	ldr	r2, [r7, #56]	; 0x38
20003ec4:	429a      	cmp	r2, r3
20003ec6:	d807      	bhi.n	20003ed8 <HAL_SPI_TransmitReceive+0x1d8>
20003ec8:	6bbb      	ldr	r3, [r7, #56]	; 0x38
20003eca:	f1b3 3fff 	cmp.w	r3, #4294967295
20003ece:	d003      	beq.n	20003ed8 <HAL_SPI_TransmitReceive+0x1d8>
20003ed0:	2303      	movs	r3, #3
20003ed2:	f887 302b 	strb.w	r3, [r7, #43]	; 0x2b
20003ed6:	e0a7      	b.n	20004028 <HAL_SPI_TransmitReceive+0x328>
20003ed8:	68fb      	ldr	r3, [r7, #12]
20003eda:	8edb      	ldrh	r3, [r3, #54]	; 0x36
20003edc:	b29b      	uxth	r3, r3
20003ede:	2b00      	cmp	r3, #0
20003ee0:	d1a6      	bne.n	20003e30 <HAL_SPI_TransmitReceive+0x130>
20003ee2:	68fb      	ldr	r3, [r7, #12]
20003ee4:	8fdb      	ldrh	r3, [r3, #62]	; 0x3e
20003ee6:	b29b      	uxth	r3, r3
20003ee8:	2b00      	cmp	r3, #0
20003eea:	d1a1      	bne.n	20003e30 <HAL_SPI_TransmitReceive+0x130>
20003eec:	e07c      	b.n	20003fe8 <HAL_SPI_TransmitReceive+0x2e8>
20003eee:	68fb      	ldr	r3, [r7, #12]
20003ef0:	685b      	ldr	r3, [r3, #4]
20003ef2:	2b00      	cmp	r3, #0
20003ef4:	d002      	beq.n	20003efc <HAL_SPI_TransmitReceive+0x1fc>
20003ef6:	8b7b      	ldrh	r3, [r7, #26]
20003ef8:	2b01      	cmp	r3, #1
20003efa:	d16b      	bne.n	20003fd4 <HAL_SPI_TransmitReceive+0x2d4>
20003efc:	68fb      	ldr	r3, [r7, #12]
20003efe:	6b1a      	ldr	r2, [r3, #48]	; 0x30
20003f00:	68fb      	ldr	r3, [r7, #12]
20003f02:	681b      	ldr	r3, [r3, #0]
20003f04:	330c      	adds	r3, #12
20003f06:	7812      	ldrb	r2, [r2, #0]
20003f08:	701a      	strb	r2, [r3, #0]
20003f0a:	68fb      	ldr	r3, [r7, #12]
20003f0c:	6b1b      	ldr	r3, [r3, #48]	; 0x30
20003f0e:	1c5a      	adds	r2, r3, #1
20003f10:	68fb      	ldr	r3, [r7, #12]
20003f12:	631a      	str	r2, [r3, #48]	; 0x30
20003f14:	68fb      	ldr	r3, [r7, #12]
20003f16:	8edb      	ldrh	r3, [r3, #54]	; 0x36
20003f18:	b29b      	uxth	r3, r3
20003f1a:	3b01      	subs	r3, #1
20003f1c:	b29a      	uxth	r2, r3
20003f1e:	68fb      	ldr	r3, [r7, #12]
20003f20:	86da      	strh	r2, [r3, #54]	; 0x36
20003f22:	e057      	b.n	20003fd4 <HAL_SPI_TransmitReceive+0x2d4>
20003f24:	68fb      	ldr	r3, [r7, #12]
20003f26:	681b      	ldr	r3, [r3, #0]
20003f28:	689b      	ldr	r3, [r3, #8]
20003f2a:	f003 0302 	and.w	r3, r3, #2
20003f2e:	2b02      	cmp	r3, #2
20003f30:	d11c      	bne.n	20003f6c <HAL_SPI_TransmitReceive+0x26c>
20003f32:	68fb      	ldr	r3, [r7, #12]
20003f34:	8edb      	ldrh	r3, [r3, #54]	; 0x36
20003f36:	b29b      	uxth	r3, r3
20003f38:	2b00      	cmp	r3, #0
20003f3a:	d017      	beq.n	20003f6c <HAL_SPI_TransmitReceive+0x26c>
20003f3c:	6afb      	ldr	r3, [r7, #44]	; 0x2c
20003f3e:	2b01      	cmp	r3, #1
20003f40:	d114      	bne.n	20003f6c <HAL_SPI_TransmitReceive+0x26c>
20003f42:	68fb      	ldr	r3, [r7, #12]
20003f44:	6b1a      	ldr	r2, [r3, #48]	; 0x30
20003f46:	68fb      	ldr	r3, [r7, #12]
20003f48:	681b      	ldr	r3, [r3, #0]
20003f4a:	330c      	adds	r3, #12
20003f4c:	7812      	ldrb	r2, [r2, #0]
20003f4e:	701a      	strb	r2, [r3, #0]
20003f50:	68fb      	ldr	r3, [r7, #12]
20003f52:	6b1b      	ldr	r3, [r3, #48]	; 0x30
20003f54:	1c5a      	adds	r2, r3, #1
20003f56:	68fb      	ldr	r3, [r7, #12]
20003f58:	631a      	str	r2, [r3, #48]	; 0x30
20003f5a:	68fb      	ldr	r3, [r7, #12]
20003f5c:	8edb      	ldrh	r3, [r3, #54]	; 0x36
20003f5e:	b29b      	uxth	r3, r3
20003f60:	3b01      	subs	r3, #1
20003f62:	b29a      	uxth	r2, r3
20003f64:	68fb      	ldr	r3, [r7, #12]
20003f66:	86da      	strh	r2, [r3, #54]	; 0x36
20003f68:	2300      	movs	r3, #0
20003f6a:	62fb      	str	r3, [r7, #44]	; 0x2c
20003f6c:	68fb      	ldr	r3, [r7, #12]
20003f6e:	681b      	ldr	r3, [r3, #0]
20003f70:	689b      	ldr	r3, [r3, #8]
20003f72:	f003 0301 	and.w	r3, r3, #1
20003f76:	2b01      	cmp	r3, #1
20003f78:	d119      	bne.n	20003fae <HAL_SPI_TransmitReceive+0x2ae>
20003f7a:	68fb      	ldr	r3, [r7, #12]
20003f7c:	8fdb      	ldrh	r3, [r3, #62]	; 0x3e
20003f7e:	b29b      	uxth	r3, r3
20003f80:	2b00      	cmp	r3, #0
20003f82:	d014      	beq.n	20003fae <HAL_SPI_TransmitReceive+0x2ae>
20003f84:	68fb      	ldr	r3, [r7, #12]
20003f86:	681b      	ldr	r3, [r3, #0]
20003f88:	68da      	ldr	r2, [r3, #12]
20003f8a:	68fb      	ldr	r3, [r7, #12]
20003f8c:	6b9b      	ldr	r3, [r3, #56]	; 0x38
20003f8e:	b2d2      	uxtb	r2, r2
20003f90:	701a      	strb	r2, [r3, #0]
20003f92:	68fb      	ldr	r3, [r7, #12]
20003f94:	6b9b      	ldr	r3, [r3, #56]	; 0x38
20003f96:	1c5a      	adds	r2, r3, #1
20003f98:	68fb      	ldr	r3, [r7, #12]
20003f9a:	639a      	str	r2, [r3, #56]	; 0x38
20003f9c:	68fb      	ldr	r3, [r7, #12]
20003f9e:	8fdb      	ldrh	r3, [r3, #62]	; 0x3e
20003fa0:	b29b      	uxth	r3, r3
20003fa2:	3b01      	subs	r3, #1
20003fa4:	b29a      	uxth	r2, r3
20003fa6:	68fb      	ldr	r3, [r7, #12]
20003fa8:	87da      	strh	r2, [r3, #62]	; 0x3e
20003faa:	2301      	movs	r3, #1
20003fac:	62fb      	str	r3, [r7, #44]	; 0x2c
20003fae:	f7fd f855 	bl	2000105c <HAL_GetTick>
20003fb2:	4602      	mov	r2, r0
20003fb4:	6a7b      	ldr	r3, [r7, #36]	; 0x24
20003fb6:	1ad3      	subs	r3, r2, r3
20003fb8:	6bba      	ldr	r2, [r7, #56]	; 0x38
20003fba:	429a      	cmp	r2, r3
20003fbc:	d803      	bhi.n	20003fc6 <HAL_SPI_TransmitReceive+0x2c6>
20003fbe:	6bbb      	ldr	r3, [r7, #56]	; 0x38
20003fc0:	f1b3 3fff 	cmp.w	r3, #4294967295
20003fc4:	d102      	bne.n	20003fcc <HAL_SPI_TransmitReceive+0x2cc>
20003fc6:	6bbb      	ldr	r3, [r7, #56]	; 0x38
20003fc8:	2b00      	cmp	r3, #0
20003fca:	d103      	bne.n	20003fd4 <HAL_SPI_TransmitReceive+0x2d4>
20003fcc:	2303      	movs	r3, #3
20003fce:	f887 302b 	strb.w	r3, [r7, #43]	; 0x2b
20003fd2:	e029      	b.n	20004028 <HAL_SPI_TransmitReceive+0x328>
20003fd4:	68fb      	ldr	r3, [r7, #12]
20003fd6:	8edb      	ldrh	r3, [r3, #54]	; 0x36
20003fd8:	b29b      	uxth	r3, r3
20003fda:	2b00      	cmp	r3, #0
20003fdc:	d1a2      	bne.n	20003f24 <HAL_SPI_TransmitReceive+0x224>
20003fde:	68fb      	ldr	r3, [r7, #12]
20003fe0:	8fdb      	ldrh	r3, [r3, #62]	; 0x3e
20003fe2:	b29b      	uxth	r3, r3
20003fe4:	2b00      	cmp	r3, #0
20003fe6:	d19d      	bne.n	20003f24 <HAL_SPI_TransmitReceive+0x224>
20003fe8:	6a7a      	ldr	r2, [r7, #36]	; 0x24
20003fea:	6bb9      	ldr	r1, [r7, #56]	; 0x38
20003fec:	68f8      	ldr	r0, [r7, #12]
20003fee:	f001 fc7e 	bl	200058ee <SPI_EndRxTxTransaction>
20003ff2:	4603      	mov	r3, r0
20003ff4:	2b00      	cmp	r3, #0
20003ff6:	d006      	beq.n	20004006 <HAL_SPI_TransmitReceive+0x306>
20003ff8:	2301      	movs	r3, #1
20003ffa:	f887 302b 	strb.w	r3, [r7, #43]	; 0x2b
20003ffe:	68fb      	ldr	r3, [r7, #12]
20004000:	2220      	movs	r2, #32
20004002:	655a      	str	r2, [r3, #84]	; 0x54
20004004:	e010      	b.n	20004028 <HAL_SPI_TransmitReceive+0x328>
20004006:	68fb      	ldr	r3, [r7, #12]
20004008:	689b      	ldr	r3, [r3, #8]
2000400a:	2b00      	cmp	r3, #0
2000400c:	d10b      	bne.n	20004026 <HAL_SPI_TransmitReceive+0x326>
2000400e:	2300      	movs	r3, #0
20004010:	617b      	str	r3, [r7, #20]
20004012:	68fb      	ldr	r3, [r7, #12]
20004014:	681b      	ldr	r3, [r3, #0]
20004016:	68db      	ldr	r3, [r3, #12]
20004018:	617b      	str	r3, [r7, #20]
2000401a:	68fb      	ldr	r3, [r7, #12]
2000401c:	681b      	ldr	r3, [r3, #0]
2000401e:	689b      	ldr	r3, [r3, #8]
20004020:	617b      	str	r3, [r7, #20]
20004022:	697b      	ldr	r3, [r7, #20]
20004024:	e000      	b.n	20004028 <HAL_SPI_TransmitReceive+0x328>
20004026:	bf00      	nop
20004028:	68fb      	ldr	r3, [r7, #12]
2000402a:	2201      	movs	r2, #1
2000402c:	f883 2051 	strb.w	r2, [r3, #81]	; 0x51
20004030:	68fb      	ldr	r3, [r7, #12]
20004032:	2200      	movs	r2, #0
20004034:	f883 2050 	strb.w	r2, [r3, #80]	; 0x50
20004038:	f897 302b 	ldrb.w	r3, [r7, #43]	; 0x2b
2000403c:	4618      	mov	r0, r3
2000403e:	3730      	adds	r7, #48	; 0x30
20004040:	46bd      	mov	sp, r7
20004042:	bd80      	pop	{r7, pc}

20004044 <HAL_SPI_Transmit_IT>:
20004044:	b480      	push	{r7}
20004046:	b087      	sub	sp, #28
20004048:	af00      	add	r7, sp, #0
2000404a:	60f8      	str	r0, [r7, #12]
2000404c:	60b9      	str	r1, [r7, #8]
2000404e:	4613      	mov	r3, r2
20004050:	80fb      	strh	r3, [r7, #6]
20004052:	2300      	movs	r3, #0
20004054:	75fb      	strb	r3, [r7, #23]
20004056:	68fb      	ldr	r3, [r7, #12]
20004058:	f893 3050 	ldrb.w	r3, [r3, #80]	; 0x50
2000405c:	2b01      	cmp	r3, #1
2000405e:	d101      	bne.n	20004064 <HAL_SPI_Transmit_IT+0x20>
20004060:	2302      	movs	r3, #2
20004062:	e06f      	b.n	20004144 <HAL_SPI_Transmit_IT+0x100>
20004064:	68fb      	ldr	r3, [r7, #12]
20004066:	2201      	movs	r2, #1
20004068:	f883 2050 	strb.w	r2, [r3, #80]	; 0x50
2000406c:	68bb      	ldr	r3, [r7, #8]
2000406e:	2b00      	cmp	r3, #0
20004070:	d002      	beq.n	20004078 <HAL_SPI_Transmit_IT+0x34>
20004072:	88fb      	ldrh	r3, [r7, #6]
20004074:	2b00      	cmp	r3, #0
20004076:	d102      	bne.n	2000407e <HAL_SPI_Transmit_IT+0x3a>
20004078:	2301      	movs	r3, #1
2000407a:	75fb      	strb	r3, [r7, #23]
2000407c:	e05d      	b.n	2000413a <HAL_SPI_Transmit_IT+0xf6>
2000407e:	68fb      	ldr	r3, [r7, #12]
20004080:	f893 3051 	ldrb.w	r3, [r3, #81]	; 0x51
20004084:	b2db      	uxtb	r3, r3
20004086:	2b01      	cmp	r3, #1
20004088:	d002      	beq.n	20004090 <HAL_SPI_Transmit_IT+0x4c>
2000408a:	2302      	movs	r3, #2
2000408c:	75fb      	strb	r3, [r7, #23]
2000408e:	e054      	b.n	2000413a <HAL_SPI_Transmit_IT+0xf6>
20004090:	68fb      	ldr	r3, [r7, #12]
20004092:	2203      	movs	r2, #3
20004094:	f883 2051 	strb.w	r2, [r3, #81]	; 0x51
20004098:	68fb      	ldr	r3, [r7, #12]
2000409a:	2200      	movs	r2, #0
2000409c:	655a      	str	r2, [r3, #84]	; 0x54
2000409e:	68fb      	ldr	r3, [r7, #12]
200040a0:	68ba      	ldr	r2, [r7, #8]
200040a2:	631a      	str	r2, [r3, #48]	; 0x30
200040a4:	68fb      	ldr	r3, [r7, #12]
200040a6:	88fa      	ldrh	r2, [r7, #6]
200040a8:	869a      	strh	r2, [r3, #52]	; 0x34
200040aa:	68fb      	ldr	r3, [r7, #12]
200040ac:	88fa      	ldrh	r2, [r7, #6]
200040ae:	86da      	strh	r2, [r3, #54]	; 0x36
200040b0:	68fb      	ldr	r3, [r7, #12]
200040b2:	2200      	movs	r2, #0
200040b4:	639a      	str	r2, [r3, #56]	; 0x38
200040b6:	68fb      	ldr	r3, [r7, #12]
200040b8:	2200      	movs	r2, #0
200040ba:	879a      	strh	r2, [r3, #60]	; 0x3c
200040bc:	68fb      	ldr	r3, [r7, #12]
200040be:	2200      	movs	r2, #0
200040c0:	87da      	strh	r2, [r3, #62]	; 0x3e
200040c2:	68fb      	ldr	r3, [r7, #12]
200040c4:	2200      	movs	r2, #0
200040c6:	641a      	str	r2, [r3, #64]	; 0x40
200040c8:	68fb      	ldr	r3, [r7, #12]
200040ca:	68db      	ldr	r3, [r3, #12]
200040cc:	2b00      	cmp	r3, #0
200040ce:	d003      	beq.n	200040d8 <HAL_SPI_Transmit_IT+0x94>
200040d0:	68fb      	ldr	r3, [r7, #12]
200040d2:	4a1f      	ldr	r2, [pc, #124]	; (20004150 <HAL_SPI_Transmit_IT+0x10c>)
200040d4:	645a      	str	r2, [r3, #68]	; 0x44
200040d6:	e002      	b.n	200040de <HAL_SPI_Transmit_IT+0x9a>
200040d8:	68fb      	ldr	r3, [r7, #12]
200040da:	4a1e      	ldr	r2, [pc, #120]	; (20004154 <HAL_SPI_Transmit_IT+0x110>)
200040dc:	645a      	str	r2, [r3, #68]	; 0x44
200040de:	68fb      	ldr	r3, [r7, #12]
200040e0:	689b      	ldr	r3, [r3, #8]
200040e2:	f5b3 4f00 	cmp.w	r3, #32768	; 0x8000
200040e6:	d10f      	bne.n	20004108 <HAL_SPI_Transmit_IT+0xc4>
200040e8:	68fb      	ldr	r3, [r7, #12]
200040ea:	681b      	ldr	r3, [r3, #0]
200040ec:	681a      	ldr	r2, [r3, #0]
200040ee:	68fb      	ldr	r3, [r7, #12]
200040f0:	681b      	ldr	r3, [r3, #0]
200040f2:	f022 0240 	bic.w	r2, r2, #64	; 0x40
200040f6:	601a      	str	r2, [r3, #0]
200040f8:	68fb      	ldr	r3, [r7, #12]
200040fa:	681b      	ldr	r3, [r3, #0]
200040fc:	681a      	ldr	r2, [r3, #0]
200040fe:	68fb      	ldr	r3, [r7, #12]
20004100:	681b      	ldr	r3, [r3, #0]
20004102:	f442 4280 	orr.w	r2, r2, #16384	; 0x4000
20004106:	601a      	str	r2, [r3, #0]
20004108:	68fb      	ldr	r3, [r7, #12]
2000410a:	681b      	ldr	r3, [r3, #0]
2000410c:	685a      	ldr	r2, [r3, #4]
2000410e:	68fb      	ldr	r3, [r7, #12]
20004110:	681b      	ldr	r3, [r3, #0]
20004112:	f042 02a0 	orr.w	r2, r2, #160	; 0xa0
20004116:	605a      	str	r2, [r3, #4]
20004118:	68fb      	ldr	r3, [r7, #12]
2000411a:	681b      	ldr	r3, [r3, #0]
2000411c:	681b      	ldr	r3, [r3, #0]
2000411e:	f003 0340 	and.w	r3, r3, #64	; 0x40
20004122:	2b40      	cmp	r3, #64	; 0x40
20004124:	d008      	beq.n	20004138 <HAL_SPI_Transmit_IT+0xf4>
20004126:	68fb      	ldr	r3, [r7, #12]
20004128:	681b      	ldr	r3, [r3, #0]
2000412a:	681a      	ldr	r2, [r3, #0]
2000412c:	68fb      	ldr	r3, [r7, #12]
2000412e:	681b      	ldr	r3, [r3, #0]
20004130:	f042 0240 	orr.w	r2, r2, #64	; 0x40
20004134:	601a      	str	r2, [r3, #0]
20004136:	e000      	b.n	2000413a <HAL_SPI_Transmit_IT+0xf6>
20004138:	bf00      	nop
2000413a:	68fb      	ldr	r3, [r7, #12]
2000413c:	2200      	movs	r2, #0
2000413e:	f883 2050 	strb.w	r2, [r3, #80]	; 0x50
20004142:	7dfb      	ldrb	r3, [r7, #23]
20004144:	4618      	mov	r0, r3
20004146:	371c      	adds	r7, #28
20004148:	46bd      	mov	sp, r7
2000414a:	bc80      	pop	{r7}
2000414c:	4770      	bx	lr
2000414e:	bf00      	nop
20004150:	200056d1 	.word	0x200056d1
20004154:	2000568b 	.word	0x2000568b

20004158 <HAL_SPI_Receive_IT>:
20004158:	b580      	push	{r7, lr}
2000415a:	b086      	sub	sp, #24
2000415c:	af00      	add	r7, sp, #0
2000415e:	60f8      	str	r0, [r7, #12]
20004160:	60b9      	str	r1, [r7, #8]
20004162:	4613      	mov	r3, r2
20004164:	80fb      	strh	r3, [r7, #6]
20004166:	2300      	movs	r3, #0
20004168:	75fb      	strb	r3, [r7, #23]
2000416a:	68fb      	ldr	r3, [r7, #12]
2000416c:	689b      	ldr	r3, [r3, #8]
2000416e:	2b00      	cmp	r3, #0
20004170:	d110      	bne.n	20004194 <HAL_SPI_Receive_IT+0x3c>
20004172:	68fb      	ldr	r3, [r7, #12]
20004174:	685b      	ldr	r3, [r3, #4]
20004176:	f5b3 7f82 	cmp.w	r3, #260	; 0x104
2000417a:	d10b      	bne.n	20004194 <HAL_SPI_Receive_IT+0x3c>
2000417c:	68fb      	ldr	r3, [r7, #12]
2000417e:	2204      	movs	r2, #4
20004180:	f883 2051 	strb.w	r2, [r3, #81]	; 0x51
20004184:	88fb      	ldrh	r3, [r7, #6]
20004186:	68ba      	ldr	r2, [r7, #8]
20004188:	68b9      	ldr	r1, [r7, #8]
2000418a:	68f8      	ldr	r0, [r7, #12]
2000418c:	f000 f882 	bl	20004294 <HAL_SPI_TransmitReceive_IT>
20004190:	4603      	mov	r3, r0
20004192:	e076      	b.n	20004282 <HAL_SPI_Receive_IT+0x12a>
20004194:	68fb      	ldr	r3, [r7, #12]
20004196:	f893 3050 	ldrb.w	r3, [r3, #80]	; 0x50
2000419a:	2b01      	cmp	r3, #1
2000419c:	d101      	bne.n	200041a2 <HAL_SPI_Receive_IT+0x4a>
2000419e:	2302      	movs	r3, #2
200041a0:	e06f      	b.n	20004282 <HAL_SPI_Receive_IT+0x12a>
200041a2:	68fb      	ldr	r3, [r7, #12]
200041a4:	2201      	movs	r2, #1
200041a6:	f883 2050 	strb.w	r2, [r3, #80]	; 0x50
200041aa:	68fb      	ldr	r3, [r7, #12]
200041ac:	f893 3051 	ldrb.w	r3, [r3, #81]	; 0x51
200041b0:	b2db      	uxtb	r3, r3
200041b2:	2b01      	cmp	r3, #1
200041b4:	d002      	beq.n	200041bc <HAL_SPI_Receive_IT+0x64>
200041b6:	2302      	movs	r3, #2
200041b8:	75fb      	strb	r3, [r7, #23]
200041ba:	e05d      	b.n	20004278 <HAL_SPI_Receive_IT+0x120>
200041bc:	68bb      	ldr	r3, [r7, #8]
200041be:	2b00      	cmp	r3, #0
200041c0:	d002      	beq.n	200041c8 <HAL_SPI_Receive_IT+0x70>
200041c2:	88fb      	ldrh	r3, [r7, #6]
200041c4:	2b00      	cmp	r3, #0
200041c6:	d102      	bne.n	200041ce <HAL_SPI_Receive_IT+0x76>
200041c8:	2301      	movs	r3, #1
200041ca:	75fb      	strb	r3, [r7, #23]
200041cc:	e054      	b.n	20004278 <HAL_SPI_Receive_IT+0x120>
200041ce:	68fb      	ldr	r3, [r7, #12]
200041d0:	2204      	movs	r2, #4
200041d2:	f883 2051 	strb.w	r2, [r3, #81]	; 0x51
200041d6:	68fb      	ldr	r3, [r7, #12]
200041d8:	2200      	movs	r2, #0
200041da:	655a      	str	r2, [r3, #84]	; 0x54
200041dc:	68fb      	ldr	r3, [r7, #12]
200041de:	68ba      	ldr	r2, [r7, #8]
200041e0:	639a      	str	r2, [r3, #56]	; 0x38
200041e2:	68fb      	ldr	r3, [r7, #12]
200041e4:	88fa      	ldrh	r2, [r7, #6]
200041e6:	879a      	strh	r2, [r3, #60]	; 0x3c
200041e8:	68fb      	ldr	r3, [r7, #12]
200041ea:	88fa      	ldrh	r2, [r7, #6]
200041ec:	87da      	strh	r2, [r3, #62]	; 0x3e
200041ee:	68fb      	ldr	r3, [r7, #12]
200041f0:	2200      	movs	r2, #0
200041f2:	631a      	str	r2, [r3, #48]	; 0x30
200041f4:	68fb      	ldr	r3, [r7, #12]
200041f6:	2200      	movs	r2, #0
200041f8:	869a      	strh	r2, [r3, #52]	; 0x34
200041fa:	68fb      	ldr	r3, [r7, #12]
200041fc:	2200      	movs	r2, #0
200041fe:	86da      	strh	r2, [r3, #54]	; 0x36
20004200:	68fb      	ldr	r3, [r7, #12]
20004202:	2200      	movs	r2, #0
20004204:	645a      	str	r2, [r3, #68]	; 0x44
20004206:	68fb      	ldr	r3, [r7, #12]
20004208:	68db      	ldr	r3, [r3, #12]
2000420a:	2b00      	cmp	r3, #0
2000420c:	d003      	beq.n	20004216 <HAL_SPI_Receive_IT+0xbe>
2000420e:	68fb      	ldr	r3, [r7, #12]
20004210:	4a1e      	ldr	r2, [pc, #120]	; (2000428c <HAL_SPI_Receive_IT+0x134>)
20004212:	641a      	str	r2, [r3, #64]	; 0x40
20004214:	e002      	b.n	2000421c <HAL_SPI_Receive_IT+0xc4>
20004216:	68fb      	ldr	r3, [r7, #12]
20004218:	4a1d      	ldr	r2, [pc, #116]	; (20004290 <HAL_SPI_Receive_IT+0x138>)
2000421a:	641a      	str	r2, [r3, #64]	; 0x40
2000421c:	68fb      	ldr	r3, [r7, #12]
2000421e:	689b      	ldr	r3, [r3, #8]
20004220:	f5b3 4f00 	cmp.w	r3, #32768	; 0x8000
20004224:	d10f      	bne.n	20004246 <HAL_SPI_Receive_IT+0xee>
20004226:	68fb      	ldr	r3, [r7, #12]
20004228:	681b      	ldr	r3, [r3, #0]
2000422a:	681a      	ldr	r2, [r3, #0]
2000422c:	68fb      	ldr	r3, [r7, #12]
2000422e:	681b      	ldr	r3, [r3, #0]
20004230:	f022 0240 	bic.w	r2, r2, #64	; 0x40
20004234:	601a      	str	r2, [r3, #0]
20004236:	68fb      	ldr	r3, [r7, #12]
20004238:	681b      	ldr	r3, [r3, #0]
2000423a:	681a      	ldr	r2, [r3, #0]
2000423c:	68fb      	ldr	r3, [r7, #12]
2000423e:	681b      	ldr	r3, [r3, #0]
20004240:	f422 4280 	bic.w	r2, r2, #16384	; 0x4000
20004244:	601a      	str	r2, [r3, #0]
20004246:	68fb      	ldr	r3, [r7, #12]
20004248:	681b      	ldr	r3, [r3, #0]
2000424a:	685a      	ldr	r2, [r3, #4]
2000424c:	68fb      	ldr	r3, [r7, #12]
2000424e:	681b      	ldr	r3, [r3, #0]
20004250:	f042 0260 	orr.w	r2, r2, #96	; 0x60
20004254:	605a      	str	r2, [r3, #4]
20004256:	68fb      	ldr	r3, [r7, #12]
20004258:	681b      	ldr	r3, [r3, #0]
2000425a:	681b      	ldr	r3, [r3, #0]
2000425c:	f003 0340 	and.w	r3, r3, #64	; 0x40
20004260:	2b40      	cmp	r3, #64	; 0x40
20004262:	d008      	beq.n	20004276 <HAL_SPI_Receive_IT+0x11e>
20004264:	68fb      	ldr	r3, [r7, #12]
20004266:	681b      	ldr	r3, [r3, #0]
20004268:	681a      	ldr	r2, [r3, #0]
2000426a:	68fb      	ldr	r3, [r7, #12]
2000426c:	681b      	ldr	r3, [r3, #0]
2000426e:	f042 0240 	orr.w	r2, r2, #64	; 0x40
20004272:	601a      	str	r2, [r3, #0]
20004274:	e000      	b.n	20004278 <HAL_SPI_Receive_IT+0x120>
20004276:	bf00      	nop
20004278:	68fb      	ldr	r3, [r7, #12]
2000427a:	2200      	movs	r2, #0
2000427c:	f883 2050 	strb.w	r2, [r3, #80]	; 0x50
20004280:	7dfb      	ldrb	r3, [r7, #23]
20004282:	4618      	mov	r0, r3
20004284:	3718      	adds	r7, #24
20004286:	46bd      	mov	sp, r7
20004288:	bd80      	pop	{r7, pc}
2000428a:	bf00      	nop
2000428c:	20005645 	.word	0x20005645
20004290:	200055fb 	.word	0x200055fb

20004294 <HAL_SPI_TransmitReceive_IT>:
20004294:	b480      	push	{r7}
20004296:	b087      	sub	sp, #28
20004298:	af00      	add	r7, sp, #0
2000429a:	60f8      	str	r0, [r7, #12]
2000429c:	60b9      	str	r1, [r7, #8]
2000429e:	607a      	str	r2, [r7, #4]
200042a0:	807b      	strh	r3, [r7, #2]
200042a2:	2300      	movs	r3, #0
200042a4:	75fb      	strb	r3, [r7, #23]
200042a6:	68fb      	ldr	r3, [r7, #12]
200042a8:	f893 3050 	ldrb.w	r3, [r3, #80]	; 0x50
200042ac:	2b01      	cmp	r3, #1
200042ae:	d101      	bne.n	200042b4 <HAL_SPI_TransmitReceive_IT+0x20>
200042b0:	2302      	movs	r3, #2
200042b2:	e075      	b.n	200043a0 <HAL_SPI_TransmitReceive_IT+0x10c>
200042b4:	68fb      	ldr	r3, [r7, #12]
200042b6:	2201      	movs	r2, #1
200042b8:	f883 2050 	strb.w	r2, [r3, #80]	; 0x50
200042bc:	68fb      	ldr	r3, [r7, #12]
200042be:	f893 3051 	ldrb.w	r3, [r3, #81]	; 0x51
200042c2:	75bb      	strb	r3, [r7, #22]
200042c4:	68fb      	ldr	r3, [r7, #12]
200042c6:	685b      	ldr	r3, [r3, #4]
200042c8:	613b      	str	r3, [r7, #16]
200042ca:	7dbb      	ldrb	r3, [r7, #22]
200042cc:	2b01      	cmp	r3, #1
200042ce:	d00d      	beq.n	200042ec <HAL_SPI_TransmitReceive_IT+0x58>
200042d0:	693b      	ldr	r3, [r7, #16]
200042d2:	f5b3 7f82 	cmp.w	r3, #260	; 0x104
200042d6:	d106      	bne.n	200042e6 <HAL_SPI_TransmitReceive_IT+0x52>
200042d8:	68fb      	ldr	r3, [r7, #12]
200042da:	689b      	ldr	r3, [r3, #8]
200042dc:	2b00      	cmp	r3, #0
200042de:	d102      	bne.n	200042e6 <HAL_SPI_TransmitReceive_IT+0x52>
200042e0:	7dbb      	ldrb	r3, [r7, #22]
200042e2:	2b04      	cmp	r3, #4
200042e4:	d002      	beq.n	200042ec <HAL_SPI_TransmitReceive_IT+0x58>
200042e6:	2302      	movs	r3, #2
200042e8:	75fb      	strb	r3, [r7, #23]
200042ea:	e054      	b.n	20004396 <HAL_SPI_TransmitReceive_IT+0x102>
200042ec:	68bb      	ldr	r3, [r7, #8]
200042ee:	2b00      	cmp	r3, #0
200042f0:	d005      	beq.n	200042fe <HAL_SPI_TransmitReceive_IT+0x6a>
200042f2:	687b      	ldr	r3, [r7, #4]
200042f4:	2b00      	cmp	r3, #0
200042f6:	d002      	beq.n	200042fe <HAL_SPI_TransmitReceive_IT+0x6a>
200042f8:	887b      	ldrh	r3, [r7, #2]
200042fa:	2b00      	cmp	r3, #0
200042fc:	d102      	bne.n	20004304 <HAL_SPI_TransmitReceive_IT+0x70>
200042fe:	2301      	movs	r3, #1
20004300:	75fb      	strb	r3, [r7, #23]
20004302:	e048      	b.n	20004396 <HAL_SPI_TransmitReceive_IT+0x102>
20004304:	68fb      	ldr	r3, [r7, #12]
20004306:	f893 3051 	ldrb.w	r3, [r3, #81]	; 0x51
2000430a:	b2db      	uxtb	r3, r3
2000430c:	2b04      	cmp	r3, #4
2000430e:	d003      	beq.n	20004318 <HAL_SPI_TransmitReceive_IT+0x84>
20004310:	68fb      	ldr	r3, [r7, #12]
20004312:	2205      	movs	r2, #5
20004314:	f883 2051 	strb.w	r2, [r3, #81]	; 0x51
20004318:	68fb      	ldr	r3, [r7, #12]
2000431a:	2200      	movs	r2, #0
2000431c:	655a      	str	r2, [r3, #84]	; 0x54
2000431e:	68fb      	ldr	r3, [r7, #12]
20004320:	68ba      	ldr	r2, [r7, #8]
20004322:	631a      	str	r2, [r3, #48]	; 0x30
20004324:	68fb      	ldr	r3, [r7, #12]
20004326:	887a      	ldrh	r2, [r7, #2]
20004328:	869a      	strh	r2, [r3, #52]	; 0x34
2000432a:	68fb      	ldr	r3, [r7, #12]
2000432c:	887a      	ldrh	r2, [r7, #2]
2000432e:	86da      	strh	r2, [r3, #54]	; 0x36
20004330:	68fb      	ldr	r3, [r7, #12]
20004332:	687a      	ldr	r2, [r7, #4]
20004334:	639a      	str	r2, [r3, #56]	; 0x38
20004336:	68fb      	ldr	r3, [r7, #12]
20004338:	887a      	ldrh	r2, [r7, #2]
2000433a:	879a      	strh	r2, [r3, #60]	; 0x3c
2000433c:	68fb      	ldr	r3, [r7, #12]
2000433e:	887a      	ldrh	r2, [r7, #2]
20004340:	87da      	strh	r2, [r3, #62]	; 0x3e
20004342:	68fb      	ldr	r3, [r7, #12]
20004344:	68db      	ldr	r3, [r3, #12]
20004346:	2b00      	cmp	r3, #0
20004348:	d006      	beq.n	20004358 <HAL_SPI_TransmitReceive_IT+0xc4>
2000434a:	68fb      	ldr	r3, [r7, #12]
2000434c:	4a17      	ldr	r2, [pc, #92]	; (200043ac <HAL_SPI_TransmitReceive_IT+0x118>)
2000434e:	641a      	str	r2, [r3, #64]	; 0x40
20004350:	68fb      	ldr	r3, [r7, #12]
20004352:	4a17      	ldr	r2, [pc, #92]	; (200043b0 <HAL_SPI_TransmitReceive_IT+0x11c>)
20004354:	645a      	str	r2, [r3, #68]	; 0x44
20004356:	e005      	b.n	20004364 <HAL_SPI_TransmitReceive_IT+0xd0>
20004358:	68fb      	ldr	r3, [r7, #12]
2000435a:	4a16      	ldr	r2, [pc, #88]	; (200043b4 <HAL_SPI_TransmitReceive_IT+0x120>)
2000435c:	641a      	str	r2, [r3, #64]	; 0x40
2000435e:	68fb      	ldr	r3, [r7, #12]
20004360:	4a15      	ldr	r2, [pc, #84]	; (200043b8 <HAL_SPI_TransmitReceive_IT+0x124>)
20004362:	645a      	str	r2, [r3, #68]	; 0x44
20004364:	68fb      	ldr	r3, [r7, #12]
20004366:	681b      	ldr	r3, [r3, #0]
20004368:	685a      	ldr	r2, [r3, #4]
2000436a:	68fb      	ldr	r3, [r7, #12]
2000436c:	681b      	ldr	r3, [r3, #0]
2000436e:	f042 02e0 	orr.w	r2, r2, #224	; 0xe0
20004372:	605a      	str	r2, [r3, #4]
20004374:	68fb      	ldr	r3, [r7, #12]
20004376:	681b      	ldr	r3, [r3, #0]
20004378:	681b      	ldr	r3, [r3, #0]
2000437a:	f003 0340 	and.w	r3, r3, #64	; 0x40
2000437e:	2b40      	cmp	r3, #64	; 0x40
20004380:	d008      	beq.n	20004394 <HAL_SPI_TransmitReceive_IT+0x100>
20004382:	68fb      	ldr	r3, [r7, #12]
20004384:	681b      	ldr	r3, [r3, #0]
20004386:	681a      	ldr	r2, [r3, #0]
20004388:	68fb      	ldr	r3, [r7, #12]
2000438a:	681b      	ldr	r3, [r3, #0]
2000438c:	f042 0240 	orr.w	r2, r2, #64	; 0x40
20004390:	601a      	str	r2, [r3, #0]
20004392:	e000      	b.n	20004396 <HAL_SPI_TransmitReceive_IT+0x102>
20004394:	bf00      	nop
20004396:	68fb      	ldr	r3, [r7, #12]
20004398:	2200      	movs	r2, #0
2000439a:	f883 2050 	strb.w	r2, [r3, #80]	; 0x50
2000439e:	7dfb      	ldrb	r3, [r7, #23]
200043a0:	4618      	mov	r0, r3
200043a2:	371c      	adds	r7, #28
200043a4:	46bd      	mov	sp, r7
200043a6:	bc80      	pop	{r7}
200043a8:	4770      	bx	lr
200043aa:	bf00      	nop
200043ac:	2000553d 	.word	0x2000553d
200043b0:	2000559d 	.word	0x2000559d
200043b4:	20005479 	.word	0x20005479
200043b8:	200054dd 	.word	0x200054dd

200043bc <HAL_SPI_Transmit_DMA>:
200043bc:	b580      	push	{r7, lr}
200043be:	b086      	sub	sp, #24
200043c0:	af00      	add	r7, sp, #0
200043c2:	60f8      	str	r0, [r7, #12]
200043c4:	60b9      	str	r1, [r7, #8]
200043c6:	4613      	mov	r3, r2
200043c8:	80fb      	strh	r3, [r7, #6]
200043ca:	2300      	movs	r3, #0
200043cc:	75fb      	strb	r3, [r7, #23]
200043ce:	68fb      	ldr	r3, [r7, #12]
200043d0:	f893 3050 	ldrb.w	r3, [r3, #80]	; 0x50
200043d4:	2b01      	cmp	r3, #1
200043d6:	d101      	bne.n	200043dc <HAL_SPI_Transmit_DMA+0x20>
200043d8:	2302      	movs	r3, #2
200043da:	e09b      	b.n	20004514 <HAL_SPI_Transmit_DMA+0x158>
200043dc:	68fb      	ldr	r3, [r7, #12]
200043de:	2201      	movs	r2, #1
200043e0:	f883 2050 	strb.w	r2, [r3, #80]	; 0x50
200043e4:	68fb      	ldr	r3, [r7, #12]
200043e6:	f893 3051 	ldrb.w	r3, [r3, #81]	; 0x51
200043ea:	b2db      	uxtb	r3, r3
200043ec:	2b01      	cmp	r3, #1
200043ee:	d002      	beq.n	200043f6 <HAL_SPI_Transmit_DMA+0x3a>
200043f0:	2302      	movs	r3, #2
200043f2:	75fb      	strb	r3, [r7, #23]
200043f4:	e089      	b.n	2000450a <HAL_SPI_Transmit_DMA+0x14e>
200043f6:	68bb      	ldr	r3, [r7, #8]
200043f8:	2b00      	cmp	r3, #0
200043fa:	d002      	beq.n	20004402 <HAL_SPI_Transmit_DMA+0x46>
200043fc:	88fb      	ldrh	r3, [r7, #6]
200043fe:	2b00      	cmp	r3, #0
20004400:	d102      	bne.n	20004408 <HAL_SPI_Transmit_DMA+0x4c>
20004402:	2301      	movs	r3, #1
20004404:	75fb      	strb	r3, [r7, #23]
20004406:	e080      	b.n	2000450a <HAL_SPI_Transmit_DMA+0x14e>
20004408:	68fb      	ldr	r3, [r7, #12]
2000440a:	2203      	movs	r2, #3
2000440c:	f883 2051 	strb.w	r2, [r3, #81]	; 0x51
20004410:	68fb      	ldr	r3, [r7, #12]
20004412:	2200      	movs	r2, #0
20004414:	655a      	str	r2, [r3, #84]	; 0x54
20004416:	68fb      	ldr	r3, [r7, #12]
20004418:	68ba      	ldr	r2, [r7, #8]
2000441a:	631a      	str	r2, [r3, #48]	; 0x30
2000441c:	68fb      	ldr	r3, [r7, #12]
2000441e:	88fa      	ldrh	r2, [r7, #6]
20004420:	869a      	strh	r2, [r3, #52]	; 0x34
20004422:	68fb      	ldr	r3, [r7, #12]
20004424:	88fa      	ldrh	r2, [r7, #6]
20004426:	86da      	strh	r2, [r3, #54]	; 0x36
20004428:	68fb      	ldr	r3, [r7, #12]
2000442a:	2200      	movs	r2, #0
2000442c:	639a      	str	r2, [r3, #56]	; 0x38
2000442e:	68fb      	ldr	r3, [r7, #12]
20004430:	2200      	movs	r2, #0
20004432:	645a      	str	r2, [r3, #68]	; 0x44
20004434:	68fb      	ldr	r3, [r7, #12]
20004436:	2200      	movs	r2, #0
20004438:	641a      	str	r2, [r3, #64]	; 0x40
2000443a:	68fb      	ldr	r3, [r7, #12]
2000443c:	2200      	movs	r2, #0
2000443e:	879a      	strh	r2, [r3, #60]	; 0x3c
20004440:	68fb      	ldr	r3, [r7, #12]
20004442:	2200      	movs	r2, #0
20004444:	87da      	strh	r2, [r3, #62]	; 0x3e
20004446:	68fb      	ldr	r3, [r7, #12]
20004448:	689b      	ldr	r3, [r3, #8]
2000444a:	f5b3 4f00 	cmp.w	r3, #32768	; 0x8000
2000444e:	d10f      	bne.n	20004470 <HAL_SPI_Transmit_DMA+0xb4>
20004450:	68fb      	ldr	r3, [r7, #12]
20004452:	681b      	ldr	r3, [r3, #0]
20004454:	681a      	ldr	r2, [r3, #0]
20004456:	68fb      	ldr	r3, [r7, #12]
20004458:	681b      	ldr	r3, [r3, #0]
2000445a:	f022 0240 	bic.w	r2, r2, #64	; 0x40
2000445e:	601a      	str	r2, [r3, #0]
20004460:	68fb      	ldr	r3, [r7, #12]
20004462:	681b      	ldr	r3, [r3, #0]
20004464:	681a      	ldr	r2, [r3, #0]
20004466:	68fb      	ldr	r3, [r7, #12]
20004468:	681b      	ldr	r3, [r3, #0]
2000446a:	f442 4280 	orr.w	r2, r2, #16384	; 0x4000
2000446e:	601a      	str	r2, [r3, #0]
20004470:	68fb      	ldr	r3, [r7, #12]
20004472:	6c9b      	ldr	r3, [r3, #72]	; 0x48
20004474:	4a29      	ldr	r2, [pc, #164]	; (2000451c <HAL_SPI_Transmit_DMA+0x160>)
20004476:	641a      	str	r2, [r3, #64]	; 0x40
20004478:	68fb      	ldr	r3, [r7, #12]
2000447a:	6c9b      	ldr	r3, [r3, #72]	; 0x48
2000447c:	4a28      	ldr	r2, [pc, #160]	; (20004520 <HAL_SPI_Transmit_DMA+0x164>)
2000447e:	63da      	str	r2, [r3, #60]	; 0x3c
20004480:	68fb      	ldr	r3, [r7, #12]
20004482:	6c9b      	ldr	r3, [r3, #72]	; 0x48
20004484:	4a27      	ldr	r2, [pc, #156]	; (20004524 <HAL_SPI_Transmit_DMA+0x168>)
20004486:	64da      	str	r2, [r3, #76]	; 0x4c
20004488:	68fb      	ldr	r3, [r7, #12]
2000448a:	6c9b      	ldr	r3, [r3, #72]	; 0x48
2000448c:	2200      	movs	r2, #0
2000448e:	651a      	str	r2, [r3, #80]	; 0x50
20004490:	68fb      	ldr	r3, [r7, #12]
20004492:	6c98      	ldr	r0, [r3, #72]	; 0x48
20004494:	68fb      	ldr	r3, [r7, #12]
20004496:	6b1b      	ldr	r3, [r3, #48]	; 0x30
20004498:	4619      	mov	r1, r3
2000449a:	68fb      	ldr	r3, [r7, #12]
2000449c:	681b      	ldr	r3, [r3, #0]
2000449e:	330c      	adds	r3, #12
200044a0:	461a      	mov	r2, r3
200044a2:	68fb      	ldr	r3, [r7, #12]
200044a4:	8edb      	ldrh	r3, [r3, #54]	; 0x36
200044a6:	b29b      	uxth	r3, r3
200044a8:	f7fd fb79 	bl	20001b9e <HAL_DMA_Start_IT>
200044ac:	4603      	mov	r3, r0
200044ae:	2b00      	cmp	r3, #0
200044b0:	d00c      	beq.n	200044cc <HAL_SPI_Transmit_DMA+0x110>
200044b2:	68fb      	ldr	r3, [r7, #12]
200044b4:	6d5b      	ldr	r3, [r3, #84]	; 0x54
200044b6:	f043 0210 	orr.w	r2, r3, #16
200044ba:	68fb      	ldr	r3, [r7, #12]
200044bc:	655a      	str	r2, [r3, #84]	; 0x54
200044be:	2301      	movs	r3, #1
200044c0:	75fb      	strb	r3, [r7, #23]
200044c2:	68fb      	ldr	r3, [r7, #12]
200044c4:	2201      	movs	r2, #1
200044c6:	f883 2051 	strb.w	r2, [r3, #81]	; 0x51
200044ca:	e01e      	b.n	2000450a <HAL_SPI_Transmit_DMA+0x14e>
200044cc:	68fb      	ldr	r3, [r7, #12]
200044ce:	681b      	ldr	r3, [r3, #0]
200044d0:	681b      	ldr	r3, [r3, #0]
200044d2:	f003 0340 	and.w	r3, r3, #64	; 0x40
200044d6:	2b40      	cmp	r3, #64	; 0x40
200044d8:	d007      	beq.n	200044ea <HAL_SPI_Transmit_DMA+0x12e>
200044da:	68fb      	ldr	r3, [r7, #12]
200044dc:	681b      	ldr	r3, [r3, #0]
200044de:	681a      	ldr	r2, [r3, #0]
200044e0:	68fb      	ldr	r3, [r7, #12]
200044e2:	681b      	ldr	r3, [r3, #0]
200044e4:	f042 0240 	orr.w	r2, r2, #64	; 0x40
200044e8:	601a      	str	r2, [r3, #0]
200044ea:	68fb      	ldr	r3, [r7, #12]
200044ec:	681b      	ldr	r3, [r3, #0]
200044ee:	685a      	ldr	r2, [r3, #4]
200044f0:	68fb      	ldr	r3, [r7, #12]
200044f2:	681b      	ldr	r3, [r3, #0]
200044f4:	f042 0220 	orr.w	r2, r2, #32
200044f8:	605a      	str	r2, [r3, #4]
200044fa:	68fb      	ldr	r3, [r7, #12]
200044fc:	681b      	ldr	r3, [r3, #0]
200044fe:	685a      	ldr	r2, [r3, #4]
20004500:	68fb      	ldr	r3, [r7, #12]
20004502:	681b      	ldr	r3, [r3, #0]
20004504:	f042 0202 	orr.w	r2, r2, #2
20004508:	605a      	str	r2, [r3, #4]
2000450a:	68fb      	ldr	r3, [r7, #12]
2000450c:	2200      	movs	r2, #0
2000450e:	f883 2050 	strb.w	r2, [r3, #80]	; 0x50
20004512:	7dfb      	ldrb	r3, [r7, #23]
20004514:	4618      	mov	r0, r3
20004516:	3718      	adds	r7, #24
20004518:	46bd      	mov	sp, r7
2000451a:	bd80      	pop	{r7, pc}
2000451c:	20005229 	.word	0x20005229
20004520:	20005049 	.word	0x20005049
20004524:	2000527d 	.word	0x2000527d

20004528 <HAL_SPI_Receive_DMA>:
20004528:	b580      	push	{r7, lr}
2000452a:	b086      	sub	sp, #24
2000452c:	af00      	add	r7, sp, #0
2000452e:	60f8      	str	r0, [r7, #12]
20004530:	60b9      	str	r1, [r7, #8]
20004532:	4613      	mov	r3, r2
20004534:	80fb      	strh	r3, [r7, #6]
20004536:	2300      	movs	r3, #0
20004538:	75fb      	strb	r3, [r7, #23]
2000453a:	68fb      	ldr	r3, [r7, #12]
2000453c:	689b      	ldr	r3, [r3, #8]
2000453e:	2b00      	cmp	r3, #0
20004540:	d110      	bne.n	20004564 <HAL_SPI_Receive_DMA+0x3c>
20004542:	68fb      	ldr	r3, [r7, #12]
20004544:	685b      	ldr	r3, [r3, #4]
20004546:	f5b3 7f82 	cmp.w	r3, #260	; 0x104
2000454a:	d10b      	bne.n	20004564 <HAL_SPI_Receive_DMA+0x3c>
2000454c:	68fb      	ldr	r3, [r7, #12]
2000454e:	2204      	movs	r2, #4
20004550:	f883 2051 	strb.w	r2, [r3, #81]	; 0x51
20004554:	88fb      	ldrh	r3, [r7, #6]
20004556:	68ba      	ldr	r2, [r7, #8]
20004558:	68b9      	ldr	r1, [r7, #8]
2000455a:	68f8      	ldr	r0, [r7, #12]
2000455c:	f000 f8ac 	bl	200046b8 <HAL_SPI_TransmitReceive_DMA>
20004560:	4603      	mov	r3, r0
20004562:	e09f      	b.n	200046a4 <HAL_SPI_Receive_DMA+0x17c>
20004564:	68fb      	ldr	r3, [r7, #12]
20004566:	f893 3050 	ldrb.w	r3, [r3, #80]	; 0x50
2000456a:	2b01      	cmp	r3, #1
2000456c:	d101      	bne.n	20004572 <HAL_SPI_Receive_DMA+0x4a>
2000456e:	2302      	movs	r3, #2
20004570:	e098      	b.n	200046a4 <HAL_SPI_Receive_DMA+0x17c>
20004572:	68fb      	ldr	r3, [r7, #12]
20004574:	2201      	movs	r2, #1
20004576:	f883 2050 	strb.w	r2, [r3, #80]	; 0x50
2000457a:	68fb      	ldr	r3, [r7, #12]
2000457c:	f893 3051 	ldrb.w	r3, [r3, #81]	; 0x51
20004580:	b2db      	uxtb	r3, r3
20004582:	2b01      	cmp	r3, #1
20004584:	d002      	beq.n	2000458c <HAL_SPI_Receive_DMA+0x64>
20004586:	2302      	movs	r3, #2
20004588:	75fb      	strb	r3, [r7, #23]
2000458a:	e086      	b.n	2000469a <HAL_SPI_Receive_DMA+0x172>
2000458c:	68bb      	ldr	r3, [r7, #8]
2000458e:	2b00      	cmp	r3, #0
20004590:	d002      	beq.n	20004598 <HAL_SPI_Receive_DMA+0x70>
20004592:	88fb      	ldrh	r3, [r7, #6]
20004594:	2b00      	cmp	r3, #0
20004596:	d102      	bne.n	2000459e <HAL_SPI_Receive_DMA+0x76>
20004598:	2301      	movs	r3, #1
2000459a:	75fb      	strb	r3, [r7, #23]
2000459c:	e07d      	b.n	2000469a <HAL_SPI_Receive_DMA+0x172>
2000459e:	68fb      	ldr	r3, [r7, #12]
200045a0:	2204      	movs	r2, #4
200045a2:	f883 2051 	strb.w	r2, [r3, #81]	; 0x51
200045a6:	68fb      	ldr	r3, [r7, #12]
200045a8:	2200      	movs	r2, #0
200045aa:	655a      	str	r2, [r3, #84]	; 0x54
200045ac:	68fb      	ldr	r3, [r7, #12]
200045ae:	68ba      	ldr	r2, [r7, #8]
200045b0:	639a      	str	r2, [r3, #56]	; 0x38
200045b2:	68fb      	ldr	r3, [r7, #12]
200045b4:	88fa      	ldrh	r2, [r7, #6]
200045b6:	879a      	strh	r2, [r3, #60]	; 0x3c
200045b8:	68fb      	ldr	r3, [r7, #12]
200045ba:	88fa      	ldrh	r2, [r7, #6]
200045bc:	87da      	strh	r2, [r3, #62]	; 0x3e
200045be:	68fb      	ldr	r3, [r7, #12]
200045c0:	2200      	movs	r2, #0
200045c2:	641a      	str	r2, [r3, #64]	; 0x40
200045c4:	68fb      	ldr	r3, [r7, #12]
200045c6:	2200      	movs	r2, #0
200045c8:	645a      	str	r2, [r3, #68]	; 0x44
200045ca:	68fb      	ldr	r3, [r7, #12]
200045cc:	2200      	movs	r2, #0
200045ce:	869a      	strh	r2, [r3, #52]	; 0x34
200045d0:	68fb      	ldr	r3, [r7, #12]
200045d2:	2200      	movs	r2, #0
200045d4:	86da      	strh	r2, [r3, #54]	; 0x36
200045d6:	68fb      	ldr	r3, [r7, #12]
200045d8:	689b      	ldr	r3, [r3, #8]
200045da:	f5b3 4f00 	cmp.w	r3, #32768	; 0x8000
200045de:	d10f      	bne.n	20004600 <HAL_SPI_Receive_DMA+0xd8>
200045e0:	68fb      	ldr	r3, [r7, #12]
200045e2:	681b      	ldr	r3, [r3, #0]
200045e4:	681a      	ldr	r2, [r3, #0]
200045e6:	68fb      	ldr	r3, [r7, #12]
200045e8:	681b      	ldr	r3, [r3, #0]
200045ea:	f022 0240 	bic.w	r2, r2, #64	; 0x40
200045ee:	601a      	str	r2, [r3, #0]
200045f0:	68fb      	ldr	r3, [r7, #12]
200045f2:	681b      	ldr	r3, [r3, #0]
200045f4:	681a      	ldr	r2, [r3, #0]
200045f6:	68fb      	ldr	r3, [r7, #12]
200045f8:	681b      	ldr	r3, [r3, #0]
200045fa:	f422 4280 	bic.w	r2, r2, #16384	; 0x4000
200045fe:	601a      	str	r2, [r3, #0]
20004600:	68fb      	ldr	r3, [r7, #12]
20004602:	6cdb      	ldr	r3, [r3, #76]	; 0x4c
20004604:	4a29      	ldr	r2, [pc, #164]	; (200046ac <HAL_SPI_Receive_DMA+0x184>)
20004606:	641a      	str	r2, [r3, #64]	; 0x40
20004608:	68fb      	ldr	r3, [r7, #12]
2000460a:	6cdb      	ldr	r3, [r3, #76]	; 0x4c
2000460c:	4a28      	ldr	r2, [pc, #160]	; (200046b0 <HAL_SPI_Receive_DMA+0x188>)
2000460e:	63da      	str	r2, [r3, #60]	; 0x3c
20004610:	68fb      	ldr	r3, [r7, #12]
20004612:	6cdb      	ldr	r3, [r3, #76]	; 0x4c
20004614:	4a27      	ldr	r2, [pc, #156]	; (200046b4 <HAL_SPI_Receive_DMA+0x18c>)
20004616:	64da      	str	r2, [r3, #76]	; 0x4c
20004618:	68fb      	ldr	r3, [r7, #12]
2000461a:	6cdb      	ldr	r3, [r3, #76]	; 0x4c
2000461c:	2200      	movs	r2, #0
2000461e:	651a      	str	r2, [r3, #80]	; 0x50
20004620:	68fb      	ldr	r3, [r7, #12]
20004622:	6cd8      	ldr	r0, [r3, #76]	; 0x4c
20004624:	68fb      	ldr	r3, [r7, #12]
20004626:	681b      	ldr	r3, [r3, #0]
20004628:	330c      	adds	r3, #12
2000462a:	4619      	mov	r1, r3
2000462c:	68fb      	ldr	r3, [r7, #12]
2000462e:	6b9b      	ldr	r3, [r3, #56]	; 0x38
20004630:	461a      	mov	r2, r3
20004632:	68fb      	ldr	r3, [r7, #12]
20004634:	8fdb      	ldrh	r3, [r3, #62]	; 0x3e
20004636:	b29b      	uxth	r3, r3
20004638:	f7fd fab1 	bl	20001b9e <HAL_DMA_Start_IT>
2000463c:	4603      	mov	r3, r0
2000463e:	2b00      	cmp	r3, #0
20004640:	d00c      	beq.n	2000465c <HAL_SPI_Receive_DMA+0x134>
20004642:	68fb      	ldr	r3, [r7, #12]
20004644:	6d5b      	ldr	r3, [r3, #84]	; 0x54
20004646:	f043 0210 	orr.w	r2, r3, #16
2000464a:	68fb      	ldr	r3, [r7, #12]
2000464c:	655a      	str	r2, [r3, #84]	; 0x54
2000464e:	2301      	movs	r3, #1
20004650:	75fb      	strb	r3, [r7, #23]
20004652:	68fb      	ldr	r3, [r7, #12]
20004654:	2201      	movs	r2, #1
20004656:	f883 2051 	strb.w	r2, [r3, #81]	; 0x51
2000465a:	e01e      	b.n	2000469a <HAL_SPI_Receive_DMA+0x172>
2000465c:	68fb      	ldr	r3, [r7, #12]
2000465e:	681b      	ldr	r3, [r3, #0]
20004660:	681b      	ldr	r3, [r3, #0]
20004662:	f003 0340 	and.w	r3, r3, #64	; 0x40
20004666:	2b40      	cmp	r3, #64	; 0x40
20004668:	d007      	beq.n	2000467a <HAL_SPI_Receive_DMA+0x152>
2000466a:	68fb      	ldr	r3, [r7, #12]
2000466c:	681b      	ldr	r3, [r3, #0]
2000466e:	681a      	ldr	r2, [r3, #0]
20004670:	68fb      	ldr	r3, [r7, #12]
20004672:	681b      	ldr	r3, [r3, #0]
20004674:	f042 0240 	orr.w	r2, r2, #64	; 0x40
20004678:	601a      	str	r2, [r3, #0]
2000467a:	68fb      	ldr	r3, [r7, #12]
2000467c:	681b      	ldr	r3, [r3, #0]
2000467e:	685a      	ldr	r2, [r3, #4]
20004680:	68fb      	ldr	r3, [r7, #12]
20004682:	681b      	ldr	r3, [r3, #0]
20004684:	f042 0220 	orr.w	r2, r2, #32
20004688:	605a      	str	r2, [r3, #4]
2000468a:	68fb      	ldr	r3, [r7, #12]
2000468c:	681b      	ldr	r3, [r3, #0]
2000468e:	685a      	ldr	r2, [r3, #4]
20004690:	68fb      	ldr	r3, [r7, #12]
20004692:	681b      	ldr	r3, [r3, #0]
20004694:	f042 0201 	orr.w	r2, r2, #1
20004698:	605a      	str	r2, [r3, #4]
2000469a:	68fb      	ldr	r3, [r7, #12]
2000469c:	2200      	movs	r2, #0
2000469e:	f883 2050 	strb.w	r2, [r3, #80]	; 0x50
200046a2:	7dfb      	ldrb	r3, [r7, #23]
200046a4:	4618      	mov	r0, r3
200046a6:	3718      	adds	r7, #24
200046a8:	46bd      	mov	sp, r7
200046aa:	bd80      	pop	{r7, pc}
200046ac:	20005245 	.word	0x20005245
200046b0:	200050f1 	.word	0x200050f1
200046b4:	2000527d 	.word	0x2000527d

200046b8 <HAL_SPI_TransmitReceive_DMA>:
200046b8:	b580      	push	{r7, lr}
200046ba:	b086      	sub	sp, #24
200046bc:	af00      	add	r7, sp, #0
200046be:	60f8      	str	r0, [r7, #12]
200046c0:	60b9      	str	r1, [r7, #8]
200046c2:	607a      	str	r2, [r7, #4]
200046c4:	807b      	strh	r3, [r7, #2]
200046c6:	2300      	movs	r3, #0
200046c8:	75fb      	strb	r3, [r7, #23]
200046ca:	68fb      	ldr	r3, [r7, #12]
200046cc:	f893 3050 	ldrb.w	r3, [r3, #80]	; 0x50
200046d0:	2b01      	cmp	r3, #1
200046d2:	d101      	bne.n	200046d8 <HAL_SPI_TransmitReceive_DMA+0x20>
200046d4:	2302      	movs	r3, #2
200046d6:	e0e3      	b.n	200048a0 <HAL_SPI_TransmitReceive_DMA+0x1e8>
200046d8:	68fb      	ldr	r3, [r7, #12]
200046da:	2201      	movs	r2, #1
200046dc:	f883 2050 	strb.w	r2, [r3, #80]	; 0x50
200046e0:	68fb      	ldr	r3, [r7, #12]
200046e2:	f893 3051 	ldrb.w	r3, [r3, #81]	; 0x51
200046e6:	75bb      	strb	r3, [r7, #22]
200046e8:	68fb      	ldr	r3, [r7, #12]
200046ea:	685b      	ldr	r3, [r3, #4]
200046ec:	613b      	str	r3, [r7, #16]
200046ee:	7dbb      	ldrb	r3, [r7, #22]
200046f0:	2b01      	cmp	r3, #1
200046f2:	d00d      	beq.n	20004710 <HAL_SPI_TransmitReceive_DMA+0x58>
200046f4:	693b      	ldr	r3, [r7, #16]
200046f6:	f5b3 7f82 	cmp.w	r3, #260	; 0x104
200046fa:	d106      	bne.n	2000470a <HAL_SPI_TransmitReceive_DMA+0x52>
200046fc:	68fb      	ldr	r3, [r7, #12]
200046fe:	689b      	ldr	r3, [r3, #8]
20004700:	2b00      	cmp	r3, #0
20004702:	d102      	bne.n	2000470a <HAL_SPI_TransmitReceive_DMA+0x52>
20004704:	7dbb      	ldrb	r3, [r7, #22]
20004706:	2b04      	cmp	r3, #4
20004708:	d002      	beq.n	20004710 <HAL_SPI_TransmitReceive_DMA+0x58>
2000470a:	2302      	movs	r3, #2
2000470c:	75fb      	strb	r3, [r7, #23]
2000470e:	e0c2      	b.n	20004896 <HAL_SPI_TransmitReceive_DMA+0x1de>
20004710:	68bb      	ldr	r3, [r7, #8]
20004712:	2b00      	cmp	r3, #0
20004714:	d005      	beq.n	20004722 <HAL_SPI_TransmitReceive_DMA+0x6a>
20004716:	687b      	ldr	r3, [r7, #4]
20004718:	2b00      	cmp	r3, #0
2000471a:	d002      	beq.n	20004722 <HAL_SPI_TransmitReceive_DMA+0x6a>
2000471c:	887b      	ldrh	r3, [r7, #2]
2000471e:	2b00      	cmp	r3, #0
20004720:	d102      	bne.n	20004728 <HAL_SPI_TransmitReceive_DMA+0x70>
20004722:	2301      	movs	r3, #1
20004724:	75fb      	strb	r3, [r7, #23]
20004726:	e0b6      	b.n	20004896 <HAL_SPI_TransmitReceive_DMA+0x1de>
20004728:	68fb      	ldr	r3, [r7, #12]
2000472a:	f893 3051 	ldrb.w	r3, [r3, #81]	; 0x51
2000472e:	b2db      	uxtb	r3, r3
20004730:	2b04      	cmp	r3, #4
20004732:	d003      	beq.n	2000473c <HAL_SPI_TransmitReceive_DMA+0x84>
20004734:	68fb      	ldr	r3, [r7, #12]
20004736:	2205      	movs	r2, #5
20004738:	f883 2051 	strb.w	r2, [r3, #81]	; 0x51
2000473c:	68fb      	ldr	r3, [r7, #12]
2000473e:	2200      	movs	r2, #0
20004740:	655a      	str	r2, [r3, #84]	; 0x54
20004742:	68fb      	ldr	r3, [r7, #12]
20004744:	68ba      	ldr	r2, [r7, #8]
20004746:	631a      	str	r2, [r3, #48]	; 0x30
20004748:	68fb      	ldr	r3, [r7, #12]
2000474a:	887a      	ldrh	r2, [r7, #2]
2000474c:	869a      	strh	r2, [r3, #52]	; 0x34
2000474e:	68fb      	ldr	r3, [r7, #12]
20004750:	887a      	ldrh	r2, [r7, #2]
20004752:	86da      	strh	r2, [r3, #54]	; 0x36
20004754:	68fb      	ldr	r3, [r7, #12]
20004756:	687a      	ldr	r2, [r7, #4]
20004758:	639a      	str	r2, [r3, #56]	; 0x38
2000475a:	68fb      	ldr	r3, [r7, #12]
2000475c:	887a      	ldrh	r2, [r7, #2]
2000475e:	879a      	strh	r2, [r3, #60]	; 0x3c
20004760:	68fb      	ldr	r3, [r7, #12]
20004762:	887a      	ldrh	r2, [r7, #2]
20004764:	87da      	strh	r2, [r3, #62]	; 0x3e
20004766:	68fb      	ldr	r3, [r7, #12]
20004768:	2200      	movs	r2, #0
2000476a:	641a      	str	r2, [r3, #64]	; 0x40
2000476c:	68fb      	ldr	r3, [r7, #12]
2000476e:	2200      	movs	r2, #0
20004770:	645a      	str	r2, [r3, #68]	; 0x44
20004772:	68fb      	ldr	r3, [r7, #12]
20004774:	f893 3051 	ldrb.w	r3, [r3, #81]	; 0x51
20004778:	b2db      	uxtb	r3, r3
2000477a:	2b04      	cmp	r3, #4
2000477c:	d108      	bne.n	20004790 <HAL_SPI_TransmitReceive_DMA+0xd8>
2000477e:	68fb      	ldr	r3, [r7, #12]
20004780:	6cdb      	ldr	r3, [r3, #76]	; 0x4c
20004782:	4a49      	ldr	r2, [pc, #292]	; (200048a8 <HAL_SPI_TransmitReceive_DMA+0x1f0>)
20004784:	641a      	str	r2, [r3, #64]	; 0x40
20004786:	68fb      	ldr	r3, [r7, #12]
20004788:	6cdb      	ldr	r3, [r3, #76]	; 0x4c
2000478a:	4a48      	ldr	r2, [pc, #288]	; (200048ac <HAL_SPI_TransmitReceive_DMA+0x1f4>)
2000478c:	63da      	str	r2, [r3, #60]	; 0x3c
2000478e:	e007      	b.n	200047a0 <HAL_SPI_TransmitReceive_DMA+0xe8>
20004790:	68fb      	ldr	r3, [r7, #12]
20004792:	6cdb      	ldr	r3, [r3, #76]	; 0x4c
20004794:	4a46      	ldr	r2, [pc, #280]	; (200048b0 <HAL_SPI_TransmitReceive_DMA+0x1f8>)
20004796:	641a      	str	r2, [r3, #64]	; 0x40
20004798:	68fb      	ldr	r3, [r7, #12]
2000479a:	6cdb      	ldr	r3, [r3, #76]	; 0x4c
2000479c:	4a45      	ldr	r2, [pc, #276]	; (200048b4 <HAL_SPI_TransmitReceive_DMA+0x1fc>)
2000479e:	63da      	str	r2, [r3, #60]	; 0x3c
200047a0:	68fb      	ldr	r3, [r7, #12]
200047a2:	6cdb      	ldr	r3, [r3, #76]	; 0x4c
200047a4:	4a44      	ldr	r2, [pc, #272]	; (200048b8 <HAL_SPI_TransmitReceive_DMA+0x200>)
200047a6:	64da      	str	r2, [r3, #76]	; 0x4c
200047a8:	68fb      	ldr	r3, [r7, #12]
200047aa:	6cdb      	ldr	r3, [r3, #76]	; 0x4c
200047ac:	2200      	movs	r2, #0
200047ae:	651a      	str	r2, [r3, #80]	; 0x50
200047b0:	68fb      	ldr	r3, [r7, #12]
200047b2:	6cd8      	ldr	r0, [r3, #76]	; 0x4c
200047b4:	68fb      	ldr	r3, [r7, #12]
200047b6:	681b      	ldr	r3, [r3, #0]
200047b8:	330c      	adds	r3, #12
200047ba:	4619      	mov	r1, r3
200047bc:	68fb      	ldr	r3, [r7, #12]
200047be:	6b9b      	ldr	r3, [r3, #56]	; 0x38
200047c0:	461a      	mov	r2, r3
200047c2:	68fb      	ldr	r3, [r7, #12]
200047c4:	8fdb      	ldrh	r3, [r3, #62]	; 0x3e
200047c6:	b29b      	uxth	r3, r3
200047c8:	f7fd f9e9 	bl	20001b9e <HAL_DMA_Start_IT>
200047cc:	4603      	mov	r3, r0
200047ce:	2b00      	cmp	r3, #0
200047d0:	d00c      	beq.n	200047ec <HAL_SPI_TransmitReceive_DMA+0x134>
200047d2:	68fb      	ldr	r3, [r7, #12]
200047d4:	6d5b      	ldr	r3, [r3, #84]	; 0x54
200047d6:	f043 0210 	orr.w	r2, r3, #16
200047da:	68fb      	ldr	r3, [r7, #12]
200047dc:	655a      	str	r2, [r3, #84]	; 0x54
200047de:	2301      	movs	r3, #1
200047e0:	75fb      	strb	r3, [r7, #23]
200047e2:	68fb      	ldr	r3, [r7, #12]
200047e4:	2201      	movs	r2, #1
200047e6:	f883 2051 	strb.w	r2, [r3, #81]	; 0x51
200047ea:	e054      	b.n	20004896 <HAL_SPI_TransmitReceive_DMA+0x1de>
200047ec:	68fb      	ldr	r3, [r7, #12]
200047ee:	681b      	ldr	r3, [r3, #0]
200047f0:	685a      	ldr	r2, [r3, #4]
200047f2:	68fb      	ldr	r3, [r7, #12]
200047f4:	681b      	ldr	r3, [r3, #0]
200047f6:	f042 0201 	orr.w	r2, r2, #1
200047fa:	605a      	str	r2, [r3, #4]
200047fc:	68fb      	ldr	r3, [r7, #12]
200047fe:	6c9b      	ldr	r3, [r3, #72]	; 0x48
20004800:	2200      	movs	r2, #0
20004802:	641a      	str	r2, [r3, #64]	; 0x40
20004804:	68fb      	ldr	r3, [r7, #12]
20004806:	6c9b      	ldr	r3, [r3, #72]	; 0x48
20004808:	2200      	movs	r2, #0
2000480a:	63da      	str	r2, [r3, #60]	; 0x3c
2000480c:	68fb      	ldr	r3, [r7, #12]
2000480e:	6c9b      	ldr	r3, [r3, #72]	; 0x48
20004810:	2200      	movs	r2, #0
20004812:	64da      	str	r2, [r3, #76]	; 0x4c
20004814:	68fb      	ldr	r3, [r7, #12]
20004816:	6c9b      	ldr	r3, [r3, #72]	; 0x48
20004818:	2200      	movs	r2, #0
2000481a:	651a      	str	r2, [r3, #80]	; 0x50
2000481c:	68fb      	ldr	r3, [r7, #12]
2000481e:	6c98      	ldr	r0, [r3, #72]	; 0x48
20004820:	68fb      	ldr	r3, [r7, #12]
20004822:	6b1b      	ldr	r3, [r3, #48]	; 0x30
20004824:	4619      	mov	r1, r3
20004826:	68fb      	ldr	r3, [r7, #12]
20004828:	681b      	ldr	r3, [r3, #0]
2000482a:	330c      	adds	r3, #12
2000482c:	461a      	mov	r2, r3
2000482e:	68fb      	ldr	r3, [r7, #12]
20004830:	8edb      	ldrh	r3, [r3, #54]	; 0x36
20004832:	b29b      	uxth	r3, r3
20004834:	f7fd f9b3 	bl	20001b9e <HAL_DMA_Start_IT>
20004838:	4603      	mov	r3, r0
2000483a:	2b00      	cmp	r3, #0
2000483c:	d00c      	beq.n	20004858 <HAL_SPI_TransmitReceive_DMA+0x1a0>
2000483e:	68fb      	ldr	r3, [r7, #12]
20004840:	6d5b      	ldr	r3, [r3, #84]	; 0x54
20004842:	f043 0210 	orr.w	r2, r3, #16
20004846:	68fb      	ldr	r3, [r7, #12]
20004848:	655a      	str	r2, [r3, #84]	; 0x54
2000484a:	2301      	movs	r3, #1
2000484c:	75fb      	strb	r3, [r7, #23]
2000484e:	68fb      	ldr	r3, [r7, #12]
20004850:	2201      	movs	r2, #1
20004852:	f883 2051 	strb.w	r2, [r3, #81]	; 0x51
20004856:	e01e      	b.n	20004896 <HAL_SPI_TransmitReceive_DMA+0x1de>
20004858:	68fb      	ldr	r3, [r7, #12]
2000485a:	681b      	ldr	r3, [r3, #0]
2000485c:	681b      	ldr	r3, [r3, #0]
2000485e:	f003 0340 	and.w	r3, r3, #64	; 0x40
20004862:	2b40      	cmp	r3, #64	; 0x40
20004864:	d007      	beq.n	20004876 <HAL_SPI_TransmitReceive_DMA+0x1be>
20004866:	68fb      	ldr	r3, [r7, #12]
20004868:	681b      	ldr	r3, [r3, #0]
2000486a:	681a      	ldr	r2, [r3, #0]
2000486c:	68fb      	ldr	r3, [r7, #12]
2000486e:	681b      	ldr	r3, [r3, #0]
20004870:	f042 0240 	orr.w	r2, r2, #64	; 0x40
20004874:	601a      	str	r2, [r3, #0]
20004876:	68fb      	ldr	r3, [r7, #12]
20004878:	681b      	ldr	r3, [r3, #0]
2000487a:	685a      	ldr	r2, [r3, #4]
2000487c:	68fb      	ldr	r3, [r7, #12]
2000487e:	681b      	ldr	r3, [r3, #0]
20004880:	f042 0220 	orr.w	r2, r2, #32
20004884:	605a      	str	r2, [r3, #4]
20004886:	68fb      	ldr	r3, [r7, #12]
20004888:	681b      	ldr	r3, [r3, #0]
2000488a:	685a      	ldr	r2, [r3, #4]
2000488c:	68fb      	ldr	r3, [r7, #12]
2000488e:	681b      	ldr	r3, [r3, #0]
20004890:	f042 0202 	orr.w	r2, r2, #2
20004894:	605a      	str	r2, [r3, #4]
20004896:	68fb      	ldr	r3, [r7, #12]
20004898:	2200      	movs	r2, #0
2000489a:	f883 2050 	strb.w	r2, [r3, #80]	; 0x50
2000489e:	7dfb      	ldrb	r3, [r7, #23]
200048a0:	4618      	mov	r0, r3
200048a2:	3718      	adds	r7, #24
200048a4:	46bd      	mov	sp, r7
200048a6:	bd80      	pop	{r7, pc}
200048a8:	20005245 	.word	0x20005245
200048ac:	200050f1 	.word	0x200050f1
200048b0:	20005261 	.word	0x20005261
200048b4:	20005199 	.word	0x20005199
200048b8:	2000527d 	.word	0x2000527d

200048bc <HAL_SPI_Abort>:
200048bc:	b580      	push	{r7, lr}
200048be:	b088      	sub	sp, #32
200048c0:	af00      	add	r7, sp, #0
200048c2:	6078      	str	r0, [r7, #4]
200048c4:	2300      	movs	r3, #0
200048c6:	77fb      	strb	r3, [r7, #31]
200048c8:	4b6e      	ldr	r3, [pc, #440]	; (20004a84 <HAL_SPI_Abort+0x1c8>)
200048ca:	681b      	ldr	r3, [r3, #0]
200048cc:	4a6e      	ldr	r2, [pc, #440]	; (20004a88 <HAL_SPI_Abort+0x1cc>)
200048ce:	fba2 2303 	umull	r2, r3, r2, r3
200048d2:	0a5b      	lsrs	r3, r3, #9
200048d4:	2264      	movs	r2, #100	; 0x64
200048d6:	fb02 f303 	mul.w	r3, r2, r3
200048da:	617b      	str	r3, [r7, #20]
200048dc:	697b      	ldr	r3, [r7, #20]
200048de:	61bb      	str	r3, [r7, #24]
200048e0:	687b      	ldr	r3, [r7, #4]
200048e2:	681b      	ldr	r3, [r3, #0]
200048e4:	685a      	ldr	r2, [r3, #4]
200048e6:	687b      	ldr	r3, [r7, #4]
200048e8:	681b      	ldr	r3, [r3, #0]
200048ea:	f022 0220 	bic.w	r2, r2, #32
200048ee:	605a      	str	r2, [r3, #4]
200048f0:	687b      	ldr	r3, [r7, #4]
200048f2:	681b      	ldr	r3, [r3, #0]
200048f4:	685b      	ldr	r3, [r3, #4]
200048f6:	f003 0380 	and.w	r3, r3, #128	; 0x80
200048fa:	2b80      	cmp	r3, #128	; 0x80
200048fc:	d117      	bne.n	2000492e <HAL_SPI_Abort+0x72>
200048fe:	687b      	ldr	r3, [r7, #4]
20004900:	4a62      	ldr	r2, [pc, #392]	; (20004a8c <HAL_SPI_Abort+0x1d0>)
20004902:	645a      	str	r2, [r3, #68]	; 0x44
20004904:	69bb      	ldr	r3, [r7, #24]
20004906:	2b00      	cmp	r3, #0
20004908:	d106      	bne.n	20004918 <HAL_SPI_Abort+0x5c>
2000490a:	687b      	ldr	r3, [r7, #4]
2000490c:	6d5b      	ldr	r3, [r3, #84]	; 0x54
2000490e:	f043 0240 	orr.w	r2, r3, #64	; 0x40
20004912:	687b      	ldr	r3, [r7, #4]
20004914:	655a      	str	r2, [r3, #84]	; 0x54
20004916:	e008      	b.n	2000492a <HAL_SPI_Abort+0x6e>
20004918:	69bb      	ldr	r3, [r7, #24]
2000491a:	3b01      	subs	r3, #1
2000491c:	61bb      	str	r3, [r7, #24]
2000491e:	687b      	ldr	r3, [r7, #4]
20004920:	f893 3051 	ldrb.w	r3, [r3, #81]	; 0x51
20004924:	b2db      	uxtb	r3, r3
20004926:	2b07      	cmp	r3, #7
20004928:	d1ec      	bne.n	20004904 <HAL_SPI_Abort+0x48>
2000492a:	697b      	ldr	r3, [r7, #20]
2000492c:	61bb      	str	r3, [r7, #24]
2000492e:	687b      	ldr	r3, [r7, #4]
20004930:	681b      	ldr	r3, [r3, #0]
20004932:	685b      	ldr	r3, [r3, #4]
20004934:	f003 0340 	and.w	r3, r3, #64	; 0x40
20004938:	2b40      	cmp	r3, #64	; 0x40
2000493a:	d117      	bne.n	2000496c <HAL_SPI_Abort+0xb0>
2000493c:	687b      	ldr	r3, [r7, #4]
2000493e:	4a54      	ldr	r2, [pc, #336]	; (20004a90 <HAL_SPI_Abort+0x1d4>)
20004940:	641a      	str	r2, [r3, #64]	; 0x40
20004942:	69bb      	ldr	r3, [r7, #24]
20004944:	2b00      	cmp	r3, #0
20004946:	d106      	bne.n	20004956 <HAL_SPI_Abort+0x9a>
20004948:	687b      	ldr	r3, [r7, #4]
2000494a:	6d5b      	ldr	r3, [r3, #84]	; 0x54
2000494c:	f043 0240 	orr.w	r2, r3, #64	; 0x40
20004950:	687b      	ldr	r3, [r7, #4]
20004952:	655a      	str	r2, [r3, #84]	; 0x54
20004954:	e008      	b.n	20004968 <HAL_SPI_Abort+0xac>
20004956:	69bb      	ldr	r3, [r7, #24]
20004958:	3b01      	subs	r3, #1
2000495a:	61bb      	str	r3, [r7, #24]
2000495c:	687b      	ldr	r3, [r7, #4]
2000495e:	f893 3051 	ldrb.w	r3, [r3, #81]	; 0x51
20004962:	b2db      	uxtb	r3, r3
20004964:	2b07      	cmp	r3, #7
20004966:	d1ec      	bne.n	20004942 <HAL_SPI_Abort+0x86>
20004968:	697b      	ldr	r3, [r7, #20]
2000496a:	61bb      	str	r3, [r7, #24]
2000496c:	687b      	ldr	r3, [r7, #4]
2000496e:	681b      	ldr	r3, [r3, #0]
20004970:	685b      	ldr	r3, [r3, #4]
20004972:	f003 0302 	and.w	r3, r3, #2
20004976:	2b02      	cmp	r3, #2
20004978:	d12e      	bne.n	200049d8 <HAL_SPI_Abort+0x11c>
2000497a:	687b      	ldr	r3, [r7, #4]
2000497c:	6c9b      	ldr	r3, [r3, #72]	; 0x48
2000497e:	2b00      	cmp	r3, #0
20004980:	d02a      	beq.n	200049d8 <HAL_SPI_Abort+0x11c>
20004982:	687b      	ldr	r3, [r7, #4]
20004984:	6c9b      	ldr	r3, [r3, #72]	; 0x48
20004986:	2200      	movs	r2, #0
20004988:	651a      	str	r2, [r3, #80]	; 0x50
2000498a:	687b      	ldr	r3, [r7, #4]
2000498c:	6c9b      	ldr	r3, [r3, #72]	; 0x48
2000498e:	4618      	mov	r0, r3
20004990:	f7fd f95d 	bl	20001c4e <HAL_DMA_Abort>
20004994:	4603      	mov	r3, r0
20004996:	2b00      	cmp	r3, #0
20004998:	d002      	beq.n	200049a0 <HAL_SPI_Abort+0xe4>
2000499a:	687b      	ldr	r3, [r7, #4]
2000499c:	2240      	movs	r2, #64	; 0x40
2000499e:	655a      	str	r2, [r3, #84]	; 0x54
200049a0:	687b      	ldr	r3, [r7, #4]
200049a2:	681b      	ldr	r3, [r3, #0]
200049a4:	685a      	ldr	r2, [r3, #4]
200049a6:	687b      	ldr	r3, [r7, #4]
200049a8:	681b      	ldr	r3, [r3, #0]
200049aa:	f022 0202 	bic.w	r2, r2, #2
200049ae:	605a      	str	r2, [r3, #4]
200049b0:	69bb      	ldr	r3, [r7, #24]
200049b2:	2b00      	cmp	r3, #0
200049b4:	d106      	bne.n	200049c4 <HAL_SPI_Abort+0x108>
200049b6:	687b      	ldr	r3, [r7, #4]
200049b8:	6d5b      	ldr	r3, [r3, #84]	; 0x54
200049ba:	f043 0240 	orr.w	r2, r3, #64	; 0x40
200049be:	687b      	ldr	r3, [r7, #4]
200049c0:	655a      	str	r2, [r3, #84]	; 0x54
200049c2:	e009      	b.n	200049d8 <HAL_SPI_Abort+0x11c>
200049c4:	69bb      	ldr	r3, [r7, #24]
200049c6:	3b01      	subs	r3, #1
200049c8:	61bb      	str	r3, [r7, #24]
200049ca:	687b      	ldr	r3, [r7, #4]
200049cc:	681b      	ldr	r3, [r3, #0]
200049ce:	689b      	ldr	r3, [r3, #8]
200049d0:	f003 0302 	and.w	r3, r3, #2
200049d4:	2b00      	cmp	r3, #0
200049d6:	d0eb      	beq.n	200049b0 <HAL_SPI_Abort+0xf4>
200049d8:	687b      	ldr	r3, [r7, #4]
200049da:	681b      	ldr	r3, [r3, #0]
200049dc:	685b      	ldr	r3, [r3, #4]
200049de:	f003 0301 	and.w	r3, r3, #1
200049e2:	2b01      	cmp	r3, #1
200049e4:	d122      	bne.n	20004a2c <HAL_SPI_Abort+0x170>
200049e6:	687b      	ldr	r3, [r7, #4]
200049e8:	6cdb      	ldr	r3, [r3, #76]	; 0x4c
200049ea:	2b00      	cmp	r3, #0
200049ec:	d01e      	beq.n	20004a2c <HAL_SPI_Abort+0x170>
200049ee:	687b      	ldr	r3, [r7, #4]
200049f0:	6cdb      	ldr	r3, [r3, #76]	; 0x4c
200049f2:	2200      	movs	r2, #0
200049f4:	651a      	str	r2, [r3, #80]	; 0x50
200049f6:	687b      	ldr	r3, [r7, #4]
200049f8:	6cdb      	ldr	r3, [r3, #76]	; 0x4c
200049fa:	4618      	mov	r0, r3
200049fc:	f7fd f927 	bl	20001c4e <HAL_DMA_Abort>
20004a00:	4603      	mov	r3, r0
20004a02:	2b00      	cmp	r3, #0
20004a04:	d002      	beq.n	20004a0c <HAL_SPI_Abort+0x150>
20004a06:	687b      	ldr	r3, [r7, #4]
20004a08:	2240      	movs	r2, #64	; 0x40
20004a0a:	655a      	str	r2, [r3, #84]	; 0x54
20004a0c:	687b      	ldr	r3, [r7, #4]
20004a0e:	681b      	ldr	r3, [r3, #0]
20004a10:	681a      	ldr	r2, [r3, #0]
20004a12:	687b      	ldr	r3, [r7, #4]
20004a14:	681b      	ldr	r3, [r3, #0]
20004a16:	f022 0240 	bic.w	r2, r2, #64	; 0x40
20004a1a:	601a      	str	r2, [r3, #0]
20004a1c:	687b      	ldr	r3, [r7, #4]
20004a1e:	681b      	ldr	r3, [r3, #0]
20004a20:	685a      	ldr	r2, [r3, #4]
20004a22:	687b      	ldr	r3, [r7, #4]
20004a24:	681b      	ldr	r3, [r3, #0]
20004a26:	f022 0201 	bic.w	r2, r2, #1
20004a2a:	605a      	str	r2, [r3, #4]
20004a2c:	687b      	ldr	r3, [r7, #4]
20004a2e:	2200      	movs	r2, #0
20004a30:	87da      	strh	r2, [r3, #62]	; 0x3e
20004a32:	687b      	ldr	r3, [r7, #4]
20004a34:	2200      	movs	r2, #0
20004a36:	86da      	strh	r2, [r3, #54]	; 0x36
20004a38:	687b      	ldr	r3, [r7, #4]
20004a3a:	6d5b      	ldr	r3, [r3, #84]	; 0x54
20004a3c:	2b40      	cmp	r3, #64	; 0x40
20004a3e:	d102      	bne.n	20004a46 <HAL_SPI_Abort+0x18a>
20004a40:	2301      	movs	r3, #1
20004a42:	77fb      	strb	r3, [r7, #31]
20004a44:	e002      	b.n	20004a4c <HAL_SPI_Abort+0x190>
20004a46:	687b      	ldr	r3, [r7, #4]
20004a48:	2200      	movs	r2, #0
20004a4a:	655a      	str	r2, [r3, #84]	; 0x54
20004a4c:	2300      	movs	r3, #0
20004a4e:	613b      	str	r3, [r7, #16]
20004a50:	687b      	ldr	r3, [r7, #4]
20004a52:	681b      	ldr	r3, [r3, #0]
20004a54:	68db      	ldr	r3, [r3, #12]
20004a56:	613b      	str	r3, [r7, #16]
20004a58:	687b      	ldr	r3, [r7, #4]
20004a5a:	681b      	ldr	r3, [r3, #0]
20004a5c:	689b      	ldr	r3, [r3, #8]
20004a5e:	613b      	str	r3, [r7, #16]
20004a60:	693b      	ldr	r3, [r7, #16]
20004a62:	2300      	movs	r3, #0
20004a64:	60fb      	str	r3, [r7, #12]
20004a66:	687b      	ldr	r3, [r7, #4]
20004a68:	681b      	ldr	r3, [r3, #0]
20004a6a:	689b      	ldr	r3, [r3, #8]
20004a6c:	60fb      	str	r3, [r7, #12]
20004a6e:	68fb      	ldr	r3, [r7, #12]
20004a70:	687b      	ldr	r3, [r7, #4]
20004a72:	2201      	movs	r2, #1
20004a74:	f883 2051 	strb.w	r2, [r3, #81]	; 0x51
20004a78:	7ffb      	ldrb	r3, [r7, #31]
20004a7a:	4618      	mov	r0, r3
20004a7c:	3720      	adds	r7, #32
20004a7e:	46bd      	mov	sp, r7
20004a80:	bd80      	pop	{r7, pc}
20004a82:	bf00      	nop
20004a84:	20000210 	.word	0x20000210
20004a88:	057619f1 	.word	0x057619f1
20004a8c:	20005c25 	.word	0x20005c25
20004a90:	20005b99 	.word	0x20005b99

20004a94 <HAL_SPI_Abort_IT>:
20004a94:	b580      	push	{r7, lr}
20004a96:	b088      	sub	sp, #32
20004a98:	af00      	add	r7, sp, #0
20004a9a:	6078      	str	r0, [r7, #4]
20004a9c:	2300      	movs	r3, #0
20004a9e:	77fb      	strb	r3, [r7, #31]
20004aa0:	2301      	movs	r3, #1
20004aa2:	61bb      	str	r3, [r7, #24]
20004aa4:	4b72      	ldr	r3, [pc, #456]	; (20004c70 <HAL_SPI_Abort_IT+0x1dc>)
20004aa6:	681b      	ldr	r3, [r3, #0]
20004aa8:	4a72      	ldr	r2, [pc, #456]	; (20004c74 <HAL_SPI_Abort_IT+0x1e0>)
20004aaa:	fba2 2303 	umull	r2, r3, r2, r3
20004aae:	0a5b      	lsrs	r3, r3, #9
20004ab0:	2264      	movs	r2, #100	; 0x64
20004ab2:	fb02 f303 	mul.w	r3, r2, r3
20004ab6:	613b      	str	r3, [r7, #16]
20004ab8:	693b      	ldr	r3, [r7, #16]
20004aba:	617b      	str	r3, [r7, #20]
20004abc:	687b      	ldr	r3, [r7, #4]
20004abe:	681b      	ldr	r3, [r3, #0]
20004ac0:	685a      	ldr	r2, [r3, #4]
20004ac2:	687b      	ldr	r3, [r7, #4]
20004ac4:	681b      	ldr	r3, [r3, #0]
20004ac6:	f022 0220 	bic.w	r2, r2, #32
20004aca:	605a      	str	r2, [r3, #4]
20004acc:	687b      	ldr	r3, [r7, #4]
20004ace:	681b      	ldr	r3, [r3, #0]
20004ad0:	685b      	ldr	r3, [r3, #4]
20004ad2:	f003 0380 	and.w	r3, r3, #128	; 0x80
20004ad6:	2b80      	cmp	r3, #128	; 0x80
20004ad8:	d117      	bne.n	20004b0a <HAL_SPI_Abort_IT+0x76>
20004ada:	687b      	ldr	r3, [r7, #4]
20004adc:	4a66      	ldr	r2, [pc, #408]	; (20004c78 <HAL_SPI_Abort_IT+0x1e4>)
20004ade:	645a      	str	r2, [r3, #68]	; 0x44
20004ae0:	697b      	ldr	r3, [r7, #20]
20004ae2:	2b00      	cmp	r3, #0
20004ae4:	d106      	bne.n	20004af4 <HAL_SPI_Abort_IT+0x60>
20004ae6:	687b      	ldr	r3, [r7, #4]
20004ae8:	6d5b      	ldr	r3, [r3, #84]	; 0x54
20004aea:	f043 0240 	orr.w	r2, r3, #64	; 0x40
20004aee:	687b      	ldr	r3, [r7, #4]
20004af0:	655a      	str	r2, [r3, #84]	; 0x54
20004af2:	e008      	b.n	20004b06 <HAL_SPI_Abort_IT+0x72>
20004af4:	697b      	ldr	r3, [r7, #20]
20004af6:	3b01      	subs	r3, #1
20004af8:	617b      	str	r3, [r7, #20]
20004afa:	687b      	ldr	r3, [r7, #4]
20004afc:	f893 3051 	ldrb.w	r3, [r3, #81]	; 0x51
20004b00:	b2db      	uxtb	r3, r3
20004b02:	2b07      	cmp	r3, #7
20004b04:	d1ec      	bne.n	20004ae0 <HAL_SPI_Abort_IT+0x4c>
20004b06:	693b      	ldr	r3, [r7, #16]
20004b08:	617b      	str	r3, [r7, #20]
20004b0a:	687b      	ldr	r3, [r7, #4]
20004b0c:	681b      	ldr	r3, [r3, #0]
20004b0e:	685b      	ldr	r3, [r3, #4]
20004b10:	f003 0340 	and.w	r3, r3, #64	; 0x40
20004b14:	2b40      	cmp	r3, #64	; 0x40
20004b16:	d117      	bne.n	20004b48 <HAL_SPI_Abort_IT+0xb4>
20004b18:	687b      	ldr	r3, [r7, #4]
20004b1a:	4a58      	ldr	r2, [pc, #352]	; (20004c7c <HAL_SPI_Abort_IT+0x1e8>)
20004b1c:	641a      	str	r2, [r3, #64]	; 0x40
20004b1e:	697b      	ldr	r3, [r7, #20]
20004b20:	2b00      	cmp	r3, #0
20004b22:	d106      	bne.n	20004b32 <HAL_SPI_Abort_IT+0x9e>
20004b24:	687b      	ldr	r3, [r7, #4]
20004b26:	6d5b      	ldr	r3, [r3, #84]	; 0x54
20004b28:	f043 0240 	orr.w	r2, r3, #64	; 0x40
20004b2c:	687b      	ldr	r3, [r7, #4]
20004b2e:	655a      	str	r2, [r3, #84]	; 0x54
20004b30:	e008      	b.n	20004b44 <HAL_SPI_Abort_IT+0xb0>
20004b32:	697b      	ldr	r3, [r7, #20]
20004b34:	3b01      	subs	r3, #1
20004b36:	617b      	str	r3, [r7, #20]
20004b38:	687b      	ldr	r3, [r7, #4]
20004b3a:	f893 3051 	ldrb.w	r3, [r3, #81]	; 0x51
20004b3e:	b2db      	uxtb	r3, r3
20004b40:	2b07      	cmp	r3, #7
20004b42:	d1ec      	bne.n	20004b1e <HAL_SPI_Abort_IT+0x8a>
20004b44:	693b      	ldr	r3, [r7, #16]
20004b46:	617b      	str	r3, [r7, #20]
20004b48:	687b      	ldr	r3, [r7, #4]
20004b4a:	6c9b      	ldr	r3, [r3, #72]	; 0x48
20004b4c:	2b00      	cmp	r3, #0
20004b4e:	d00f      	beq.n	20004b70 <HAL_SPI_Abort_IT+0xdc>
20004b50:	687b      	ldr	r3, [r7, #4]
20004b52:	681b      	ldr	r3, [r3, #0]
20004b54:	685b      	ldr	r3, [r3, #4]
20004b56:	f003 0302 	and.w	r3, r3, #2
20004b5a:	2b02      	cmp	r3, #2
20004b5c:	d104      	bne.n	20004b68 <HAL_SPI_Abort_IT+0xd4>
20004b5e:	687b      	ldr	r3, [r7, #4]
20004b60:	6c9b      	ldr	r3, [r3, #72]	; 0x48
20004b62:	4a47      	ldr	r2, [pc, #284]	; (20004c80 <HAL_SPI_Abort_IT+0x1ec>)
20004b64:	651a      	str	r2, [r3, #80]	; 0x50
20004b66:	e003      	b.n	20004b70 <HAL_SPI_Abort_IT+0xdc>
20004b68:	687b      	ldr	r3, [r7, #4]
20004b6a:	6c9b      	ldr	r3, [r3, #72]	; 0x48
20004b6c:	2200      	movs	r2, #0
20004b6e:	651a      	str	r2, [r3, #80]	; 0x50
20004b70:	687b      	ldr	r3, [r7, #4]
20004b72:	6cdb      	ldr	r3, [r3, #76]	; 0x4c
20004b74:	2b00      	cmp	r3, #0
20004b76:	d00f      	beq.n	20004b98 <HAL_SPI_Abort_IT+0x104>
20004b78:	687b      	ldr	r3, [r7, #4]
20004b7a:	681b      	ldr	r3, [r3, #0]
20004b7c:	685b      	ldr	r3, [r3, #4]
20004b7e:	f003 0301 	and.w	r3, r3, #1
20004b82:	2b01      	cmp	r3, #1
20004b84:	d104      	bne.n	20004b90 <HAL_SPI_Abort_IT+0xfc>
20004b86:	687b      	ldr	r3, [r7, #4]
20004b88:	6cdb      	ldr	r3, [r3, #76]	; 0x4c
20004b8a:	4a3e      	ldr	r2, [pc, #248]	; (20004c84 <HAL_SPI_Abort_IT+0x1f0>)
20004b8c:	651a      	str	r2, [r3, #80]	; 0x50
20004b8e:	e003      	b.n	20004b98 <HAL_SPI_Abort_IT+0x104>
20004b90:	687b      	ldr	r3, [r7, #4]
20004b92:	6cdb      	ldr	r3, [r3, #76]	; 0x4c
20004b94:	2200      	movs	r2, #0
20004b96:	651a      	str	r2, [r3, #80]	; 0x50
20004b98:	687b      	ldr	r3, [r7, #4]
20004b9a:	681b      	ldr	r3, [r3, #0]
20004b9c:	685b      	ldr	r3, [r3, #4]
20004b9e:	f003 0302 	and.w	r3, r3, #2
20004ba2:	2b02      	cmp	r3, #2
20004ba4:	d115      	bne.n	20004bd2 <HAL_SPI_Abort_IT+0x13e>
20004ba6:	687b      	ldr	r3, [r7, #4]
20004ba8:	6c9b      	ldr	r3, [r3, #72]	; 0x48
20004baa:	2b00      	cmp	r3, #0
20004bac:	d011      	beq.n	20004bd2 <HAL_SPI_Abort_IT+0x13e>
20004bae:	687b      	ldr	r3, [r7, #4]
20004bb0:	6c9b      	ldr	r3, [r3, #72]	; 0x48
20004bb2:	4618      	mov	r0, r3
20004bb4:	f7fd f8bb 	bl	20001d2e <HAL_DMA_Abort_IT>
20004bb8:	4603      	mov	r3, r0
20004bba:	2b00      	cmp	r3, #0
20004bbc:	d007      	beq.n	20004bce <HAL_SPI_Abort_IT+0x13a>
20004bbe:	687b      	ldr	r3, [r7, #4]
20004bc0:	6c9b      	ldr	r3, [r3, #72]	; 0x48
20004bc2:	2200      	movs	r2, #0
20004bc4:	651a      	str	r2, [r3, #80]	; 0x50
20004bc6:	687b      	ldr	r3, [r7, #4]
20004bc8:	2240      	movs	r2, #64	; 0x40
20004bca:	655a      	str	r2, [r3, #84]	; 0x54
20004bcc:	e001      	b.n	20004bd2 <HAL_SPI_Abort_IT+0x13e>
20004bce:	2300      	movs	r3, #0
20004bd0:	61bb      	str	r3, [r7, #24]
20004bd2:	687b      	ldr	r3, [r7, #4]
20004bd4:	681b      	ldr	r3, [r3, #0]
20004bd6:	685b      	ldr	r3, [r3, #4]
20004bd8:	f003 0301 	and.w	r3, r3, #1
20004bdc:	2b01      	cmp	r3, #1
20004bde:	d115      	bne.n	20004c0c <HAL_SPI_Abort_IT+0x178>
20004be0:	687b      	ldr	r3, [r7, #4]
20004be2:	6cdb      	ldr	r3, [r3, #76]	; 0x4c
20004be4:	2b00      	cmp	r3, #0
20004be6:	d011      	beq.n	20004c0c <HAL_SPI_Abort_IT+0x178>
20004be8:	687b      	ldr	r3, [r7, #4]
20004bea:	6cdb      	ldr	r3, [r3, #76]	; 0x4c
20004bec:	4618      	mov	r0, r3
20004bee:	f7fd f89e 	bl	20001d2e <HAL_DMA_Abort_IT>
20004bf2:	4603      	mov	r3, r0
20004bf4:	2b00      	cmp	r3, #0
20004bf6:	d007      	beq.n	20004c08 <HAL_SPI_Abort_IT+0x174>
20004bf8:	687b      	ldr	r3, [r7, #4]
20004bfa:	6cdb      	ldr	r3, [r3, #76]	; 0x4c
20004bfc:	2200      	movs	r2, #0
20004bfe:	651a      	str	r2, [r3, #80]	; 0x50
20004c00:	687b      	ldr	r3, [r7, #4]
20004c02:	2240      	movs	r2, #64	; 0x40
20004c04:	655a      	str	r2, [r3, #84]	; 0x54
20004c06:	e001      	b.n	20004c0c <HAL_SPI_Abort_IT+0x178>
20004c08:	2300      	movs	r3, #0
20004c0a:	61bb      	str	r3, [r7, #24]
20004c0c:	69bb      	ldr	r3, [r7, #24]
20004c0e:	2b01      	cmp	r3, #1
20004c10:	d128      	bne.n	20004c64 <HAL_SPI_Abort_IT+0x1d0>
20004c12:	687b      	ldr	r3, [r7, #4]
20004c14:	2200      	movs	r2, #0
20004c16:	87da      	strh	r2, [r3, #62]	; 0x3e
20004c18:	687b      	ldr	r3, [r7, #4]
20004c1a:	2200      	movs	r2, #0
20004c1c:	86da      	strh	r2, [r3, #54]	; 0x36
20004c1e:	687b      	ldr	r3, [r7, #4]
20004c20:	6d5b      	ldr	r3, [r3, #84]	; 0x54
20004c22:	2b40      	cmp	r3, #64	; 0x40
20004c24:	d102      	bne.n	20004c2c <HAL_SPI_Abort_IT+0x198>
20004c26:	2301      	movs	r3, #1
20004c28:	77fb      	strb	r3, [r7, #31]
20004c2a:	e002      	b.n	20004c32 <HAL_SPI_Abort_IT+0x19e>
20004c2c:	687b      	ldr	r3, [r7, #4]
20004c2e:	2200      	movs	r2, #0
20004c30:	655a      	str	r2, [r3, #84]	; 0x54
20004c32:	2300      	movs	r3, #0
20004c34:	60fb      	str	r3, [r7, #12]
20004c36:	687b      	ldr	r3, [r7, #4]
20004c38:	681b      	ldr	r3, [r3, #0]
20004c3a:	68db      	ldr	r3, [r3, #12]
20004c3c:	60fb      	str	r3, [r7, #12]
20004c3e:	687b      	ldr	r3, [r7, #4]
20004c40:	681b      	ldr	r3, [r3, #0]
20004c42:	689b      	ldr	r3, [r3, #8]
20004c44:	60fb      	str	r3, [r7, #12]
20004c46:	68fb      	ldr	r3, [r7, #12]
20004c48:	2300      	movs	r3, #0
20004c4a:	60bb      	str	r3, [r7, #8]
20004c4c:	687b      	ldr	r3, [r7, #4]
20004c4e:	681b      	ldr	r3, [r3, #0]
20004c50:	689b      	ldr	r3, [r3, #8]
20004c52:	60bb      	str	r3, [r7, #8]
20004c54:	68bb      	ldr	r3, [r7, #8]
20004c56:	687b      	ldr	r3, [r7, #4]
20004c58:	2201      	movs	r2, #1
20004c5a:	f883 2051 	strb.w	r2, [r3, #81]	; 0x51
20004c5e:	6878      	ldr	r0, [r7, #4]
20004c60:	f000 f9d1 	bl	20005006 <HAL_SPI_AbortCpltCallback>
20004c64:	7ffb      	ldrb	r3, [r7, #31]
20004c66:	4618      	mov	r0, r3
20004c68:	3720      	adds	r7, #32
20004c6a:	46bd      	mov	sp, r7
20004c6c:	bd80      	pop	{r7, pc}
20004c6e:	bf00      	nop
20004c70:	20000210 	.word	0x20000210
20004c74:	057619f1 	.word	0x057619f1
20004c78:	20005c25 	.word	0x20005c25
20004c7c:	20005b99 	.word	0x20005b99
20004c80:	200052e5 	.word	0x200052e5
20004c84:	200053b9 	.word	0x200053b9

20004c88 <HAL_SPI_DMAPause>:
20004c88:	b480      	push	{r7}
20004c8a:	b083      	sub	sp, #12
20004c8c:	af00      	add	r7, sp, #0
20004c8e:	6078      	str	r0, [r7, #4]
20004c90:	687b      	ldr	r3, [r7, #4]
20004c92:	f893 3050 	ldrb.w	r3, [r3, #80]	; 0x50
20004c96:	2b01      	cmp	r3, #1
20004c98:	d101      	bne.n	20004c9e <HAL_SPI_DMAPause+0x16>
20004c9a:	2302      	movs	r3, #2
20004c9c:	e010      	b.n	20004cc0 <HAL_SPI_DMAPause+0x38>
20004c9e:	687b      	ldr	r3, [r7, #4]
20004ca0:	2201      	movs	r2, #1
20004ca2:	f883 2050 	strb.w	r2, [r3, #80]	; 0x50
20004ca6:	687b      	ldr	r3, [r7, #4]
20004ca8:	681b      	ldr	r3, [r3, #0]
20004caa:	685a      	ldr	r2, [r3, #4]
20004cac:	687b      	ldr	r3, [r7, #4]
20004cae:	681b      	ldr	r3, [r3, #0]
20004cb0:	f022 0203 	bic.w	r2, r2, #3
20004cb4:	605a      	str	r2, [r3, #4]
20004cb6:	687b      	ldr	r3, [r7, #4]
20004cb8:	2200      	movs	r2, #0
20004cba:	f883 2050 	strb.w	r2, [r3, #80]	; 0x50
20004cbe:	2300      	movs	r3, #0
20004cc0:	4618      	mov	r0, r3
20004cc2:	370c      	adds	r7, #12
20004cc4:	46bd      	mov	sp, r7
20004cc6:	bc80      	pop	{r7}
20004cc8:	4770      	bx	lr

20004cca <HAL_SPI_DMAResume>:
20004cca:	b480      	push	{r7}
20004ccc:	b083      	sub	sp, #12
20004cce:	af00      	add	r7, sp, #0
20004cd0:	6078      	str	r0, [r7, #4]
20004cd2:	687b      	ldr	r3, [r7, #4]
20004cd4:	f893 3050 	ldrb.w	r3, [r3, #80]	; 0x50
20004cd8:	2b01      	cmp	r3, #1
20004cda:	d101      	bne.n	20004ce0 <HAL_SPI_DMAResume+0x16>
20004cdc:	2302      	movs	r3, #2
20004cde:	e010      	b.n	20004d02 <HAL_SPI_DMAResume+0x38>
20004ce0:	687b      	ldr	r3, [r7, #4]
20004ce2:	2201      	movs	r2, #1
20004ce4:	f883 2050 	strb.w	r2, [r3, #80]	; 0x50
20004ce8:	687b      	ldr	r3, [r7, #4]
20004cea:	681b      	ldr	r3, [r3, #0]
20004cec:	685a      	ldr	r2, [r3, #4]
20004cee:	687b      	ldr	r3, [r7, #4]
20004cf0:	681b      	ldr	r3, [r3, #0]
20004cf2:	f042 0203 	orr.w	r2, r2, #3
20004cf6:	605a      	str	r2, [r3, #4]
20004cf8:	687b      	ldr	r3, [r7, #4]
20004cfa:	2200      	movs	r2, #0
20004cfc:	f883 2050 	strb.w	r2, [r3, #80]	; 0x50
20004d00:	2300      	movs	r3, #0
20004d02:	4618      	mov	r0, r3
20004d04:	370c      	adds	r7, #12
20004d06:	46bd      	mov	sp, r7
20004d08:	bc80      	pop	{r7}
20004d0a:	4770      	bx	lr

20004d0c <HAL_SPI_DMAStop>:
20004d0c:	b580      	push	{r7, lr}
20004d0e:	b084      	sub	sp, #16
20004d10:	af00      	add	r7, sp, #0
20004d12:	6078      	str	r0, [r7, #4]
20004d14:	2300      	movs	r3, #0
20004d16:	73fb      	strb	r3, [r7, #15]
20004d18:	687b      	ldr	r3, [r7, #4]
20004d1a:	6c9b      	ldr	r3, [r3, #72]	; 0x48
20004d1c:	2b00      	cmp	r3, #0
20004d1e:	d00f      	beq.n	20004d40 <HAL_SPI_DMAStop+0x34>
20004d20:	687b      	ldr	r3, [r7, #4]
20004d22:	6c9b      	ldr	r3, [r3, #72]	; 0x48
20004d24:	4618      	mov	r0, r3
20004d26:	f7fc ff92 	bl	20001c4e <HAL_DMA_Abort>
20004d2a:	4603      	mov	r3, r0
20004d2c:	2b00      	cmp	r3, #0
20004d2e:	d007      	beq.n	20004d40 <HAL_SPI_DMAStop+0x34>
20004d30:	687b      	ldr	r3, [r7, #4]
20004d32:	6d5b      	ldr	r3, [r3, #84]	; 0x54
20004d34:	f043 0210 	orr.w	r2, r3, #16
20004d38:	687b      	ldr	r3, [r7, #4]
20004d3a:	655a      	str	r2, [r3, #84]	; 0x54
20004d3c:	2301      	movs	r3, #1
20004d3e:	73fb      	strb	r3, [r7, #15]
20004d40:	687b      	ldr	r3, [r7, #4]
20004d42:	6cdb      	ldr	r3, [r3, #76]	; 0x4c
20004d44:	2b00      	cmp	r3, #0
20004d46:	d00f      	beq.n	20004d68 <HAL_SPI_DMAStop+0x5c>
20004d48:	687b      	ldr	r3, [r7, #4]
20004d4a:	6cdb      	ldr	r3, [r3, #76]	; 0x4c
20004d4c:	4618      	mov	r0, r3
20004d4e:	f7fc ff7e 	bl	20001c4e <HAL_DMA_Abort>
20004d52:	4603      	mov	r3, r0
20004d54:	2b00      	cmp	r3, #0
20004d56:	d007      	beq.n	20004d68 <HAL_SPI_DMAStop+0x5c>
20004d58:	687b      	ldr	r3, [r7, #4]
20004d5a:	6d5b      	ldr	r3, [r3, #84]	; 0x54
20004d5c:	f043 0210 	orr.w	r2, r3, #16
20004d60:	687b      	ldr	r3, [r7, #4]
20004d62:	655a      	str	r2, [r3, #84]	; 0x54
20004d64:	2301      	movs	r3, #1
20004d66:	73fb      	strb	r3, [r7, #15]
20004d68:	687b      	ldr	r3, [r7, #4]
20004d6a:	681b      	ldr	r3, [r3, #0]
20004d6c:	685a      	ldr	r2, [r3, #4]
20004d6e:	687b      	ldr	r3, [r7, #4]
20004d70:	681b      	ldr	r3, [r3, #0]
20004d72:	f022 0203 	bic.w	r2, r2, #3
20004d76:	605a      	str	r2, [r3, #4]
20004d78:	687b      	ldr	r3, [r7, #4]
20004d7a:	2201      	movs	r2, #1
20004d7c:	f883 2051 	strb.w	r2, [r3, #81]	; 0x51
20004d80:	7bfb      	ldrb	r3, [r7, #15]
20004d82:	4618      	mov	r0, r3
20004d84:	3710      	adds	r7, #16
20004d86:	46bd      	mov	sp, r7
20004d88:	bd80      	pop	{r7, pc}

20004d8a <HAL_SPI_IRQHandler>:
20004d8a:	b580      	push	{r7, lr}
20004d8c:	b088      	sub	sp, #32
20004d8e:	af00      	add	r7, sp, #0
20004d90:	6078      	str	r0, [r7, #4]
20004d92:	687b      	ldr	r3, [r7, #4]
20004d94:	681b      	ldr	r3, [r3, #0]
20004d96:	685b      	ldr	r3, [r3, #4]
20004d98:	61fb      	str	r3, [r7, #28]
20004d9a:	687b      	ldr	r3, [r7, #4]
20004d9c:	681b      	ldr	r3, [r3, #0]
20004d9e:	689b      	ldr	r3, [r3, #8]
20004da0:	61bb      	str	r3, [r7, #24]
20004da2:	69bb      	ldr	r3, [r7, #24]
20004da4:	099b      	lsrs	r3, r3, #6
20004da6:	f003 0301 	and.w	r3, r3, #1
20004daa:	2b00      	cmp	r3, #0
20004dac:	d10f      	bne.n	20004dce <HAL_SPI_IRQHandler+0x44>
20004dae:	69bb      	ldr	r3, [r7, #24]
20004db0:	f003 0301 	and.w	r3, r3, #1
20004db4:	2b00      	cmp	r3, #0
20004db6:	d00a      	beq.n	20004dce <HAL_SPI_IRQHandler+0x44>
20004db8:	69fb      	ldr	r3, [r7, #28]
20004dba:	099b      	lsrs	r3, r3, #6
20004dbc:	f003 0301 	and.w	r3, r3, #1
20004dc0:	2b00      	cmp	r3, #0
20004dc2:	d004      	beq.n	20004dce <HAL_SPI_IRQHandler+0x44>
20004dc4:	687b      	ldr	r3, [r7, #4]
20004dc6:	6c1b      	ldr	r3, [r3, #64]	; 0x40
20004dc8:	6878      	ldr	r0, [r7, #4]
20004dca:	4798      	blx	r3
20004dcc:	e0d7      	b.n	20004f7e <HAL_SPI_IRQHandler+0x1f4>
20004dce:	69bb      	ldr	r3, [r7, #24]
20004dd0:	085b      	lsrs	r3, r3, #1
20004dd2:	f003 0301 	and.w	r3, r3, #1
20004dd6:	2b00      	cmp	r3, #0
20004dd8:	d00a      	beq.n	20004df0 <HAL_SPI_IRQHandler+0x66>
20004dda:	69fb      	ldr	r3, [r7, #28]
20004ddc:	09db      	lsrs	r3, r3, #7
20004dde:	f003 0301 	and.w	r3, r3, #1
20004de2:	2b00      	cmp	r3, #0
20004de4:	d004      	beq.n	20004df0 <HAL_SPI_IRQHandler+0x66>
20004de6:	687b      	ldr	r3, [r7, #4]
20004de8:	6c5b      	ldr	r3, [r3, #68]	; 0x44
20004dea:	6878      	ldr	r0, [r7, #4]
20004dec:	4798      	blx	r3
20004dee:	e0c6      	b.n	20004f7e <HAL_SPI_IRQHandler+0x1f4>
20004df0:	69bb      	ldr	r3, [r7, #24]
20004df2:	095b      	lsrs	r3, r3, #5
20004df4:	f003 0301 	and.w	r3, r3, #1
20004df8:	2b00      	cmp	r3, #0
20004dfa:	d10c      	bne.n	20004e16 <HAL_SPI_IRQHandler+0x8c>
20004dfc:	69bb      	ldr	r3, [r7, #24]
20004dfe:	099b      	lsrs	r3, r3, #6
20004e00:	f003 0301 	and.w	r3, r3, #1
20004e04:	2b00      	cmp	r3, #0
20004e06:	d106      	bne.n	20004e16 <HAL_SPI_IRQHandler+0x8c>
20004e08:	69bb      	ldr	r3, [r7, #24]
20004e0a:	0a1b      	lsrs	r3, r3, #8
20004e0c:	f003 0301 	and.w	r3, r3, #1
20004e10:	2b00      	cmp	r3, #0
20004e12:	f000 80b4 	beq.w	20004f7e <HAL_SPI_IRQHandler+0x1f4>
20004e16:	69fb      	ldr	r3, [r7, #28]
20004e18:	095b      	lsrs	r3, r3, #5
20004e1a:	f003 0301 	and.w	r3, r3, #1
20004e1e:	2b00      	cmp	r3, #0
20004e20:	f000 80ad 	beq.w	20004f7e <HAL_SPI_IRQHandler+0x1f4>
20004e24:	69bb      	ldr	r3, [r7, #24]
20004e26:	099b      	lsrs	r3, r3, #6
20004e28:	f003 0301 	and.w	r3, r3, #1
20004e2c:	2b00      	cmp	r3, #0
20004e2e:	d023      	beq.n	20004e78 <HAL_SPI_IRQHandler+0xee>
20004e30:	687b      	ldr	r3, [r7, #4]
20004e32:	f893 3051 	ldrb.w	r3, [r3, #81]	; 0x51
20004e36:	b2db      	uxtb	r3, r3
20004e38:	2b03      	cmp	r3, #3
20004e3a:	d011      	beq.n	20004e60 <HAL_SPI_IRQHandler+0xd6>
20004e3c:	687b      	ldr	r3, [r7, #4]
20004e3e:	6d5b      	ldr	r3, [r3, #84]	; 0x54
20004e40:	f043 0204 	orr.w	r2, r3, #4
20004e44:	687b      	ldr	r3, [r7, #4]
20004e46:	655a      	str	r2, [r3, #84]	; 0x54
20004e48:	2300      	movs	r3, #0
20004e4a:	617b      	str	r3, [r7, #20]
20004e4c:	687b      	ldr	r3, [r7, #4]
20004e4e:	681b      	ldr	r3, [r3, #0]
20004e50:	68db      	ldr	r3, [r3, #12]
20004e52:	617b      	str	r3, [r7, #20]
20004e54:	687b      	ldr	r3, [r7, #4]
20004e56:	681b      	ldr	r3, [r3, #0]
20004e58:	689b      	ldr	r3, [r3, #8]
20004e5a:	617b      	str	r3, [r7, #20]
20004e5c:	697b      	ldr	r3, [r7, #20]
20004e5e:	e00b      	b.n	20004e78 <HAL_SPI_IRQHandler+0xee>
20004e60:	2300      	movs	r3, #0
20004e62:	613b      	str	r3, [r7, #16]
20004e64:	687b      	ldr	r3, [r7, #4]
20004e66:	681b      	ldr	r3, [r3, #0]
20004e68:	68db      	ldr	r3, [r3, #12]
20004e6a:	613b      	str	r3, [r7, #16]
20004e6c:	687b      	ldr	r3, [r7, #4]
20004e6e:	681b      	ldr	r3, [r3, #0]
20004e70:	689b      	ldr	r3, [r3, #8]
20004e72:	613b      	str	r3, [r7, #16]
20004e74:	693b      	ldr	r3, [r7, #16]
20004e76:	e082      	b.n	20004f7e <HAL_SPI_IRQHandler+0x1f4>
20004e78:	69bb      	ldr	r3, [r7, #24]
20004e7a:	095b      	lsrs	r3, r3, #5
20004e7c:	f003 0301 	and.w	r3, r3, #1
20004e80:	2b00      	cmp	r3, #0
20004e82:	d014      	beq.n	20004eae <HAL_SPI_IRQHandler+0x124>
20004e84:	687b      	ldr	r3, [r7, #4]
20004e86:	6d5b      	ldr	r3, [r3, #84]	; 0x54
20004e88:	f043 0201 	orr.w	r2, r3, #1
20004e8c:	687b      	ldr	r3, [r7, #4]
20004e8e:	655a      	str	r2, [r3, #84]	; 0x54
20004e90:	2300      	movs	r3, #0
20004e92:	60fb      	str	r3, [r7, #12]
20004e94:	687b      	ldr	r3, [r7, #4]
20004e96:	681b      	ldr	r3, [r3, #0]
20004e98:	689b      	ldr	r3, [r3, #8]
20004e9a:	60fb      	str	r3, [r7, #12]
20004e9c:	687b      	ldr	r3, [r7, #4]
20004e9e:	681b      	ldr	r3, [r3, #0]
20004ea0:	681a      	ldr	r2, [r3, #0]
20004ea2:	687b      	ldr	r3, [r7, #4]
20004ea4:	681b      	ldr	r3, [r3, #0]
20004ea6:	f022 0240 	bic.w	r2, r2, #64	; 0x40
20004eaa:	601a      	str	r2, [r3, #0]
20004eac:	68fb      	ldr	r3, [r7, #12]
20004eae:	69bb      	ldr	r3, [r7, #24]
20004eb0:	0a1b      	lsrs	r3, r3, #8
20004eb2:	f003 0301 	and.w	r3, r3, #1
20004eb6:	2b00      	cmp	r3, #0
20004eb8:	d00c      	beq.n	20004ed4 <HAL_SPI_IRQHandler+0x14a>
20004eba:	687b      	ldr	r3, [r7, #4]
20004ebc:	6d5b      	ldr	r3, [r3, #84]	; 0x54
20004ebe:	f043 0208 	orr.w	r2, r3, #8
20004ec2:	687b      	ldr	r3, [r7, #4]
20004ec4:	655a      	str	r2, [r3, #84]	; 0x54
20004ec6:	2300      	movs	r3, #0
20004ec8:	60bb      	str	r3, [r7, #8]
20004eca:	687b      	ldr	r3, [r7, #4]
20004ecc:	681b      	ldr	r3, [r3, #0]
20004ece:	689b      	ldr	r3, [r3, #8]
20004ed0:	60bb      	str	r3, [r7, #8]
20004ed2:	68bb      	ldr	r3, [r7, #8]
20004ed4:	687b      	ldr	r3, [r7, #4]
20004ed6:	6d5b      	ldr	r3, [r3, #84]	; 0x54
20004ed8:	2b00      	cmp	r3, #0
20004eda:	d04f      	beq.n	20004f7c <HAL_SPI_IRQHandler+0x1f2>
20004edc:	687b      	ldr	r3, [r7, #4]
20004ede:	681b      	ldr	r3, [r3, #0]
20004ee0:	685a      	ldr	r2, [r3, #4]
20004ee2:	687b      	ldr	r3, [r7, #4]
20004ee4:	681b      	ldr	r3, [r3, #0]
20004ee6:	f022 02e0 	bic.w	r2, r2, #224	; 0xe0
20004eea:	605a      	str	r2, [r3, #4]
20004eec:	687b      	ldr	r3, [r7, #4]
20004eee:	2201      	movs	r2, #1
20004ef0:	f883 2051 	strb.w	r2, [r3, #81]	; 0x51
20004ef4:	69fb      	ldr	r3, [r7, #28]
20004ef6:	f003 0302 	and.w	r3, r3, #2
20004efa:	2b00      	cmp	r3, #0
20004efc:	d104      	bne.n	20004f08 <HAL_SPI_IRQHandler+0x17e>
20004efe:	69fb      	ldr	r3, [r7, #28]
20004f00:	f003 0301 	and.w	r3, r3, #1
20004f04:	2b00      	cmp	r3, #0
20004f06:	d034      	beq.n	20004f72 <HAL_SPI_IRQHandler+0x1e8>
20004f08:	687b      	ldr	r3, [r7, #4]
20004f0a:	681b      	ldr	r3, [r3, #0]
20004f0c:	685a      	ldr	r2, [r3, #4]
20004f0e:	687b      	ldr	r3, [r7, #4]
20004f10:	681b      	ldr	r3, [r3, #0]
20004f12:	f022 0203 	bic.w	r2, r2, #3
20004f16:	605a      	str	r2, [r3, #4]
20004f18:	687b      	ldr	r3, [r7, #4]
20004f1a:	6cdb      	ldr	r3, [r3, #76]	; 0x4c
20004f1c:	2b00      	cmp	r3, #0
20004f1e:	d011      	beq.n	20004f44 <HAL_SPI_IRQHandler+0x1ba>
20004f20:	687b      	ldr	r3, [r7, #4]
20004f22:	6cdb      	ldr	r3, [r3, #76]	; 0x4c
20004f24:	4a17      	ldr	r2, [pc, #92]	; (20004f84 <HAL_SPI_IRQHandler+0x1fa>)
20004f26:	651a      	str	r2, [r3, #80]	; 0x50
20004f28:	687b      	ldr	r3, [r7, #4]
20004f2a:	6cdb      	ldr	r3, [r3, #76]	; 0x4c
20004f2c:	4618      	mov	r0, r3
20004f2e:	f7fc fefe 	bl	20001d2e <HAL_DMA_Abort_IT>
20004f32:	4603      	mov	r3, r0
20004f34:	2b00      	cmp	r3, #0
20004f36:	d005      	beq.n	20004f44 <HAL_SPI_IRQHandler+0x1ba>
20004f38:	687b      	ldr	r3, [r7, #4]
20004f3a:	6d5b      	ldr	r3, [r3, #84]	; 0x54
20004f3c:	f043 0240 	orr.w	r2, r3, #64	; 0x40
20004f40:	687b      	ldr	r3, [r7, #4]
20004f42:	655a      	str	r2, [r3, #84]	; 0x54
20004f44:	687b      	ldr	r3, [r7, #4]
20004f46:	6c9b      	ldr	r3, [r3, #72]	; 0x48
20004f48:	2b00      	cmp	r3, #0
20004f4a:	d016      	beq.n	20004f7a <HAL_SPI_IRQHandler+0x1f0>
20004f4c:	687b      	ldr	r3, [r7, #4]
20004f4e:	6c9b      	ldr	r3, [r3, #72]	; 0x48
20004f50:	4a0c      	ldr	r2, [pc, #48]	; (20004f84 <HAL_SPI_IRQHandler+0x1fa>)
20004f52:	651a      	str	r2, [r3, #80]	; 0x50
20004f54:	687b      	ldr	r3, [r7, #4]
20004f56:	6c9b      	ldr	r3, [r3, #72]	; 0x48
20004f58:	4618      	mov	r0, r3
20004f5a:	f7fc fee8 	bl	20001d2e <HAL_DMA_Abort_IT>
20004f5e:	4603      	mov	r3, r0
20004f60:	2b00      	cmp	r3, #0
20004f62:	d00a      	beq.n	20004f7a <HAL_SPI_IRQHandler+0x1f0>
20004f64:	687b      	ldr	r3, [r7, #4]
20004f66:	6d5b      	ldr	r3, [r3, #84]	; 0x54
20004f68:	f043 0240 	orr.w	r2, r3, #64	; 0x40
20004f6c:	687b      	ldr	r3, [r7, #4]
20004f6e:	655a      	str	r2, [r3, #84]	; 0x54
20004f70:	e003      	b.n	20004f7a <HAL_SPI_IRQHandler+0x1f0>
20004f72:	6878      	ldr	r0, [r7, #4]
20004f74:	f000 f83e 	bl	20004ff4 <HAL_SPI_ErrorCallback>
20004f78:	e000      	b.n	20004f7c <HAL_SPI_IRQHandler+0x1f2>
20004f7a:	bf00      	nop
20004f7c:	bf00      	nop
20004f7e:	3720      	adds	r7, #32
20004f80:	46bd      	mov	sp, r7
20004f82:	bd80      	pop	{r7, pc}
20004f84:	200052bd 	.word	0x200052bd

20004f88 <HAL_SPI_TxCpltCallback>:
20004f88:	b480      	push	{r7}
20004f8a:	b083      	sub	sp, #12
20004f8c:	af00      	add	r7, sp, #0
20004f8e:	6078      	str	r0, [r7, #4]
20004f90:	bf00      	nop
20004f92:	370c      	adds	r7, #12
20004f94:	46bd      	mov	sp, r7
20004f96:	bc80      	pop	{r7}
20004f98:	4770      	bx	lr

20004f9a <HAL_SPI_RxCpltCallback>:
20004f9a:	b480      	push	{r7}
20004f9c:	b083      	sub	sp, #12
20004f9e:	af00      	add	r7, sp, #0
20004fa0:	6078      	str	r0, [r7, #4]
20004fa2:	bf00      	nop
20004fa4:	370c      	adds	r7, #12
20004fa6:	46bd      	mov	sp, r7
20004fa8:	bc80      	pop	{r7}
20004faa:	4770      	bx	lr

20004fac <HAL_SPI_TxRxCpltCallback>:
20004fac:	b480      	push	{r7}
20004fae:	b083      	sub	sp, #12
20004fb0:	af00      	add	r7, sp, #0
20004fb2:	6078      	str	r0, [r7, #4]
20004fb4:	bf00      	nop
20004fb6:	370c      	adds	r7, #12
20004fb8:	46bd      	mov	sp, r7
20004fba:	bc80      	pop	{r7}
20004fbc:	4770      	bx	lr

20004fbe <HAL_SPI_TxHalfCpltCallback>:
20004fbe:	b480      	push	{r7}
20004fc0:	b083      	sub	sp, #12
20004fc2:	af00      	add	r7, sp, #0
20004fc4:	6078      	str	r0, [r7, #4]
20004fc6:	bf00      	nop
20004fc8:	370c      	adds	r7, #12
20004fca:	46bd      	mov	sp, r7
20004fcc:	bc80      	pop	{r7}
20004fce:	4770      	bx	lr

20004fd0 <HAL_SPI_RxHalfCpltCallback>:
20004fd0:	b480      	push	{r7}
20004fd2:	b083      	sub	sp, #12
20004fd4:	af00      	add	r7, sp, #0
20004fd6:	6078      	str	r0, [r7, #4]
20004fd8:	bf00      	nop
20004fda:	370c      	adds	r7, #12
20004fdc:	46bd      	mov	sp, r7
20004fde:	bc80      	pop	{r7}
20004fe0:	4770      	bx	lr

20004fe2 <HAL_SPI_TxRxHalfCpltCallback>:
20004fe2:	b480      	push	{r7}
20004fe4:	b083      	sub	sp, #12
20004fe6:	af00      	add	r7, sp, #0
20004fe8:	6078      	str	r0, [r7, #4]
20004fea:	bf00      	nop
20004fec:	370c      	adds	r7, #12
20004fee:	46bd      	mov	sp, r7
20004ff0:	bc80      	pop	{r7}
20004ff2:	4770      	bx	lr

20004ff4 <HAL_SPI_ErrorCallback>:
20004ff4:	b480      	push	{r7}
20004ff6:	b083      	sub	sp, #12
20004ff8:	af00      	add	r7, sp, #0
20004ffa:	6078      	str	r0, [r7, #4]
20004ffc:	bf00      	nop
20004ffe:	370c      	adds	r7, #12
20005000:	46bd      	mov	sp, r7
20005002:	bc80      	pop	{r7}
20005004:	4770      	bx	lr

20005006 <HAL_SPI_AbortCpltCallback>:
20005006:	b480      	push	{r7}
20005008:	b083      	sub	sp, #12
2000500a:	af00      	add	r7, sp, #0
2000500c:	6078      	str	r0, [r7, #4]
2000500e:	bf00      	nop
20005010:	370c      	adds	r7, #12
20005012:	46bd      	mov	sp, r7
20005014:	bc80      	pop	{r7}
20005016:	4770      	bx	lr

20005018 <HAL_SPI_GetState>:
20005018:	b480      	push	{r7}
2000501a:	b083      	sub	sp, #12
2000501c:	af00      	add	r7, sp, #0
2000501e:	6078      	str	r0, [r7, #4]
20005020:	687b      	ldr	r3, [r7, #4]
20005022:	f893 3051 	ldrb.w	r3, [r3, #81]	; 0x51
20005026:	b2db      	uxtb	r3, r3
20005028:	4618      	mov	r0, r3
2000502a:	370c      	adds	r7, #12
2000502c:	46bd      	mov	sp, r7
2000502e:	bc80      	pop	{r7}
20005030:	4770      	bx	lr

20005032 <HAL_SPI_GetError>:
20005032:	b480      	push	{r7}
20005034:	b083      	sub	sp, #12
20005036:	af00      	add	r7, sp, #0
20005038:	6078      	str	r0, [r7, #4]
2000503a:	687b      	ldr	r3, [r7, #4]
2000503c:	6d5b      	ldr	r3, [r3, #84]	; 0x54
2000503e:	4618      	mov	r0, r3
20005040:	370c      	adds	r7, #12
20005042:	46bd      	mov	sp, r7
20005044:	bc80      	pop	{r7}
20005046:	4770      	bx	lr

20005048 <SPI_DMATransmitCplt>:
20005048:	b580      	push	{r7, lr}
2000504a:	b086      	sub	sp, #24
2000504c:	af00      	add	r7, sp, #0
2000504e:	6078      	str	r0, [r7, #4]
20005050:	687b      	ldr	r3, [r7, #4]
20005052:	6b9b      	ldr	r3, [r3, #56]	; 0x38
20005054:	617b      	str	r3, [r7, #20]
20005056:	f7fc f801 	bl	2000105c <HAL_GetTick>
2000505a:	6138      	str	r0, [r7, #16]
2000505c:	687b      	ldr	r3, [r7, #4]
2000505e:	681b      	ldr	r3, [r3, #0]
20005060:	681b      	ldr	r3, [r3, #0]
20005062:	f403 7380 	and.w	r3, r3, #256	; 0x100
20005066:	f5b3 7f80 	cmp.w	r3, #256	; 0x100
2000506a:	d03b      	beq.n	200050e4 <SPI_DMATransmitCplt+0x9c>
2000506c:	697b      	ldr	r3, [r7, #20]
2000506e:	681b      	ldr	r3, [r3, #0]
20005070:	685a      	ldr	r2, [r3, #4]
20005072:	697b      	ldr	r3, [r7, #20]
20005074:	681b      	ldr	r3, [r3, #0]
20005076:	f022 0220 	bic.w	r2, r2, #32
2000507a:	605a      	str	r2, [r3, #4]
2000507c:	697b      	ldr	r3, [r7, #20]
2000507e:	681b      	ldr	r3, [r3, #0]
20005080:	685a      	ldr	r2, [r3, #4]
20005082:	697b      	ldr	r3, [r7, #20]
20005084:	681b      	ldr	r3, [r3, #0]
20005086:	f022 0202 	bic.w	r2, r2, #2
2000508a:	605a      	str	r2, [r3, #4]
2000508c:	693a      	ldr	r2, [r7, #16]
2000508e:	2164      	movs	r1, #100	; 0x64
20005090:	6978      	ldr	r0, [r7, #20]
20005092:	f000 fc2c 	bl	200058ee <SPI_EndRxTxTransaction>
20005096:	4603      	mov	r3, r0
20005098:	2b00      	cmp	r3, #0
2000509a:	d005      	beq.n	200050a8 <SPI_DMATransmitCplt+0x60>
2000509c:	697b      	ldr	r3, [r7, #20]
2000509e:	6d5b      	ldr	r3, [r3, #84]	; 0x54
200050a0:	f043 0220 	orr.w	r2, r3, #32
200050a4:	697b      	ldr	r3, [r7, #20]
200050a6:	655a      	str	r2, [r3, #84]	; 0x54
200050a8:	697b      	ldr	r3, [r7, #20]
200050aa:	689b      	ldr	r3, [r3, #8]
200050ac:	2b00      	cmp	r3, #0
200050ae:	d10a      	bne.n	200050c6 <SPI_DMATransmitCplt+0x7e>
200050b0:	2300      	movs	r3, #0
200050b2:	60fb      	str	r3, [r7, #12]
200050b4:	697b      	ldr	r3, [r7, #20]
200050b6:	681b      	ldr	r3, [r3, #0]
200050b8:	68db      	ldr	r3, [r3, #12]
200050ba:	60fb      	str	r3, [r7, #12]
200050bc:	697b      	ldr	r3, [r7, #20]
200050be:	681b      	ldr	r3, [r3, #0]
200050c0:	689b      	ldr	r3, [r3, #8]
200050c2:	60fb      	str	r3, [r7, #12]
200050c4:	68fb      	ldr	r3, [r7, #12]
200050c6:	697b      	ldr	r3, [r7, #20]
200050c8:	2200      	movs	r2, #0
200050ca:	86da      	strh	r2, [r3, #54]	; 0x36
200050cc:	697b      	ldr	r3, [r7, #20]
200050ce:	2201      	movs	r2, #1
200050d0:	f883 2051 	strb.w	r2, [r3, #81]	; 0x51
200050d4:	697b      	ldr	r3, [r7, #20]
200050d6:	6d5b      	ldr	r3, [r3, #84]	; 0x54
200050d8:	2b00      	cmp	r3, #0
200050da:	d003      	beq.n	200050e4 <SPI_DMATransmitCplt+0x9c>
200050dc:	6978      	ldr	r0, [r7, #20]
200050de:	f7ff ff89 	bl	20004ff4 <HAL_SPI_ErrorCallback>
200050e2:	e002      	b.n	200050ea <SPI_DMATransmitCplt+0xa2>
200050e4:	6978      	ldr	r0, [r7, #20]
200050e6:	f7ff ff4f 	bl	20004f88 <HAL_SPI_TxCpltCallback>
200050ea:	3718      	adds	r7, #24
200050ec:	46bd      	mov	sp, r7
200050ee:	bd80      	pop	{r7, pc}

200050f0 <SPI_DMAReceiveCplt>:
200050f0:	b580      	push	{r7, lr}
200050f2:	b084      	sub	sp, #16
200050f4:	af00      	add	r7, sp, #0
200050f6:	6078      	str	r0, [r7, #4]
200050f8:	687b      	ldr	r3, [r7, #4]
200050fa:	6b9b      	ldr	r3, [r3, #56]	; 0x38
200050fc:	60fb      	str	r3, [r7, #12]
200050fe:	f7fb ffad 	bl	2000105c <HAL_GetTick>
20005102:	60b8      	str	r0, [r7, #8]
20005104:	687b      	ldr	r3, [r7, #4]
20005106:	681b      	ldr	r3, [r3, #0]
20005108:	681b      	ldr	r3, [r3, #0]
2000510a:	f403 7380 	and.w	r3, r3, #256	; 0x100
2000510e:	f5b3 7f80 	cmp.w	r3, #256	; 0x100
20005112:	d03b      	beq.n	2000518c <SPI_DMAReceiveCplt+0x9c>
20005114:	68fb      	ldr	r3, [r7, #12]
20005116:	681b      	ldr	r3, [r3, #0]
20005118:	685a      	ldr	r2, [r3, #4]
2000511a:	68fb      	ldr	r3, [r7, #12]
2000511c:	681b      	ldr	r3, [r3, #0]
2000511e:	f022 0220 	bic.w	r2, r2, #32
20005122:	605a      	str	r2, [r3, #4]
20005124:	68fb      	ldr	r3, [r7, #12]
20005126:	689b      	ldr	r3, [r3, #8]
20005128:	2b00      	cmp	r3, #0
2000512a:	d10d      	bne.n	20005148 <SPI_DMAReceiveCplt+0x58>
2000512c:	68fb      	ldr	r3, [r7, #12]
2000512e:	685b      	ldr	r3, [r3, #4]
20005130:	f5b3 7f82 	cmp.w	r3, #260	; 0x104
20005134:	d108      	bne.n	20005148 <SPI_DMAReceiveCplt+0x58>
20005136:	68fb      	ldr	r3, [r7, #12]
20005138:	681b      	ldr	r3, [r3, #0]
2000513a:	685a      	ldr	r2, [r3, #4]
2000513c:	68fb      	ldr	r3, [r7, #12]
2000513e:	681b      	ldr	r3, [r3, #0]
20005140:	f022 0203 	bic.w	r2, r2, #3
20005144:	605a      	str	r2, [r3, #4]
20005146:	e007      	b.n	20005158 <SPI_DMAReceiveCplt+0x68>
20005148:	68fb      	ldr	r3, [r7, #12]
2000514a:	681b      	ldr	r3, [r3, #0]
2000514c:	685a      	ldr	r2, [r3, #4]
2000514e:	68fb      	ldr	r3, [r7, #12]
20005150:	681b      	ldr	r3, [r3, #0]
20005152:	f022 0201 	bic.w	r2, r2, #1
20005156:	605a      	str	r2, [r3, #4]
20005158:	68ba      	ldr	r2, [r7, #8]
2000515a:	2164      	movs	r1, #100	; 0x64
2000515c:	68f8      	ldr	r0, [r7, #12]
2000515e:	f000 fb61 	bl	20005824 <SPI_EndRxTransaction>
20005162:	4603      	mov	r3, r0
20005164:	2b00      	cmp	r3, #0
20005166:	d002      	beq.n	2000516e <SPI_DMAReceiveCplt+0x7e>
20005168:	68fb      	ldr	r3, [r7, #12]
2000516a:	2220      	movs	r2, #32
2000516c:	655a      	str	r2, [r3, #84]	; 0x54
2000516e:	68fb      	ldr	r3, [r7, #12]
20005170:	2200      	movs	r2, #0
20005172:	87da      	strh	r2, [r3, #62]	; 0x3e
20005174:	68fb      	ldr	r3, [r7, #12]
20005176:	2201      	movs	r2, #1
20005178:	f883 2051 	strb.w	r2, [r3, #81]	; 0x51
2000517c:	68fb      	ldr	r3, [r7, #12]
2000517e:	6d5b      	ldr	r3, [r3, #84]	; 0x54
20005180:	2b00      	cmp	r3, #0
20005182:	d003      	beq.n	2000518c <SPI_DMAReceiveCplt+0x9c>
20005184:	68f8      	ldr	r0, [r7, #12]
20005186:	f7ff ff35 	bl	20004ff4 <HAL_SPI_ErrorCallback>
2000518a:	e002      	b.n	20005192 <SPI_DMAReceiveCplt+0xa2>
2000518c:	68f8      	ldr	r0, [r7, #12]
2000518e:	f7ff ff04 	bl	20004f9a <HAL_SPI_RxCpltCallback>
20005192:	3710      	adds	r7, #16
20005194:	46bd      	mov	sp, r7
20005196:	bd80      	pop	{r7, pc}

20005198 <SPI_DMATransmitReceiveCplt>:
20005198:	b580      	push	{r7, lr}
2000519a:	b084      	sub	sp, #16
2000519c:	af00      	add	r7, sp, #0
2000519e:	6078      	str	r0, [r7, #4]
200051a0:	687b      	ldr	r3, [r7, #4]
200051a2:	6b9b      	ldr	r3, [r3, #56]	; 0x38
200051a4:	60fb      	str	r3, [r7, #12]
200051a6:	f7fb ff59 	bl	2000105c <HAL_GetTick>
200051aa:	60b8      	str	r0, [r7, #8]
200051ac:	687b      	ldr	r3, [r7, #4]
200051ae:	681b      	ldr	r3, [r3, #0]
200051b0:	681b      	ldr	r3, [r3, #0]
200051b2:	f403 7380 	and.w	r3, r3, #256	; 0x100
200051b6:	f5b3 7f80 	cmp.w	r3, #256	; 0x100
200051ba:	d02f      	beq.n	2000521c <SPI_DMATransmitReceiveCplt+0x84>
200051bc:	68fb      	ldr	r3, [r7, #12]
200051be:	681b      	ldr	r3, [r3, #0]
200051c0:	685a      	ldr	r2, [r3, #4]
200051c2:	68fb      	ldr	r3, [r7, #12]
200051c4:	681b      	ldr	r3, [r3, #0]
200051c6:	f022 0220 	bic.w	r2, r2, #32
200051ca:	605a      	str	r2, [r3, #4]
200051cc:	68ba      	ldr	r2, [r7, #8]
200051ce:	2164      	movs	r1, #100	; 0x64
200051d0:	68f8      	ldr	r0, [r7, #12]
200051d2:	f000 fb8c 	bl	200058ee <SPI_EndRxTxTransaction>
200051d6:	4603      	mov	r3, r0
200051d8:	2b00      	cmp	r3, #0
200051da:	d005      	beq.n	200051e8 <SPI_DMATransmitReceiveCplt+0x50>
200051dc:	68fb      	ldr	r3, [r7, #12]
200051de:	6d5b      	ldr	r3, [r3, #84]	; 0x54
200051e0:	f043 0220 	orr.w	r2, r3, #32
200051e4:	68fb      	ldr	r3, [r7, #12]
200051e6:	655a      	str	r2, [r3, #84]	; 0x54
200051e8:	68fb      	ldr	r3, [r7, #12]
200051ea:	681b      	ldr	r3, [r3, #0]
200051ec:	685a      	ldr	r2, [r3, #4]
200051ee:	68fb      	ldr	r3, [r7, #12]
200051f0:	681b      	ldr	r3, [r3, #0]
200051f2:	f022 0203 	bic.w	r2, r2, #3
200051f6:	605a      	str	r2, [r3, #4]
200051f8:	68fb      	ldr	r3, [r7, #12]
200051fa:	2200      	movs	r2, #0
200051fc:	86da      	strh	r2, [r3, #54]	; 0x36
200051fe:	68fb      	ldr	r3, [r7, #12]
20005200:	2200      	movs	r2, #0
20005202:	87da      	strh	r2, [r3, #62]	; 0x3e
20005204:	68fb      	ldr	r3, [r7, #12]
20005206:	2201      	movs	r2, #1
20005208:	f883 2051 	strb.w	r2, [r3, #81]	; 0x51
2000520c:	68fb      	ldr	r3, [r7, #12]
2000520e:	6d5b      	ldr	r3, [r3, #84]	; 0x54
20005210:	2b00      	cmp	r3, #0
20005212:	d003      	beq.n	2000521c <SPI_DMATransmitReceiveCplt+0x84>
20005214:	68f8      	ldr	r0, [r7, #12]
20005216:	f7ff feed 	bl	20004ff4 <HAL_SPI_ErrorCallback>
2000521a:	e002      	b.n	20005222 <SPI_DMATransmitReceiveCplt+0x8a>
2000521c:	68f8      	ldr	r0, [r7, #12]
2000521e:	f7ff fec5 	bl	20004fac <HAL_SPI_TxRxCpltCallback>
20005222:	3710      	adds	r7, #16
20005224:	46bd      	mov	sp, r7
20005226:	bd80      	pop	{r7, pc}

20005228 <SPI_DMAHalfTransmitCplt>:
20005228:	b580      	push	{r7, lr}
2000522a:	b084      	sub	sp, #16
2000522c:	af00      	add	r7, sp, #0
2000522e:	6078      	str	r0, [r7, #4]
20005230:	687b      	ldr	r3, [r7, #4]
20005232:	6b9b      	ldr	r3, [r3, #56]	; 0x38
20005234:	60fb      	str	r3, [r7, #12]
20005236:	68f8      	ldr	r0, [r7, #12]
20005238:	f7ff fec1 	bl	20004fbe <HAL_SPI_TxHalfCpltCallback>
2000523c:	bf00      	nop
2000523e:	3710      	adds	r7, #16
20005240:	46bd      	mov	sp, r7
20005242:	bd80      	pop	{r7, pc}

20005244 <SPI_DMAHalfReceiveCplt>:
20005244:	b580      	push	{r7, lr}
20005246:	b084      	sub	sp, #16
20005248:	af00      	add	r7, sp, #0
2000524a:	6078      	str	r0, [r7, #4]
2000524c:	687b      	ldr	r3, [r7, #4]
2000524e:	6b9b      	ldr	r3, [r3, #56]	; 0x38
20005250:	60fb      	str	r3, [r7, #12]
20005252:	68f8      	ldr	r0, [r7, #12]
20005254:	f7ff febc 	bl	20004fd0 <HAL_SPI_RxHalfCpltCallback>
20005258:	bf00      	nop
2000525a:	3710      	adds	r7, #16
2000525c:	46bd      	mov	sp, r7
2000525e:	bd80      	pop	{r7, pc}

20005260 <SPI_DMAHalfTransmitReceiveCplt>:
20005260:	b580      	push	{r7, lr}
20005262:	b084      	sub	sp, #16
20005264:	af00      	add	r7, sp, #0
20005266:	6078      	str	r0, [r7, #4]
20005268:	687b      	ldr	r3, [r7, #4]
2000526a:	6b9b      	ldr	r3, [r3, #56]	; 0x38
2000526c:	60fb      	str	r3, [r7, #12]
2000526e:	68f8      	ldr	r0, [r7, #12]
20005270:	f7ff feb7 	bl	20004fe2 <HAL_SPI_TxRxHalfCpltCallback>
20005274:	bf00      	nop
20005276:	3710      	adds	r7, #16
20005278:	46bd      	mov	sp, r7
2000527a:	bd80      	pop	{r7, pc}

2000527c <SPI_DMAError>:
2000527c:	b580      	push	{r7, lr}
2000527e:	b084      	sub	sp, #16
20005280:	af00      	add	r7, sp, #0
20005282:	6078      	str	r0, [r7, #4]
20005284:	687b      	ldr	r3, [r7, #4]
20005286:	6b9b      	ldr	r3, [r3, #56]	; 0x38
20005288:	60fb      	str	r3, [r7, #12]
2000528a:	68fb      	ldr	r3, [r7, #12]
2000528c:	681b      	ldr	r3, [r3, #0]
2000528e:	685a      	ldr	r2, [r3, #4]
20005290:	68fb      	ldr	r3, [r7, #12]
20005292:	681b      	ldr	r3, [r3, #0]
20005294:	f022 0203 	bic.w	r2, r2, #3
20005298:	605a      	str	r2, [r3, #4]
2000529a:	68fb      	ldr	r3, [r7, #12]
2000529c:	6d5b      	ldr	r3, [r3, #84]	; 0x54
2000529e:	f043 0210 	orr.w	r2, r3, #16
200052a2:	68fb      	ldr	r3, [r7, #12]
200052a4:	655a      	str	r2, [r3, #84]	; 0x54
200052a6:	68fb      	ldr	r3, [r7, #12]
200052a8:	2201      	movs	r2, #1
200052aa:	f883 2051 	strb.w	r2, [r3, #81]	; 0x51
200052ae:	68f8      	ldr	r0, [r7, #12]
200052b0:	f7ff fea0 	bl	20004ff4 <HAL_SPI_ErrorCallback>
200052b4:	bf00      	nop
200052b6:	3710      	adds	r7, #16
200052b8:	46bd      	mov	sp, r7
200052ba:	bd80      	pop	{r7, pc}

200052bc <SPI_DMAAbortOnError>:
200052bc:	b580      	push	{r7, lr}
200052be:	b084      	sub	sp, #16
200052c0:	af00      	add	r7, sp, #0
200052c2:	6078      	str	r0, [r7, #4]
200052c4:	687b      	ldr	r3, [r7, #4]
200052c6:	6b9b      	ldr	r3, [r3, #56]	; 0x38
200052c8:	60fb      	str	r3, [r7, #12]
200052ca:	68fb      	ldr	r3, [r7, #12]
200052cc:	2200      	movs	r2, #0
200052ce:	87da      	strh	r2, [r3, #62]	; 0x3e
200052d0:	68fb      	ldr	r3, [r7, #12]
200052d2:	2200      	movs	r2, #0
200052d4:	86da      	strh	r2, [r3, #54]	; 0x36
200052d6:	68f8      	ldr	r0, [r7, #12]
200052d8:	f7ff fe8c 	bl	20004ff4 <HAL_SPI_ErrorCallback>
200052dc:	bf00      	nop
200052de:	3710      	adds	r7, #16
200052e0:	46bd      	mov	sp, r7
200052e2:	bd80      	pop	{r7, pc}

200052e4 <SPI_DMATxAbortCallback>:
200052e4:	b580      	push	{r7, lr}
200052e6:	b086      	sub	sp, #24
200052e8:	af00      	add	r7, sp, #0
200052ea:	6078      	str	r0, [r7, #4]
200052ec:	687b      	ldr	r3, [r7, #4]
200052ee:	6b9b      	ldr	r3, [r3, #56]	; 0x38
200052f0:	617b      	str	r3, [r7, #20]
200052f2:	697b      	ldr	r3, [r7, #20]
200052f4:	6c9b      	ldr	r3, [r3, #72]	; 0x48
200052f6:	2200      	movs	r2, #0
200052f8:	651a      	str	r2, [r3, #80]	; 0x50
200052fa:	4b2d      	ldr	r3, [pc, #180]	; (200053b0 <SPI_DMATxAbortCallback+0xcc>)
200052fc:	681b      	ldr	r3, [r3, #0]
200052fe:	4a2d      	ldr	r2, [pc, #180]	; (200053b4 <SPI_DMATxAbortCallback+0xd0>)
20005300:	fba2 2303 	umull	r2, r3, r2, r3
20005304:	0a5b      	lsrs	r3, r3, #9
20005306:	2264      	movs	r2, #100	; 0x64
20005308:	fb02 f303 	mul.w	r3, r2, r3
2000530c:	613b      	str	r3, [r7, #16]
2000530e:	697b      	ldr	r3, [r7, #20]
20005310:	681b      	ldr	r3, [r3, #0]
20005312:	685a      	ldr	r2, [r3, #4]
20005314:	697b      	ldr	r3, [r7, #20]
20005316:	681b      	ldr	r3, [r3, #0]
20005318:	f022 0202 	bic.w	r2, r2, #2
2000531c:	605a      	str	r2, [r3, #4]
2000531e:	693b      	ldr	r3, [r7, #16]
20005320:	2b00      	cmp	r3, #0
20005322:	d106      	bne.n	20005332 <SPI_DMATxAbortCallback+0x4e>
20005324:	697b      	ldr	r3, [r7, #20]
20005326:	6d5b      	ldr	r3, [r3, #84]	; 0x54
20005328:	f043 0240 	orr.w	r2, r3, #64	; 0x40
2000532c:	697b      	ldr	r3, [r7, #20]
2000532e:	655a      	str	r2, [r3, #84]	; 0x54
20005330:	e009      	b.n	20005346 <SPI_DMATxAbortCallback+0x62>
20005332:	693b      	ldr	r3, [r7, #16]
20005334:	3b01      	subs	r3, #1
20005336:	613b      	str	r3, [r7, #16]
20005338:	697b      	ldr	r3, [r7, #20]
2000533a:	681b      	ldr	r3, [r3, #0]
2000533c:	689b      	ldr	r3, [r3, #8]
2000533e:	f003 0302 	and.w	r3, r3, #2
20005342:	2b00      	cmp	r3, #0
20005344:	d0eb      	beq.n	2000531e <SPI_DMATxAbortCallback+0x3a>
20005346:	697b      	ldr	r3, [r7, #20]
20005348:	6cdb      	ldr	r3, [r3, #76]	; 0x4c
2000534a:	2b00      	cmp	r3, #0
2000534c:	d004      	beq.n	20005358 <SPI_DMATxAbortCallback+0x74>
2000534e:	697b      	ldr	r3, [r7, #20]
20005350:	6cdb      	ldr	r3, [r3, #76]	; 0x4c
20005352:	6d1b      	ldr	r3, [r3, #80]	; 0x50
20005354:	2b00      	cmp	r3, #0
20005356:	d126      	bne.n	200053a6 <SPI_DMATxAbortCallback+0xc2>
20005358:	697b      	ldr	r3, [r7, #20]
2000535a:	2200      	movs	r2, #0
2000535c:	87da      	strh	r2, [r3, #62]	; 0x3e
2000535e:	697b      	ldr	r3, [r7, #20]
20005360:	2200      	movs	r2, #0
20005362:	86da      	strh	r2, [r3, #54]	; 0x36
20005364:	697b      	ldr	r3, [r7, #20]
20005366:	6d5b      	ldr	r3, [r3, #84]	; 0x54
20005368:	2b40      	cmp	r3, #64	; 0x40
2000536a:	d002      	beq.n	20005372 <SPI_DMATxAbortCallback+0x8e>
2000536c:	697b      	ldr	r3, [r7, #20]
2000536e:	2200      	movs	r2, #0
20005370:	655a      	str	r2, [r3, #84]	; 0x54
20005372:	2300      	movs	r3, #0
20005374:	60fb      	str	r3, [r7, #12]
20005376:	697b      	ldr	r3, [r7, #20]
20005378:	681b      	ldr	r3, [r3, #0]
2000537a:	68db      	ldr	r3, [r3, #12]
2000537c:	60fb      	str	r3, [r7, #12]
2000537e:	697b      	ldr	r3, [r7, #20]
20005380:	681b      	ldr	r3, [r3, #0]
20005382:	689b      	ldr	r3, [r3, #8]
20005384:	60fb      	str	r3, [r7, #12]
20005386:	68fb      	ldr	r3, [r7, #12]
20005388:	2300      	movs	r3, #0
2000538a:	60bb      	str	r3, [r7, #8]
2000538c:	697b      	ldr	r3, [r7, #20]
2000538e:	681b      	ldr	r3, [r3, #0]
20005390:	689b      	ldr	r3, [r3, #8]
20005392:	60bb      	str	r3, [r7, #8]
20005394:	68bb      	ldr	r3, [r7, #8]
20005396:	697b      	ldr	r3, [r7, #20]
20005398:	2201      	movs	r2, #1
2000539a:	f883 2051 	strb.w	r2, [r3, #81]	; 0x51
2000539e:	6978      	ldr	r0, [r7, #20]
200053a0:	f7ff fe31 	bl	20005006 <HAL_SPI_AbortCpltCallback>
200053a4:	e000      	b.n	200053a8 <SPI_DMATxAbortCallback+0xc4>
200053a6:	bf00      	nop
200053a8:	3718      	adds	r7, #24
200053aa:	46bd      	mov	sp, r7
200053ac:	bd80      	pop	{r7, pc}
200053ae:	bf00      	nop
200053b0:	20000210 	.word	0x20000210
200053b4:	057619f1 	.word	0x057619f1

200053b8 <SPI_DMARxAbortCallback>:
200053b8:	b580      	push	{r7, lr}
200053ba:	b086      	sub	sp, #24
200053bc:	af00      	add	r7, sp, #0
200053be:	6078      	str	r0, [r7, #4]
200053c0:	687b      	ldr	r3, [r7, #4]
200053c2:	6b9b      	ldr	r3, [r3, #56]	; 0x38
200053c4:	617b      	str	r3, [r7, #20]
200053c6:	697b      	ldr	r3, [r7, #20]
200053c8:	681b      	ldr	r3, [r3, #0]
200053ca:	681a      	ldr	r2, [r3, #0]
200053cc:	697b      	ldr	r3, [r7, #20]
200053ce:	681b      	ldr	r3, [r3, #0]
200053d0:	f022 0240 	bic.w	r2, r2, #64	; 0x40
200053d4:	601a      	str	r2, [r3, #0]
200053d6:	697b      	ldr	r3, [r7, #20]
200053d8:	6cdb      	ldr	r3, [r3, #76]	; 0x4c
200053da:	2200      	movs	r2, #0
200053dc:	651a      	str	r2, [r3, #80]	; 0x50
200053de:	697b      	ldr	r3, [r7, #20]
200053e0:	681b      	ldr	r3, [r3, #0]
200053e2:	685a      	ldr	r2, [r3, #4]
200053e4:	697b      	ldr	r3, [r7, #20]
200053e6:	681b      	ldr	r3, [r3, #0]
200053e8:	f022 0201 	bic.w	r2, r2, #1
200053ec:	605a      	str	r2, [r3, #4]
200053ee:	f7fb fe35 	bl	2000105c <HAL_GetTick>
200053f2:	4603      	mov	r3, r0
200053f4:	461a      	mov	r2, r3
200053f6:	2164      	movs	r1, #100	; 0x64
200053f8:	6978      	ldr	r0, [r7, #20]
200053fa:	f000 fa78 	bl	200058ee <SPI_EndRxTxTransaction>
200053fe:	4603      	mov	r3, r0
20005400:	2b00      	cmp	r3, #0
20005402:	d005      	beq.n	20005410 <SPI_DMARxAbortCallback+0x58>
20005404:	697b      	ldr	r3, [r7, #20]
20005406:	6d5b      	ldr	r3, [r3, #84]	; 0x54
20005408:	f043 0240 	orr.w	r2, r3, #64	; 0x40
2000540c:	697b      	ldr	r3, [r7, #20]
2000540e:	655a      	str	r2, [r3, #84]	; 0x54
20005410:	697b      	ldr	r3, [r7, #20]
20005412:	6c9b      	ldr	r3, [r3, #72]	; 0x48
20005414:	2b00      	cmp	r3, #0
20005416:	d004      	beq.n	20005422 <SPI_DMARxAbortCallback+0x6a>
20005418:	697b      	ldr	r3, [r7, #20]
2000541a:	6c9b      	ldr	r3, [r3, #72]	; 0x48
2000541c:	6d1b      	ldr	r3, [r3, #80]	; 0x50
2000541e:	2b00      	cmp	r3, #0
20005420:	d126      	bne.n	20005470 <SPI_DMARxAbortCallback+0xb8>
20005422:	697b      	ldr	r3, [r7, #20]
20005424:	2200      	movs	r2, #0
20005426:	87da      	strh	r2, [r3, #62]	; 0x3e
20005428:	697b      	ldr	r3, [r7, #20]
2000542a:	2200      	movs	r2, #0
2000542c:	86da      	strh	r2, [r3, #54]	; 0x36
2000542e:	697b      	ldr	r3, [r7, #20]
20005430:	6d5b      	ldr	r3, [r3, #84]	; 0x54
20005432:	2b40      	cmp	r3, #64	; 0x40
20005434:	d002      	beq.n	2000543c <SPI_DMARxAbortCallback+0x84>
20005436:	697b      	ldr	r3, [r7, #20]
20005438:	2200      	movs	r2, #0
2000543a:	655a      	str	r2, [r3, #84]	; 0x54
2000543c:	2300      	movs	r3, #0
2000543e:	613b      	str	r3, [r7, #16]
20005440:	697b      	ldr	r3, [r7, #20]
20005442:	681b      	ldr	r3, [r3, #0]
20005444:	68db      	ldr	r3, [r3, #12]
20005446:	613b      	str	r3, [r7, #16]
20005448:	697b      	ldr	r3, [r7, #20]
2000544a:	681b      	ldr	r3, [r3, #0]
2000544c:	689b      	ldr	r3, [r3, #8]
2000544e:	613b      	str	r3, [r7, #16]
20005450:	693b      	ldr	r3, [r7, #16]
20005452:	2300      	movs	r3, #0
20005454:	60fb      	str	r3, [r7, #12]
20005456:	697b      	ldr	r3, [r7, #20]
20005458:	681b      	ldr	r3, [r3, #0]
2000545a:	689b      	ldr	r3, [r3, #8]
2000545c:	60fb      	str	r3, [r7, #12]
2000545e:	68fb      	ldr	r3, [r7, #12]
20005460:	697b      	ldr	r3, [r7, #20]
20005462:	2201      	movs	r2, #1
20005464:	f883 2051 	strb.w	r2, [r3, #81]	; 0x51
20005468:	6978      	ldr	r0, [r7, #20]
2000546a:	f7ff fdcc 	bl	20005006 <HAL_SPI_AbortCpltCallback>
2000546e:	e000      	b.n	20005472 <SPI_DMARxAbortCallback+0xba>
20005470:	bf00      	nop
20005472:	3718      	adds	r7, #24
20005474:	46bd      	mov	sp, r7
20005476:	bd80      	pop	{r7, pc}

20005478 <SPI_2linesRxISR_8BIT>:
20005478:	b580      	push	{r7, lr}
2000547a:	b082      	sub	sp, #8
2000547c:	af00      	add	r7, sp, #0
2000547e:	6078      	str	r0, [r7, #4]
20005480:	687b      	ldr	r3, [r7, #4]
20005482:	681b      	ldr	r3, [r3, #0]
20005484:	f103 020c 	add.w	r2, r3, #12
20005488:	687b      	ldr	r3, [r7, #4]
2000548a:	6b9b      	ldr	r3, [r3, #56]	; 0x38
2000548c:	7812      	ldrb	r2, [r2, #0]
2000548e:	b2d2      	uxtb	r2, r2
20005490:	701a      	strb	r2, [r3, #0]
20005492:	687b      	ldr	r3, [r7, #4]
20005494:	6b9b      	ldr	r3, [r3, #56]	; 0x38
20005496:	1c5a      	adds	r2, r3, #1
20005498:	687b      	ldr	r3, [r7, #4]
2000549a:	639a      	str	r2, [r3, #56]	; 0x38
2000549c:	687b      	ldr	r3, [r7, #4]
2000549e:	8fdb      	ldrh	r3, [r3, #62]	; 0x3e
200054a0:	b29b      	uxth	r3, r3
200054a2:	3b01      	subs	r3, #1
200054a4:	b29a      	uxth	r2, r3
200054a6:	687b      	ldr	r3, [r7, #4]
200054a8:	87da      	strh	r2, [r3, #62]	; 0x3e
200054aa:	687b      	ldr	r3, [r7, #4]
200054ac:	8fdb      	ldrh	r3, [r3, #62]	; 0x3e
200054ae:	b29b      	uxth	r3, r3
200054b0:	2b00      	cmp	r3, #0
200054b2:	d10f      	bne.n	200054d4 <SPI_2linesRxISR_8BIT+0x5c>
200054b4:	687b      	ldr	r3, [r7, #4]
200054b6:	681b      	ldr	r3, [r3, #0]
200054b8:	685a      	ldr	r2, [r3, #4]
200054ba:	687b      	ldr	r3, [r7, #4]
200054bc:	681b      	ldr	r3, [r3, #0]
200054be:	f022 0260 	bic.w	r2, r2, #96	; 0x60
200054c2:	605a      	str	r2, [r3, #4]
200054c4:	687b      	ldr	r3, [r7, #4]
200054c6:	8edb      	ldrh	r3, [r3, #54]	; 0x36
200054c8:	b29b      	uxth	r3, r3
200054ca:	2b00      	cmp	r3, #0
200054cc:	d102      	bne.n	200054d4 <SPI_2linesRxISR_8BIT+0x5c>
200054ce:	6878      	ldr	r0, [r7, #4]
200054d0:	f000 fa4e 	bl	20005970 <SPI_CloseRxTx_ISR>
200054d4:	bf00      	nop
200054d6:	3708      	adds	r7, #8
200054d8:	46bd      	mov	sp, r7
200054da:	bd80      	pop	{r7, pc}

200054dc <SPI_2linesTxISR_8BIT>:
200054dc:	b580      	push	{r7, lr}
200054de:	b082      	sub	sp, #8
200054e0:	af00      	add	r7, sp, #0
200054e2:	6078      	str	r0, [r7, #4]
200054e4:	687b      	ldr	r3, [r7, #4]
200054e6:	6b1a      	ldr	r2, [r3, #48]	; 0x30
200054e8:	687b      	ldr	r3, [r7, #4]
200054ea:	681b      	ldr	r3, [r3, #0]
200054ec:	330c      	adds	r3, #12
200054ee:	7812      	ldrb	r2, [r2, #0]
200054f0:	701a      	strb	r2, [r3, #0]
200054f2:	687b      	ldr	r3, [r7, #4]
200054f4:	6b1b      	ldr	r3, [r3, #48]	; 0x30
200054f6:	1c5a      	adds	r2, r3, #1
200054f8:	687b      	ldr	r3, [r7, #4]
200054fa:	631a      	str	r2, [r3, #48]	; 0x30
200054fc:	687b      	ldr	r3, [r7, #4]
200054fe:	8edb      	ldrh	r3, [r3, #54]	; 0x36
20005500:	b29b      	uxth	r3, r3
20005502:	3b01      	subs	r3, #1
20005504:	b29a      	uxth	r2, r3
20005506:	687b      	ldr	r3, [r7, #4]
20005508:	86da      	strh	r2, [r3, #54]	; 0x36
2000550a:	687b      	ldr	r3, [r7, #4]
2000550c:	8edb      	ldrh	r3, [r3, #54]	; 0x36
2000550e:	b29b      	uxth	r3, r3
20005510:	2b00      	cmp	r3, #0
20005512:	d10f      	bne.n	20005534 <SPI_2linesTxISR_8BIT+0x58>
20005514:	687b      	ldr	r3, [r7, #4]
20005516:	681b      	ldr	r3, [r3, #0]
20005518:	685a      	ldr	r2, [r3, #4]
2000551a:	687b      	ldr	r3, [r7, #4]
2000551c:	681b      	ldr	r3, [r3, #0]
2000551e:	f022 0280 	bic.w	r2, r2, #128	; 0x80
20005522:	605a      	str	r2, [r3, #4]
20005524:	687b      	ldr	r3, [r7, #4]
20005526:	8fdb      	ldrh	r3, [r3, #62]	; 0x3e
20005528:	b29b      	uxth	r3, r3
2000552a:	2b00      	cmp	r3, #0
2000552c:	d102      	bne.n	20005534 <SPI_2linesTxISR_8BIT+0x58>
2000552e:	6878      	ldr	r0, [r7, #4]
20005530:	f000 fa1e 	bl	20005970 <SPI_CloseRxTx_ISR>
20005534:	bf00      	nop
20005536:	3708      	adds	r7, #8
20005538:	46bd      	mov	sp, r7
2000553a:	bd80      	pop	{r7, pc}

2000553c <SPI_2linesRxISR_16BIT>:
2000553c:	b580      	push	{r7, lr}
2000553e:	b082      	sub	sp, #8
20005540:	af00      	add	r7, sp, #0
20005542:	6078      	str	r0, [r7, #4]
20005544:	687b      	ldr	r3, [r7, #4]
20005546:	681b      	ldr	r3, [r3, #0]
20005548:	68da      	ldr	r2, [r3, #12]
2000554a:	687b      	ldr	r3, [r7, #4]
2000554c:	6b9b      	ldr	r3, [r3, #56]	; 0x38
2000554e:	b292      	uxth	r2, r2
20005550:	801a      	strh	r2, [r3, #0]
20005552:	687b      	ldr	r3, [r7, #4]
20005554:	6b9b      	ldr	r3, [r3, #56]	; 0x38
20005556:	1c9a      	adds	r2, r3, #2
20005558:	687b      	ldr	r3, [r7, #4]
2000555a:	639a      	str	r2, [r3, #56]	; 0x38
2000555c:	687b      	ldr	r3, [r7, #4]
2000555e:	8fdb      	ldrh	r3, [r3, #62]	; 0x3e
20005560:	b29b      	uxth	r3, r3
20005562:	3b01      	subs	r3, #1
20005564:	b29a      	uxth	r2, r3
20005566:	687b      	ldr	r3, [r7, #4]
20005568:	87da      	strh	r2, [r3, #62]	; 0x3e
2000556a:	687b      	ldr	r3, [r7, #4]
2000556c:	8fdb      	ldrh	r3, [r3, #62]	; 0x3e
2000556e:	b29b      	uxth	r3, r3
20005570:	2b00      	cmp	r3, #0
20005572:	d10f      	bne.n	20005594 <SPI_2linesRxISR_16BIT+0x58>
20005574:	687b      	ldr	r3, [r7, #4]
20005576:	681b      	ldr	r3, [r3, #0]
20005578:	685a      	ldr	r2, [r3, #4]
2000557a:	687b      	ldr	r3, [r7, #4]
2000557c:	681b      	ldr	r3, [r3, #0]
2000557e:	f022 0240 	bic.w	r2, r2, #64	; 0x40
20005582:	605a      	str	r2, [r3, #4]
20005584:	687b      	ldr	r3, [r7, #4]
20005586:	8edb      	ldrh	r3, [r3, #54]	; 0x36
20005588:	b29b      	uxth	r3, r3
2000558a:	2b00      	cmp	r3, #0
2000558c:	d102      	bne.n	20005594 <SPI_2linesRxISR_16BIT+0x58>
2000558e:	6878      	ldr	r0, [r7, #4]
20005590:	f000 f9ee 	bl	20005970 <SPI_CloseRxTx_ISR>
20005594:	bf00      	nop
20005596:	3708      	adds	r7, #8
20005598:	46bd      	mov	sp, r7
2000559a:	bd80      	pop	{r7, pc}

2000559c <SPI_2linesTxISR_16BIT>:
2000559c:	b580      	push	{r7, lr}
2000559e:	b082      	sub	sp, #8
200055a0:	af00      	add	r7, sp, #0
200055a2:	6078      	str	r0, [r7, #4]
200055a4:	687b      	ldr	r3, [r7, #4]
200055a6:	6b1b      	ldr	r3, [r3, #48]	; 0x30
200055a8:	881a      	ldrh	r2, [r3, #0]
200055aa:	687b      	ldr	r3, [r7, #4]
200055ac:	681b      	ldr	r3, [r3, #0]
200055ae:	60da      	str	r2, [r3, #12]
200055b0:	687b      	ldr	r3, [r7, #4]
200055b2:	6b1b      	ldr	r3, [r3, #48]	; 0x30
200055b4:	1c9a      	adds	r2, r3, #2
200055b6:	687b      	ldr	r3, [r7, #4]
200055b8:	631a      	str	r2, [r3, #48]	; 0x30
200055ba:	687b      	ldr	r3, [r7, #4]
200055bc:	8edb      	ldrh	r3, [r3, #54]	; 0x36
200055be:	b29b      	uxth	r3, r3
200055c0:	3b01      	subs	r3, #1
200055c2:	b29a      	uxth	r2, r3
200055c4:	687b      	ldr	r3, [r7, #4]
200055c6:	86da      	strh	r2, [r3, #54]	; 0x36
200055c8:	687b      	ldr	r3, [r7, #4]
200055ca:	8edb      	ldrh	r3, [r3, #54]	; 0x36
200055cc:	b29b      	uxth	r3, r3
200055ce:	2b00      	cmp	r3, #0
200055d0:	d10f      	bne.n	200055f2 <SPI_2linesTxISR_16BIT+0x56>
200055d2:	687b      	ldr	r3, [r7, #4]
200055d4:	681b      	ldr	r3, [r3, #0]
200055d6:	685a      	ldr	r2, [r3, #4]
200055d8:	687b      	ldr	r3, [r7, #4]
200055da:	681b      	ldr	r3, [r3, #0]
200055dc:	f022 0280 	bic.w	r2, r2, #128	; 0x80
200055e0:	605a      	str	r2, [r3, #4]
200055e2:	687b      	ldr	r3, [r7, #4]
200055e4:	8fdb      	ldrh	r3, [r3, #62]	; 0x3e
200055e6:	b29b      	uxth	r3, r3
200055e8:	2b00      	cmp	r3, #0
200055ea:	d102      	bne.n	200055f2 <SPI_2linesTxISR_16BIT+0x56>
200055ec:	6878      	ldr	r0, [r7, #4]
200055ee:	f000 f9bf 	bl	20005970 <SPI_CloseRxTx_ISR>
200055f2:	bf00      	nop
200055f4:	3708      	adds	r7, #8
200055f6:	46bd      	mov	sp, r7
200055f8:	bd80      	pop	{r7, pc}

200055fa <SPI_RxISR_8BIT>:
200055fa:	b580      	push	{r7, lr}
200055fc:	b082      	sub	sp, #8
200055fe:	af00      	add	r7, sp, #0
20005600:	6078      	str	r0, [r7, #4]
20005602:	687b      	ldr	r3, [r7, #4]
20005604:	681b      	ldr	r3, [r3, #0]
20005606:	f103 020c 	add.w	r2, r3, #12
2000560a:	687b      	ldr	r3, [r7, #4]
2000560c:	6b9b      	ldr	r3, [r3, #56]	; 0x38
2000560e:	7812      	ldrb	r2, [r2, #0]
20005610:	b2d2      	uxtb	r2, r2
20005612:	701a      	strb	r2, [r3, #0]
20005614:	687b      	ldr	r3, [r7, #4]
20005616:	6b9b      	ldr	r3, [r3, #56]	; 0x38
20005618:	1c5a      	adds	r2, r3, #1
2000561a:	687b      	ldr	r3, [r7, #4]
2000561c:	639a      	str	r2, [r3, #56]	; 0x38
2000561e:	687b      	ldr	r3, [r7, #4]
20005620:	8fdb      	ldrh	r3, [r3, #62]	; 0x3e
20005622:	b29b      	uxth	r3, r3
20005624:	3b01      	subs	r3, #1
20005626:	b29a      	uxth	r2, r3
20005628:	687b      	ldr	r3, [r7, #4]
2000562a:	87da      	strh	r2, [r3, #62]	; 0x3e
2000562c:	687b      	ldr	r3, [r7, #4]
2000562e:	8fdb      	ldrh	r3, [r3, #62]	; 0x3e
20005630:	b29b      	uxth	r3, r3
20005632:	2b00      	cmp	r3, #0
20005634:	d102      	bne.n	2000563c <SPI_RxISR_8BIT+0x42>
20005636:	6878      	ldr	r0, [r7, #4]
20005638:	f000 fa0e 	bl	20005a58 <SPI_CloseRx_ISR>
2000563c:	bf00      	nop
2000563e:	3708      	adds	r7, #8
20005640:	46bd      	mov	sp, r7
20005642:	bd80      	pop	{r7, pc}

20005644 <SPI_RxISR_16BIT>:
20005644:	b580      	push	{r7, lr}
20005646:	b082      	sub	sp, #8
20005648:	af00      	add	r7, sp, #0
2000564a:	6078      	str	r0, [r7, #4]
2000564c:	687b      	ldr	r3, [r7, #4]
2000564e:	681b      	ldr	r3, [r3, #0]
20005650:	68da      	ldr	r2, [r3, #12]
20005652:	687b      	ldr	r3, [r7, #4]
20005654:	6b9b      	ldr	r3, [r3, #56]	; 0x38
20005656:	b292      	uxth	r2, r2
20005658:	801a      	strh	r2, [r3, #0]
2000565a:	687b      	ldr	r3, [r7, #4]
2000565c:	6b9b      	ldr	r3, [r3, #56]	; 0x38
2000565e:	1c9a      	adds	r2, r3, #2
20005660:	687b      	ldr	r3, [r7, #4]
20005662:	639a      	str	r2, [r3, #56]	; 0x38
20005664:	687b      	ldr	r3, [r7, #4]
20005666:	8fdb      	ldrh	r3, [r3, #62]	; 0x3e
20005668:	b29b      	uxth	r3, r3
2000566a:	3b01      	subs	r3, #1
2000566c:	b29a      	uxth	r2, r3
2000566e:	687b      	ldr	r3, [r7, #4]
20005670:	87da      	strh	r2, [r3, #62]	; 0x3e
20005672:	687b      	ldr	r3, [r7, #4]
20005674:	8fdb      	ldrh	r3, [r3, #62]	; 0x3e
20005676:	b29b      	uxth	r3, r3
20005678:	2b00      	cmp	r3, #0
2000567a:	d102      	bne.n	20005682 <SPI_RxISR_16BIT+0x3e>
2000567c:	6878      	ldr	r0, [r7, #4]
2000567e:	f000 f9eb 	bl	20005a58 <SPI_CloseRx_ISR>
20005682:	bf00      	nop
20005684:	3708      	adds	r7, #8
20005686:	46bd      	mov	sp, r7
20005688:	bd80      	pop	{r7, pc}

2000568a <SPI_TxISR_8BIT>:
2000568a:	b580      	push	{r7, lr}
2000568c:	b082      	sub	sp, #8
2000568e:	af00      	add	r7, sp, #0
20005690:	6078      	str	r0, [r7, #4]
20005692:	687b      	ldr	r3, [r7, #4]
20005694:	6b1a      	ldr	r2, [r3, #48]	; 0x30
20005696:	687b      	ldr	r3, [r7, #4]
20005698:	681b      	ldr	r3, [r3, #0]
2000569a:	330c      	adds	r3, #12
2000569c:	7812      	ldrb	r2, [r2, #0]
2000569e:	701a      	strb	r2, [r3, #0]
200056a0:	687b      	ldr	r3, [r7, #4]
200056a2:	6b1b      	ldr	r3, [r3, #48]	; 0x30
200056a4:	1c5a      	adds	r2, r3, #1
200056a6:	687b      	ldr	r3, [r7, #4]
200056a8:	631a      	str	r2, [r3, #48]	; 0x30
200056aa:	687b      	ldr	r3, [r7, #4]
200056ac:	8edb      	ldrh	r3, [r3, #54]	; 0x36
200056ae:	b29b      	uxth	r3, r3
200056b0:	3b01      	subs	r3, #1
200056b2:	b29a      	uxth	r2, r3
200056b4:	687b      	ldr	r3, [r7, #4]
200056b6:	86da      	strh	r2, [r3, #54]	; 0x36
200056b8:	687b      	ldr	r3, [r7, #4]
200056ba:	8edb      	ldrh	r3, [r3, #54]	; 0x36
200056bc:	b29b      	uxth	r3, r3
200056be:	2b00      	cmp	r3, #0
200056c0:	d102      	bne.n	200056c8 <SPI_TxISR_8BIT+0x3e>
200056c2:	6878      	ldr	r0, [r7, #4]
200056c4:	f000 fa07 	bl	20005ad6 <SPI_CloseTx_ISR>
200056c8:	bf00      	nop
200056ca:	3708      	adds	r7, #8
200056cc:	46bd      	mov	sp, r7
200056ce:	bd80      	pop	{r7, pc}

200056d0 <SPI_TxISR_16BIT>:
200056d0:	b580      	push	{r7, lr}
200056d2:	b082      	sub	sp, #8
200056d4:	af00      	add	r7, sp, #0
200056d6:	6078      	str	r0, [r7, #4]
200056d8:	687b      	ldr	r3, [r7, #4]
200056da:	6b1b      	ldr	r3, [r3, #48]	; 0x30
200056dc:	881a      	ldrh	r2, [r3, #0]
200056de:	687b      	ldr	r3, [r7, #4]
200056e0:	681b      	ldr	r3, [r3, #0]
200056e2:	60da      	str	r2, [r3, #12]
200056e4:	687b      	ldr	r3, [r7, #4]
200056e6:	6b1b      	ldr	r3, [r3, #48]	; 0x30
200056e8:	1c9a      	adds	r2, r3, #2
200056ea:	687b      	ldr	r3, [r7, #4]
200056ec:	631a      	str	r2, [r3, #48]	; 0x30
200056ee:	687b      	ldr	r3, [r7, #4]
200056f0:	8edb      	ldrh	r3, [r3, #54]	; 0x36
200056f2:	b29b      	uxth	r3, r3
200056f4:	3b01      	subs	r3, #1
200056f6:	b29a      	uxth	r2, r3
200056f8:	687b      	ldr	r3, [r7, #4]
200056fa:	86da      	strh	r2, [r3, #54]	; 0x36
200056fc:	687b      	ldr	r3, [r7, #4]
200056fe:	8edb      	ldrh	r3, [r3, #54]	; 0x36
20005700:	b29b      	uxth	r3, r3
20005702:	2b00      	cmp	r3, #0
20005704:	d102      	bne.n	2000570c <SPI_TxISR_16BIT+0x3c>
20005706:	6878      	ldr	r0, [r7, #4]
20005708:	f000 f9e5 	bl	20005ad6 <SPI_CloseTx_ISR>
2000570c:	bf00      	nop
2000570e:	3708      	adds	r7, #8
20005710:	46bd      	mov	sp, r7
20005712:	bd80      	pop	{r7, pc}

20005714 <SPI_WaitFlagStateUntilTimeout>:
20005714:	b580      	push	{r7, lr}
20005716:	b088      	sub	sp, #32
20005718:	af00      	add	r7, sp, #0
2000571a:	60f8      	str	r0, [r7, #12]
2000571c:	60b9      	str	r1, [r7, #8]
2000571e:	603b      	str	r3, [r7, #0]
20005720:	4613      	mov	r3, r2
20005722:	71fb      	strb	r3, [r7, #7]
20005724:	f7fb fc9a 	bl	2000105c <HAL_GetTick>
20005728:	4602      	mov	r2, r0
2000572a:	6abb      	ldr	r3, [r7, #40]	; 0x28
2000572c:	1a9b      	subs	r3, r3, r2
2000572e:	683a      	ldr	r2, [r7, #0]
20005730:	4413      	add	r3, r2
20005732:	61fb      	str	r3, [r7, #28]
20005734:	f7fb fc92 	bl	2000105c <HAL_GetTick>
20005738:	61b8      	str	r0, [r7, #24]
2000573a:	4b39      	ldr	r3, [pc, #228]	; (20005820 <SPI_WaitFlagStateUntilTimeout+0x10c>)
2000573c:	681b      	ldr	r3, [r3, #0]
2000573e:	015b      	lsls	r3, r3, #5
20005740:	0d1b      	lsrs	r3, r3, #20
20005742:	69fa      	ldr	r2, [r7, #28]
20005744:	fb02 f303 	mul.w	r3, r2, r3
20005748:	617b      	str	r3, [r7, #20]
2000574a:	e054      	b.n	200057f6 <SPI_WaitFlagStateUntilTimeout+0xe2>
2000574c:	683b      	ldr	r3, [r7, #0]
2000574e:	f1b3 3fff 	cmp.w	r3, #4294967295
20005752:	d050      	beq.n	200057f6 <SPI_WaitFlagStateUntilTimeout+0xe2>
20005754:	f7fb fc82 	bl	2000105c <HAL_GetTick>
20005758:	4602      	mov	r2, r0
2000575a:	69bb      	ldr	r3, [r7, #24]
2000575c:	1ad3      	subs	r3, r2, r3
2000575e:	69fa      	ldr	r2, [r7, #28]
20005760:	429a      	cmp	r2, r3
20005762:	d902      	bls.n	2000576a <SPI_WaitFlagStateUntilTimeout+0x56>
20005764:	69fb      	ldr	r3, [r7, #28]
20005766:	2b00      	cmp	r3, #0
20005768:	d13d      	bne.n	200057e6 <SPI_WaitFlagStateUntilTimeout+0xd2>
2000576a:	68fb      	ldr	r3, [r7, #12]
2000576c:	681b      	ldr	r3, [r3, #0]
2000576e:	685a      	ldr	r2, [r3, #4]
20005770:	68fb      	ldr	r3, [r7, #12]
20005772:	681b      	ldr	r3, [r3, #0]
20005774:	f022 02e0 	bic.w	r2, r2, #224	; 0xe0
20005778:	605a      	str	r2, [r3, #4]
2000577a:	68fb      	ldr	r3, [r7, #12]
2000577c:	685b      	ldr	r3, [r3, #4]
2000577e:	f5b3 7f82 	cmp.w	r3, #260	; 0x104
20005782:	d111      	bne.n	200057a8 <SPI_WaitFlagStateUntilTimeout+0x94>
20005784:	68fb      	ldr	r3, [r7, #12]
20005786:	689b      	ldr	r3, [r3, #8]
20005788:	f5b3 4f00 	cmp.w	r3, #32768	; 0x8000
2000578c:	d004      	beq.n	20005798 <SPI_WaitFlagStateUntilTimeout+0x84>
2000578e:	68fb      	ldr	r3, [r7, #12]
20005790:	689b      	ldr	r3, [r3, #8]
20005792:	f5b3 6f80 	cmp.w	r3, #1024	; 0x400
20005796:	d107      	bne.n	200057a8 <SPI_WaitFlagStateUntilTimeout+0x94>
20005798:	68fb      	ldr	r3, [r7, #12]
2000579a:	681b      	ldr	r3, [r3, #0]
2000579c:	681a      	ldr	r2, [r3, #0]
2000579e:	68fb      	ldr	r3, [r7, #12]
200057a0:	681b      	ldr	r3, [r3, #0]
200057a2:	f022 0240 	bic.w	r2, r2, #64	; 0x40
200057a6:	601a      	str	r2, [r3, #0]
200057a8:	68fb      	ldr	r3, [r7, #12]
200057aa:	6a9b      	ldr	r3, [r3, #40]	; 0x28
200057ac:	f5b3 5f00 	cmp.w	r3, #8192	; 0x2000
200057b0:	d10f      	bne.n	200057d2 <SPI_WaitFlagStateUntilTimeout+0xbe>
200057b2:	68fb      	ldr	r3, [r7, #12]
200057b4:	681b      	ldr	r3, [r3, #0]
200057b6:	681a      	ldr	r2, [r3, #0]
200057b8:	68fb      	ldr	r3, [r7, #12]
200057ba:	681b      	ldr	r3, [r3, #0]
200057bc:	f422 5200 	bic.w	r2, r2, #8192	; 0x2000
200057c0:	601a      	str	r2, [r3, #0]
200057c2:	68fb      	ldr	r3, [r7, #12]
200057c4:	681b      	ldr	r3, [r3, #0]
200057c6:	681a      	ldr	r2, [r3, #0]
200057c8:	68fb      	ldr	r3, [r7, #12]
200057ca:	681b      	ldr	r3, [r3, #0]
200057cc:	f442 5200 	orr.w	r2, r2, #8192	; 0x2000
200057d0:	601a      	str	r2, [r3, #0]
200057d2:	68fb      	ldr	r3, [r7, #12]
200057d4:	2201      	movs	r2, #1
200057d6:	f883 2051 	strb.w	r2, [r3, #81]	; 0x51
200057da:	68fb      	ldr	r3, [r7, #12]
200057dc:	2200      	movs	r2, #0
200057de:	f883 2050 	strb.w	r2, [r3, #80]	; 0x50
200057e2:	2303      	movs	r3, #3
200057e4:	e017      	b.n	20005816 <SPI_WaitFlagStateUntilTimeout+0x102>
200057e6:	697b      	ldr	r3, [r7, #20]
200057e8:	2b00      	cmp	r3, #0
200057ea:	d101      	bne.n	200057f0 <SPI_WaitFlagStateUntilTimeout+0xdc>
200057ec:	2300      	movs	r3, #0
200057ee:	61fb      	str	r3, [r7, #28]
200057f0:	697b      	ldr	r3, [r7, #20]
200057f2:	3b01      	subs	r3, #1
200057f4:	617b      	str	r3, [r7, #20]
200057f6:	68fb      	ldr	r3, [r7, #12]
200057f8:	681b      	ldr	r3, [r3, #0]
200057fa:	689a      	ldr	r2, [r3, #8]
200057fc:	68bb      	ldr	r3, [r7, #8]
200057fe:	4013      	ands	r3, r2
20005800:	68ba      	ldr	r2, [r7, #8]
20005802:	429a      	cmp	r2, r3
20005804:	bf0c      	ite	eq
20005806:	2301      	moveq	r3, #1
20005808:	2300      	movne	r3, #0
2000580a:	b2db      	uxtb	r3, r3
2000580c:	461a      	mov	r2, r3
2000580e:	79fb      	ldrb	r3, [r7, #7]
20005810:	429a      	cmp	r2, r3
20005812:	d19b      	bne.n	2000574c <SPI_WaitFlagStateUntilTimeout+0x38>
20005814:	2300      	movs	r3, #0
20005816:	4618      	mov	r0, r3
20005818:	3720      	adds	r7, #32
2000581a:	46bd      	mov	sp, r7
2000581c:	bd80      	pop	{r7, pc}
2000581e:	bf00      	nop
20005820:	20000210 	.word	0x20000210

20005824 <SPI_EndRxTransaction>:
20005824:	b580      	push	{r7, lr}
20005826:	b086      	sub	sp, #24
20005828:	af02      	add	r7, sp, #8
2000582a:	60f8      	str	r0, [r7, #12]
2000582c:	60b9      	str	r1, [r7, #8]
2000582e:	607a      	str	r2, [r7, #4]
20005830:	68fb      	ldr	r3, [r7, #12]
20005832:	685b      	ldr	r3, [r3, #4]
20005834:	f5b3 7f82 	cmp.w	r3, #260	; 0x104
20005838:	d111      	bne.n	2000585e <SPI_EndRxTransaction+0x3a>
2000583a:	68fb      	ldr	r3, [r7, #12]
2000583c:	689b      	ldr	r3, [r3, #8]
2000583e:	f5b3 4f00 	cmp.w	r3, #32768	; 0x8000
20005842:	d004      	beq.n	2000584e <SPI_EndRxTransaction+0x2a>
20005844:	68fb      	ldr	r3, [r7, #12]
20005846:	689b      	ldr	r3, [r3, #8]
20005848:	f5b3 6f80 	cmp.w	r3, #1024	; 0x400
2000584c:	d107      	bne.n	2000585e <SPI_EndRxTransaction+0x3a>
2000584e:	68fb      	ldr	r3, [r7, #12]
20005850:	681b      	ldr	r3, [r3, #0]
20005852:	681a      	ldr	r2, [r3, #0]
20005854:	68fb      	ldr	r3, [r7, #12]
20005856:	681b      	ldr	r3, [r3, #0]
20005858:	f022 0240 	bic.w	r2, r2, #64	; 0x40
2000585c:	601a      	str	r2, [r3, #0]
2000585e:	68fb      	ldr	r3, [r7, #12]
20005860:	685b      	ldr	r3, [r3, #4]
20005862:	f5b3 7f82 	cmp.w	r3, #260	; 0x104
20005866:	d12a      	bne.n	200058be <SPI_EndRxTransaction+0x9a>
20005868:	68fb      	ldr	r3, [r7, #12]
2000586a:	689b      	ldr	r3, [r3, #8]
2000586c:	f5b3 6f80 	cmp.w	r3, #1024	; 0x400
20005870:	d012      	beq.n	20005898 <SPI_EndRxTransaction+0x74>
20005872:	687b      	ldr	r3, [r7, #4]
20005874:	9300      	str	r3, [sp, #0]
20005876:	68bb      	ldr	r3, [r7, #8]
20005878:	2200      	movs	r2, #0
2000587a:	2180      	movs	r1, #128	; 0x80
2000587c:	68f8      	ldr	r0, [r7, #12]
2000587e:	f7ff ff49 	bl	20005714 <SPI_WaitFlagStateUntilTimeout>
20005882:	4603      	mov	r3, r0
20005884:	2b00      	cmp	r3, #0
20005886:	d02d      	beq.n	200058e4 <SPI_EndRxTransaction+0xc0>
20005888:	68fb      	ldr	r3, [r7, #12]
2000588a:	6d5b      	ldr	r3, [r3, #84]	; 0x54
2000588c:	f043 0220 	orr.w	r2, r3, #32
20005890:	68fb      	ldr	r3, [r7, #12]
20005892:	655a      	str	r2, [r3, #84]	; 0x54
20005894:	2303      	movs	r3, #3
20005896:	e026      	b.n	200058e6 <SPI_EndRxTransaction+0xc2>
20005898:	687b      	ldr	r3, [r7, #4]
2000589a:	9300      	str	r3, [sp, #0]
2000589c:	68bb      	ldr	r3, [r7, #8]
2000589e:	2200      	movs	r2, #0
200058a0:	2101      	movs	r1, #1
200058a2:	68f8      	ldr	r0, [r7, #12]
200058a4:	f7ff ff36 	bl	20005714 <SPI_WaitFlagStateUntilTimeout>
200058a8:	4603      	mov	r3, r0
200058aa:	2b00      	cmp	r3, #0
200058ac:	d01a      	beq.n	200058e4 <SPI_EndRxTransaction+0xc0>
200058ae:	68fb      	ldr	r3, [r7, #12]
200058b0:	6d5b      	ldr	r3, [r3, #84]	; 0x54
200058b2:	f043 0220 	orr.w	r2, r3, #32
200058b6:	68fb      	ldr	r3, [r7, #12]
200058b8:	655a      	str	r2, [r3, #84]	; 0x54
200058ba:	2303      	movs	r3, #3
200058bc:	e013      	b.n	200058e6 <SPI_EndRxTransaction+0xc2>
200058be:	687b      	ldr	r3, [r7, #4]
200058c0:	9300      	str	r3, [sp, #0]
200058c2:	68bb      	ldr	r3, [r7, #8]
200058c4:	2200      	movs	r2, #0
200058c6:	2101      	movs	r1, #1
200058c8:	68f8      	ldr	r0, [r7, #12]
200058ca:	f7ff ff23 	bl	20005714 <SPI_WaitFlagStateUntilTimeout>
200058ce:	4603      	mov	r3, r0
200058d0:	2b00      	cmp	r3, #0
200058d2:	d007      	beq.n	200058e4 <SPI_EndRxTransaction+0xc0>
200058d4:	68fb      	ldr	r3, [r7, #12]
200058d6:	6d5b      	ldr	r3, [r3, #84]	; 0x54
200058d8:	f043 0220 	orr.w	r2, r3, #32
200058dc:	68fb      	ldr	r3, [r7, #12]
200058de:	655a      	str	r2, [r3, #84]	; 0x54
200058e0:	2303      	movs	r3, #3
200058e2:	e000      	b.n	200058e6 <SPI_EndRxTransaction+0xc2>
200058e4:	2300      	movs	r3, #0
200058e6:	4618      	mov	r0, r3
200058e8:	3710      	adds	r7, #16
200058ea:	46bd      	mov	sp, r7
200058ec:	bd80      	pop	{r7, pc}

200058ee <SPI_EndRxTxTransaction>:
200058ee:	b580      	push	{r7, lr}
200058f0:	b088      	sub	sp, #32
200058f2:	af02      	add	r7, sp, #8
200058f4:	60f8      	str	r0, [r7, #12]
200058f6:	60b9      	str	r1, [r7, #8]
200058f8:	607a      	str	r2, [r7, #4]
200058fa:	4b1b      	ldr	r3, [pc, #108]	; (20005968 <SPI_EndRxTxTransaction+0x7a>)
200058fc:	681b      	ldr	r3, [r3, #0]
200058fe:	4a1b      	ldr	r2, [pc, #108]	; (2000596c <SPI_EndRxTxTransaction+0x7e>)
20005900:	fba2 2303 	umull	r2, r3, r2, r3
20005904:	0d5b      	lsrs	r3, r3, #21
20005906:	f44f 727a 	mov.w	r2, #1000	; 0x3e8
2000590a:	fb02 f303 	mul.w	r3, r2, r3
2000590e:	617b      	str	r3, [r7, #20]
20005910:	68fb      	ldr	r3, [r7, #12]
20005912:	685b      	ldr	r3, [r3, #4]
20005914:	f5b3 7f82 	cmp.w	r3, #260	; 0x104
20005918:	d112      	bne.n	20005940 <SPI_EndRxTxTransaction+0x52>
2000591a:	687b      	ldr	r3, [r7, #4]
2000591c:	9300      	str	r3, [sp, #0]
2000591e:	68bb      	ldr	r3, [r7, #8]
20005920:	2200      	movs	r2, #0
20005922:	2180      	movs	r1, #128	; 0x80
20005924:	68f8      	ldr	r0, [r7, #12]
20005926:	f7ff fef5 	bl	20005714 <SPI_WaitFlagStateUntilTimeout>
2000592a:	4603      	mov	r3, r0
2000592c:	2b00      	cmp	r3, #0
2000592e:	d016      	beq.n	2000595e <SPI_EndRxTxTransaction+0x70>
20005930:	68fb      	ldr	r3, [r7, #12]
20005932:	6d5b      	ldr	r3, [r3, #84]	; 0x54
20005934:	f043 0220 	orr.w	r2, r3, #32
20005938:	68fb      	ldr	r3, [r7, #12]
2000593a:	655a      	str	r2, [r3, #84]	; 0x54
2000593c:	2303      	movs	r3, #3
2000593e:	e00f      	b.n	20005960 <SPI_EndRxTxTransaction+0x72>
20005940:	697b      	ldr	r3, [r7, #20]
20005942:	2b00      	cmp	r3, #0
20005944:	d00a      	beq.n	2000595c <SPI_EndRxTxTransaction+0x6e>
20005946:	697b      	ldr	r3, [r7, #20]
20005948:	3b01      	subs	r3, #1
2000594a:	617b      	str	r3, [r7, #20]
2000594c:	68fb      	ldr	r3, [r7, #12]
2000594e:	681b      	ldr	r3, [r3, #0]
20005950:	689b      	ldr	r3, [r3, #8]
20005952:	f003 0380 	and.w	r3, r3, #128	; 0x80
20005956:	2b80      	cmp	r3, #128	; 0x80
20005958:	d0f2      	beq.n	20005940 <SPI_EndRxTxTransaction+0x52>
2000595a:	e000      	b.n	2000595e <SPI_EndRxTxTransaction+0x70>
2000595c:	bf00      	nop
2000595e:	2300      	movs	r3, #0
20005960:	4618      	mov	r0, r3
20005962:	3718      	adds	r7, #24
20005964:	46bd      	mov	sp, r7
20005966:	bd80      	pop	{r7, pc}
20005968:	20000210 	.word	0x20000210
2000596c:	165e9f81 	.word	0x165e9f81

20005970 <SPI_CloseRxTx_ISR>:
20005970:	b580      	push	{r7, lr}
20005972:	b086      	sub	sp, #24
20005974:	af00      	add	r7, sp, #0
20005976:	6078      	str	r0, [r7, #4]
20005978:	4b35      	ldr	r3, [pc, #212]	; (20005a50 <SPI_CloseRxTx_ISR+0xe0>)
2000597a:	681b      	ldr	r3, [r3, #0]
2000597c:	4a35      	ldr	r2, [pc, #212]	; (20005a54 <SPI_CloseRxTx_ISR+0xe4>)
2000597e:	fba2 2303 	umull	r2, r3, r2, r3
20005982:	0a5b      	lsrs	r3, r3, #9
20005984:	2264      	movs	r2, #100	; 0x64
20005986:	fb02 f303 	mul.w	r3, r2, r3
2000598a:	613b      	str	r3, [r7, #16]
2000598c:	f7fb fb66 	bl	2000105c <HAL_GetTick>
20005990:	6178      	str	r0, [r7, #20]
20005992:	687b      	ldr	r3, [r7, #4]
20005994:	681b      	ldr	r3, [r3, #0]
20005996:	685a      	ldr	r2, [r3, #4]
20005998:	687b      	ldr	r3, [r7, #4]
2000599a:	681b      	ldr	r3, [r3, #0]
2000599c:	f022 0220 	bic.w	r2, r2, #32
200059a0:	605a      	str	r2, [r3, #4]
200059a2:	693b      	ldr	r3, [r7, #16]
200059a4:	2b00      	cmp	r3, #0
200059a6:	d106      	bne.n	200059b6 <SPI_CloseRxTx_ISR+0x46>
200059a8:	687b      	ldr	r3, [r7, #4]
200059aa:	6d5b      	ldr	r3, [r3, #84]	; 0x54
200059ac:	f043 0220 	orr.w	r2, r3, #32
200059b0:	687b      	ldr	r3, [r7, #4]
200059b2:	655a      	str	r2, [r3, #84]	; 0x54
200059b4:	e009      	b.n	200059ca <SPI_CloseRxTx_ISR+0x5a>
200059b6:	693b      	ldr	r3, [r7, #16]
200059b8:	3b01      	subs	r3, #1
200059ba:	613b      	str	r3, [r7, #16]
200059bc:	687b      	ldr	r3, [r7, #4]
200059be:	681b      	ldr	r3, [r3, #0]
200059c0:	689b      	ldr	r3, [r3, #8]
200059c2:	f003 0302 	and.w	r3, r3, #2
200059c6:	2b00      	cmp	r3, #0
200059c8:	d0eb      	beq.n	200059a2 <SPI_CloseRxTx_ISR+0x32>
200059ca:	697a      	ldr	r2, [r7, #20]
200059cc:	2164      	movs	r1, #100	; 0x64
200059ce:	6878      	ldr	r0, [r7, #4]
200059d0:	f7ff ff8d 	bl	200058ee <SPI_EndRxTxTransaction>
200059d4:	4603      	mov	r3, r0
200059d6:	2b00      	cmp	r3, #0
200059d8:	d005      	beq.n	200059e6 <SPI_CloseRxTx_ISR+0x76>
200059da:	687b      	ldr	r3, [r7, #4]
200059dc:	6d5b      	ldr	r3, [r3, #84]	; 0x54
200059de:	f043 0220 	orr.w	r2, r3, #32
200059e2:	687b      	ldr	r3, [r7, #4]
200059e4:	655a      	str	r2, [r3, #84]	; 0x54
200059e6:	687b      	ldr	r3, [r7, #4]
200059e8:	689b      	ldr	r3, [r3, #8]
200059ea:	2b00      	cmp	r3, #0
200059ec:	d10a      	bne.n	20005a04 <SPI_CloseRxTx_ISR+0x94>
200059ee:	2300      	movs	r3, #0
200059f0:	60fb      	str	r3, [r7, #12]
200059f2:	687b      	ldr	r3, [r7, #4]
200059f4:	681b      	ldr	r3, [r3, #0]
200059f6:	68db      	ldr	r3, [r3, #12]
200059f8:	60fb      	str	r3, [r7, #12]
200059fa:	687b      	ldr	r3, [r7, #4]
200059fc:	681b      	ldr	r3, [r3, #0]
200059fe:	689b      	ldr	r3, [r3, #8]
20005a00:	60fb      	str	r3, [r7, #12]
20005a02:	68fb      	ldr	r3, [r7, #12]
20005a04:	687b      	ldr	r3, [r7, #4]
20005a06:	6d5b      	ldr	r3, [r3, #84]	; 0x54
20005a08:	2b00      	cmp	r3, #0
20005a0a:	d115      	bne.n	20005a38 <SPI_CloseRxTx_ISR+0xc8>
20005a0c:	687b      	ldr	r3, [r7, #4]
20005a0e:	f893 3051 	ldrb.w	r3, [r3, #81]	; 0x51
20005a12:	b2db      	uxtb	r3, r3
20005a14:	2b04      	cmp	r3, #4
20005a16:	d107      	bne.n	20005a28 <SPI_CloseRxTx_ISR+0xb8>
20005a18:	687b      	ldr	r3, [r7, #4]
20005a1a:	2201      	movs	r2, #1
20005a1c:	f883 2051 	strb.w	r2, [r3, #81]	; 0x51
20005a20:	6878      	ldr	r0, [r7, #4]
20005a22:	f7ff faba 	bl	20004f9a <HAL_SPI_RxCpltCallback>
20005a26:	e00e      	b.n	20005a46 <SPI_CloseRxTx_ISR+0xd6>
20005a28:	687b      	ldr	r3, [r7, #4]
20005a2a:	2201      	movs	r2, #1
20005a2c:	f883 2051 	strb.w	r2, [r3, #81]	; 0x51
20005a30:	6878      	ldr	r0, [r7, #4]
20005a32:	f7ff fabb 	bl	20004fac <HAL_SPI_TxRxCpltCallback>
20005a36:	e006      	b.n	20005a46 <SPI_CloseRxTx_ISR+0xd6>
20005a38:	687b      	ldr	r3, [r7, #4]
20005a3a:	2201      	movs	r2, #1
20005a3c:	f883 2051 	strb.w	r2, [r3, #81]	; 0x51
20005a40:	6878      	ldr	r0, [r7, #4]
20005a42:	f7ff fad7 	bl	20004ff4 <HAL_SPI_ErrorCallback>
20005a46:	bf00      	nop
20005a48:	3718      	adds	r7, #24
20005a4a:	46bd      	mov	sp, r7
20005a4c:	bd80      	pop	{r7, pc}
20005a4e:	bf00      	nop
20005a50:	20000210 	.word	0x20000210
20005a54:	057619f1 	.word	0x057619f1

20005a58 <SPI_CloseRx_ISR>:
20005a58:	b580      	push	{r7, lr}
20005a5a:	b084      	sub	sp, #16
20005a5c:	af00      	add	r7, sp, #0
20005a5e:	6078      	str	r0, [r7, #4]
20005a60:	687b      	ldr	r3, [r7, #4]
20005a62:	681b      	ldr	r3, [r3, #0]
20005a64:	685a      	ldr	r2, [r3, #4]
20005a66:	687b      	ldr	r3, [r7, #4]
20005a68:	681b      	ldr	r3, [r3, #0]
20005a6a:	f022 0260 	bic.w	r2, r2, #96	; 0x60
20005a6e:	605a      	str	r2, [r3, #4]
20005a70:	f7fb faf4 	bl	2000105c <HAL_GetTick>
20005a74:	4603      	mov	r3, r0
20005a76:	461a      	mov	r2, r3
20005a78:	2164      	movs	r1, #100	; 0x64
20005a7a:	6878      	ldr	r0, [r7, #4]
20005a7c:	f7ff fed2 	bl	20005824 <SPI_EndRxTransaction>
20005a80:	4603      	mov	r3, r0
20005a82:	2b00      	cmp	r3, #0
20005a84:	d005      	beq.n	20005a92 <SPI_CloseRx_ISR+0x3a>
20005a86:	687b      	ldr	r3, [r7, #4]
20005a88:	6d5b      	ldr	r3, [r3, #84]	; 0x54
20005a8a:	f043 0220 	orr.w	r2, r3, #32
20005a8e:	687b      	ldr	r3, [r7, #4]
20005a90:	655a      	str	r2, [r3, #84]	; 0x54
20005a92:	687b      	ldr	r3, [r7, #4]
20005a94:	689b      	ldr	r3, [r3, #8]
20005a96:	2b00      	cmp	r3, #0
20005a98:	d10a      	bne.n	20005ab0 <SPI_CloseRx_ISR+0x58>
20005a9a:	2300      	movs	r3, #0
20005a9c:	60fb      	str	r3, [r7, #12]
20005a9e:	687b      	ldr	r3, [r7, #4]
20005aa0:	681b      	ldr	r3, [r3, #0]
20005aa2:	68db      	ldr	r3, [r3, #12]
20005aa4:	60fb      	str	r3, [r7, #12]
20005aa6:	687b      	ldr	r3, [r7, #4]
20005aa8:	681b      	ldr	r3, [r3, #0]
20005aaa:	689b      	ldr	r3, [r3, #8]
20005aac:	60fb      	str	r3, [r7, #12]
20005aae:	68fb      	ldr	r3, [r7, #12]
20005ab0:	687b      	ldr	r3, [r7, #4]
20005ab2:	2201      	movs	r2, #1
20005ab4:	f883 2051 	strb.w	r2, [r3, #81]	; 0x51
20005ab8:	687b      	ldr	r3, [r7, #4]
20005aba:	6d5b      	ldr	r3, [r3, #84]	; 0x54
20005abc:	2b00      	cmp	r3, #0
20005abe:	d103      	bne.n	20005ac8 <SPI_CloseRx_ISR+0x70>
20005ac0:	6878      	ldr	r0, [r7, #4]
20005ac2:	f7ff fa6a 	bl	20004f9a <HAL_SPI_RxCpltCallback>
20005ac6:	e002      	b.n	20005ace <SPI_CloseRx_ISR+0x76>
20005ac8:	6878      	ldr	r0, [r7, #4]
20005aca:	f7ff fa93 	bl	20004ff4 <HAL_SPI_ErrorCallback>
20005ace:	bf00      	nop
20005ad0:	3710      	adds	r7, #16
20005ad2:	46bd      	mov	sp, r7
20005ad4:	bd80      	pop	{r7, pc}

20005ad6 <SPI_CloseTx_ISR>:
20005ad6:	b580      	push	{r7, lr}
20005ad8:	b086      	sub	sp, #24
20005ada:	af00      	add	r7, sp, #0
20005adc:	6078      	str	r0, [r7, #4]
20005ade:	4b2c      	ldr	r3, [pc, #176]	; (20005b90 <SPI_CloseTx_ISR+0xba>)
20005ae0:	681b      	ldr	r3, [r3, #0]
20005ae2:	4a2c      	ldr	r2, [pc, #176]	; (20005b94 <SPI_CloseTx_ISR+0xbe>)
20005ae4:	fba2 2303 	umull	r2, r3, r2, r3
20005ae8:	0a5b      	lsrs	r3, r3, #9
20005aea:	2264      	movs	r2, #100	; 0x64
20005aec:	fb02 f303 	mul.w	r3, r2, r3
20005af0:	613b      	str	r3, [r7, #16]
20005af2:	f7fb fab3 	bl	2000105c <HAL_GetTick>
20005af6:	6178      	str	r0, [r7, #20]
20005af8:	693b      	ldr	r3, [r7, #16]
20005afa:	2b00      	cmp	r3, #0
20005afc:	d106      	bne.n	20005b0c <SPI_CloseTx_ISR+0x36>
20005afe:	687b      	ldr	r3, [r7, #4]
20005b00:	6d5b      	ldr	r3, [r3, #84]	; 0x54
20005b02:	f043 0220 	orr.w	r2, r3, #32
20005b06:	687b      	ldr	r3, [r7, #4]
20005b08:	655a      	str	r2, [r3, #84]	; 0x54
20005b0a:	e009      	b.n	20005b20 <SPI_CloseTx_ISR+0x4a>
20005b0c:	693b      	ldr	r3, [r7, #16]
20005b0e:	3b01      	subs	r3, #1
20005b10:	613b      	str	r3, [r7, #16]
20005b12:	687b      	ldr	r3, [r7, #4]
20005b14:	681b      	ldr	r3, [r3, #0]
20005b16:	689b      	ldr	r3, [r3, #8]
20005b18:	f003 0302 	and.w	r3, r3, #2
20005b1c:	2b00      	cmp	r3, #0
20005b1e:	d0eb      	beq.n	20005af8 <SPI_CloseTx_ISR+0x22>
20005b20:	687b      	ldr	r3, [r7, #4]
20005b22:	681b      	ldr	r3, [r3, #0]
20005b24:	685a      	ldr	r2, [r3, #4]
20005b26:	687b      	ldr	r3, [r7, #4]
20005b28:	681b      	ldr	r3, [r3, #0]
20005b2a:	f022 02a0 	bic.w	r2, r2, #160	; 0xa0
20005b2e:	605a      	str	r2, [r3, #4]
20005b30:	697a      	ldr	r2, [r7, #20]
20005b32:	2164      	movs	r1, #100	; 0x64
20005b34:	6878      	ldr	r0, [r7, #4]
20005b36:	f7ff feda 	bl	200058ee <SPI_EndRxTxTransaction>
20005b3a:	4603      	mov	r3, r0
20005b3c:	2b00      	cmp	r3, #0
20005b3e:	d005      	beq.n	20005b4c <SPI_CloseTx_ISR+0x76>
20005b40:	687b      	ldr	r3, [r7, #4]
20005b42:	6d5b      	ldr	r3, [r3, #84]	; 0x54
20005b44:	f043 0220 	orr.w	r2, r3, #32
20005b48:	687b      	ldr	r3, [r7, #4]
20005b4a:	655a      	str	r2, [r3, #84]	; 0x54
20005b4c:	687b      	ldr	r3, [r7, #4]
20005b4e:	689b      	ldr	r3, [r3, #8]
20005b50:	2b00      	cmp	r3, #0
20005b52:	d10a      	bne.n	20005b6a <SPI_CloseTx_ISR+0x94>
20005b54:	2300      	movs	r3, #0
20005b56:	60fb      	str	r3, [r7, #12]
20005b58:	687b      	ldr	r3, [r7, #4]
20005b5a:	681b      	ldr	r3, [r3, #0]
20005b5c:	68db      	ldr	r3, [r3, #12]
20005b5e:	60fb      	str	r3, [r7, #12]
20005b60:	687b      	ldr	r3, [r7, #4]
20005b62:	681b      	ldr	r3, [r3, #0]
20005b64:	689b      	ldr	r3, [r3, #8]
20005b66:	60fb      	str	r3, [r7, #12]
20005b68:	68fb      	ldr	r3, [r7, #12]
20005b6a:	687b      	ldr	r3, [r7, #4]
20005b6c:	2201      	movs	r2, #1
20005b6e:	f883 2051 	strb.w	r2, [r3, #81]	; 0x51
20005b72:	687b      	ldr	r3, [r7, #4]
20005b74:	6d5b      	ldr	r3, [r3, #84]	; 0x54
20005b76:	2b00      	cmp	r3, #0
20005b78:	d003      	beq.n	20005b82 <SPI_CloseTx_ISR+0xac>
20005b7a:	6878      	ldr	r0, [r7, #4]
20005b7c:	f7ff fa3a 	bl	20004ff4 <HAL_SPI_ErrorCallback>
20005b80:	e002      	b.n	20005b88 <SPI_CloseTx_ISR+0xb2>
20005b82:	6878      	ldr	r0, [r7, #4]
20005b84:	f7ff fa00 	bl	20004f88 <HAL_SPI_TxCpltCallback>
20005b88:	bf00      	nop
20005b8a:	3718      	adds	r7, #24
20005b8c:	46bd      	mov	sp, r7
20005b8e:	bd80      	pop	{r7, pc}
20005b90:	20000210 	.word	0x20000210
20005b94:	057619f1 	.word	0x057619f1

20005b98 <SPI_AbortRx_ISR>:
20005b98:	b480      	push	{r7}
20005b9a:	b085      	sub	sp, #20
20005b9c:	af00      	add	r7, sp, #0
20005b9e:	6078      	str	r0, [r7, #4]
20005ba0:	2300      	movs	r3, #0
20005ba2:	60fb      	str	r3, [r7, #12]
20005ba4:	4b1d      	ldr	r3, [pc, #116]	; (20005c1c <SPI_AbortRx_ISR+0x84>)
20005ba6:	681b      	ldr	r3, [r3, #0]
20005ba8:	4a1d      	ldr	r2, [pc, #116]	; (20005c20 <SPI_AbortRx_ISR+0x88>)
20005baa:	fba2 2303 	umull	r2, r3, r2, r3
20005bae:	0a5b      	lsrs	r3, r3, #9
20005bb0:	2264      	movs	r2, #100	; 0x64
20005bb2:	fb02 f303 	mul.w	r3, r2, r3
20005bb6:	60bb      	str	r3, [r7, #8]
20005bb8:	68bb      	ldr	r3, [r7, #8]
20005bba:	2b00      	cmp	r3, #0
20005bbc:	d106      	bne.n	20005bcc <SPI_AbortRx_ISR+0x34>
20005bbe:	687b      	ldr	r3, [r7, #4]
20005bc0:	6d5b      	ldr	r3, [r3, #84]	; 0x54
20005bc2:	f043 0240 	orr.w	r2, r3, #64	; 0x40
20005bc6:	687b      	ldr	r3, [r7, #4]
20005bc8:	655a      	str	r2, [r3, #84]	; 0x54
20005bca:	e009      	b.n	20005be0 <SPI_AbortRx_ISR+0x48>
20005bcc:	68bb      	ldr	r3, [r7, #8]
20005bce:	3b01      	subs	r3, #1
20005bd0:	60bb      	str	r3, [r7, #8]
20005bd2:	687b      	ldr	r3, [r7, #4]
20005bd4:	681b      	ldr	r3, [r3, #0]
20005bd6:	689b      	ldr	r3, [r3, #8]
20005bd8:	f003 0302 	and.w	r3, r3, #2
20005bdc:	2b00      	cmp	r3, #0
20005bde:	d0eb      	beq.n	20005bb8 <SPI_AbortRx_ISR+0x20>
20005be0:	687b      	ldr	r3, [r7, #4]
20005be2:	681b      	ldr	r3, [r3, #0]
20005be4:	681a      	ldr	r2, [r3, #0]
20005be6:	687b      	ldr	r3, [r7, #4]
20005be8:	681b      	ldr	r3, [r3, #0]
20005bea:	f022 0240 	bic.w	r2, r2, #64	; 0x40
20005bee:	601a      	str	r2, [r3, #0]
20005bf0:	687b      	ldr	r3, [r7, #4]
20005bf2:	681b      	ldr	r3, [r3, #0]
20005bf4:	685a      	ldr	r2, [r3, #4]
20005bf6:	687b      	ldr	r3, [r7, #4]
20005bf8:	681b      	ldr	r3, [r3, #0]
20005bfa:	f022 02e0 	bic.w	r2, r2, #224	; 0xe0
20005bfe:	605a      	str	r2, [r3, #4]
20005c00:	687b      	ldr	r3, [r7, #4]
20005c02:	681b      	ldr	r3, [r3, #0]
20005c04:	68db      	ldr	r3, [r3, #12]
20005c06:	60fb      	str	r3, [r7, #12]
20005c08:	68fb      	ldr	r3, [r7, #12]
20005c0a:	687b      	ldr	r3, [r7, #4]
20005c0c:	2207      	movs	r2, #7
20005c0e:	f883 2051 	strb.w	r2, [r3, #81]	; 0x51
20005c12:	bf00      	nop
20005c14:	3714      	adds	r7, #20
20005c16:	46bd      	mov	sp, r7
20005c18:	bc80      	pop	{r7}
20005c1a:	4770      	bx	lr
20005c1c:	20000210 	.word	0x20000210
20005c20:	057619f1 	.word	0x057619f1

20005c24 <SPI_AbortTx_ISR>:
20005c24:	b480      	push	{r7}
20005c26:	b083      	sub	sp, #12
20005c28:	af00      	add	r7, sp, #0
20005c2a:	6078      	str	r0, [r7, #4]
20005c2c:	687b      	ldr	r3, [r7, #4]
20005c2e:	681b      	ldr	r3, [r3, #0]
20005c30:	685a      	ldr	r2, [r3, #4]
20005c32:	687b      	ldr	r3, [r7, #4]
20005c34:	681b      	ldr	r3, [r3, #0]
20005c36:	f022 0280 	bic.w	r2, r2, #128	; 0x80
20005c3a:	605a      	str	r2, [r3, #4]
20005c3c:	687b      	ldr	r3, [r7, #4]
20005c3e:	681b      	ldr	r3, [r3, #0]
20005c40:	681a      	ldr	r2, [r3, #0]
20005c42:	687b      	ldr	r3, [r7, #4]
20005c44:	681b      	ldr	r3, [r3, #0]
20005c46:	f022 0240 	bic.w	r2, r2, #64	; 0x40
20005c4a:	601a      	str	r2, [r3, #0]
20005c4c:	687b      	ldr	r3, [r7, #4]
20005c4e:	2207      	movs	r2, #7
20005c50:	f883 2051 	strb.w	r2, [r3, #81]	; 0x51
20005c54:	bf00      	nop
20005c56:	370c      	adds	r7, #12
20005c58:	46bd      	mov	sp, r7
20005c5a:	bc80      	pop	{r7}
20005c5c:	4770      	bx	lr
20005c5e:	bf00      	nop

20005c60 <__aeabi_uldivmod>:
20005c60:	b953      	cbnz	r3, 20005c78 <__aeabi_uldivmod+0x18>
20005c62:	b94a      	cbnz	r2, 20005c78 <__aeabi_uldivmod+0x18>
20005c64:	2900      	cmp	r1, #0
20005c66:	bf08      	it	eq
20005c68:	2800      	cmpeq	r0, #0
20005c6a:	bf1c      	itt	ne
20005c6c:	f04f 31ff 	movne.w	r1, #4294967295
20005c70:	f04f 30ff 	movne.w	r0, #4294967295
20005c74:	f000 b96c 	b.w	20005f50 <__aeabi_idiv0>
20005c78:	f1ad 0c08 	sub.w	ip, sp, #8
20005c7c:	e96d ce04 	strd	ip, lr, [sp, #-16]!
20005c80:	f000 f806 	bl	20005c90 <__udivmoddi4>
20005c84:	f8dd e004 	ldr.w	lr, [sp, #4]
20005c88:	e9dd 2302 	ldrd	r2, r3, [sp, #8]
20005c8c:	b004      	add	sp, #16
20005c8e:	4770      	bx	lr

20005c90 <__udivmoddi4>:
20005c90:	e92d 47f0 	stmdb	sp!, {r4, r5, r6, r7, r8, r9, sl, lr}
20005c94:	9e08      	ldr	r6, [sp, #32]
20005c96:	460d      	mov	r5, r1
20005c98:	4604      	mov	r4, r0
20005c9a:	468e      	mov	lr, r1
20005c9c:	2b00      	cmp	r3, #0
20005c9e:	f040 8082 	bne.w	20005da6 <__udivmoddi4+0x116>
20005ca2:	428a      	cmp	r2, r1
20005ca4:	4617      	mov	r7, r2
20005ca6:	d946      	bls.n	20005d36 <__udivmoddi4+0xa6>
20005ca8:	fab2 f282 	clz	r2, r2
20005cac:	b14a      	cbz	r2, 20005cc2 <__udivmoddi4+0x32>
20005cae:	f1c2 0120 	rsb	r1, r2, #32
20005cb2:	fa05 f302 	lsl.w	r3, r5, r2
20005cb6:	fa20 f101 	lsr.w	r1, r0, r1
20005cba:	4097      	lsls	r7, r2
20005cbc:	ea41 0e03 	orr.w	lr, r1, r3
20005cc0:	4094      	lsls	r4, r2
20005cc2:	ea4f 4817 	mov.w	r8, r7, lsr #16
20005cc6:	0c23      	lsrs	r3, r4, #16
20005cc8:	fbbe fcf8 	udiv	ip, lr, r8
20005ccc:	b2b9      	uxth	r1, r7
20005cce:	fb08 ee1c 	mls	lr, r8, ip, lr
20005cd2:	ea43 430e 	orr.w	r3, r3, lr, lsl #16
20005cd6:	fb0c f001 	mul.w	r0, ip, r1
20005cda:	4298      	cmp	r0, r3
20005cdc:	d90a      	bls.n	20005cf4 <__udivmoddi4+0x64>
20005cde:	18fb      	adds	r3, r7, r3
20005ce0:	f10c 35ff 	add.w	r5, ip, #4294967295
20005ce4:	f080 8116 	bcs.w	20005f14 <__udivmoddi4+0x284>
20005ce8:	4298      	cmp	r0, r3
20005cea:	f240 8113 	bls.w	20005f14 <__udivmoddi4+0x284>
20005cee:	f1ac 0c02 	sub.w	ip, ip, #2
20005cf2:	443b      	add	r3, r7
20005cf4:	1a1b      	subs	r3, r3, r0
20005cf6:	b2a4      	uxth	r4, r4
20005cf8:	fbb3 f0f8 	udiv	r0, r3, r8
20005cfc:	fb08 3310 	mls	r3, r8, r0, r3
20005d00:	ea44 4403 	orr.w	r4, r4, r3, lsl #16
20005d04:	fb00 f101 	mul.w	r1, r0, r1
20005d08:	42a1      	cmp	r1, r4
20005d0a:	d909      	bls.n	20005d20 <__udivmoddi4+0x90>
20005d0c:	193c      	adds	r4, r7, r4
20005d0e:	f100 33ff 	add.w	r3, r0, #4294967295
20005d12:	f080 8101 	bcs.w	20005f18 <__udivmoddi4+0x288>
20005d16:	42a1      	cmp	r1, r4
20005d18:	f240 80fe 	bls.w	20005f18 <__udivmoddi4+0x288>
20005d1c:	3802      	subs	r0, #2
20005d1e:	443c      	add	r4, r7
20005d20:	1a64      	subs	r4, r4, r1
20005d22:	ea40 400c 	orr.w	r0, r0, ip, lsl #16
20005d26:	2100      	movs	r1, #0
20005d28:	b11e      	cbz	r6, 20005d32 <__udivmoddi4+0xa2>
20005d2a:	40d4      	lsrs	r4, r2
20005d2c:	2300      	movs	r3, #0
20005d2e:	e9c6 4300 	strd	r4, r3, [r6]
20005d32:	e8bd 87f0 	ldmia.w	sp!, {r4, r5, r6, r7, r8, r9, sl, pc}
20005d36:	b902      	cbnz	r2, 20005d3a <__udivmoddi4+0xaa>
20005d38:	deff      	udf	#255	; 0xff
20005d3a:	fab2 f282 	clz	r2, r2
20005d3e:	2a00      	cmp	r2, #0
20005d40:	d14f      	bne.n	20005de2 <__udivmoddi4+0x152>
20005d42:	1bcb      	subs	r3, r1, r7
20005d44:	ea4f 4e17 	mov.w	lr, r7, lsr #16
20005d48:	fa1f f887 	uxth.w	r8, r7
20005d4c:	2101      	movs	r1, #1
20005d4e:	fbb3 fcfe 	udiv	ip, r3, lr
20005d52:	0c25      	lsrs	r5, r4, #16
20005d54:	fb0e 331c 	mls	r3, lr, ip, r3
20005d58:	ea45 4503 	orr.w	r5, r5, r3, lsl #16
20005d5c:	fb08 f30c 	mul.w	r3, r8, ip
20005d60:	42ab      	cmp	r3, r5
20005d62:	d907      	bls.n	20005d74 <__udivmoddi4+0xe4>
20005d64:	197d      	adds	r5, r7, r5
20005d66:	f10c 30ff 	add.w	r0, ip, #4294967295
20005d6a:	d202      	bcs.n	20005d72 <__udivmoddi4+0xe2>
20005d6c:	42ab      	cmp	r3, r5
20005d6e:	f200 80e7 	bhi.w	20005f40 <__udivmoddi4+0x2b0>
20005d72:	4684      	mov	ip, r0
20005d74:	1aed      	subs	r5, r5, r3
20005d76:	b2a3      	uxth	r3, r4
20005d78:	fbb5 f0fe 	udiv	r0, r5, lr
20005d7c:	fb0e 5510 	mls	r5, lr, r0, r5
20005d80:	ea43 4405 	orr.w	r4, r3, r5, lsl #16
20005d84:	fb08 f800 	mul.w	r8, r8, r0
20005d88:	45a0      	cmp	r8, r4
20005d8a:	d907      	bls.n	20005d9c <__udivmoddi4+0x10c>
20005d8c:	193c      	adds	r4, r7, r4
20005d8e:	f100 33ff 	add.w	r3, r0, #4294967295
20005d92:	d202      	bcs.n	20005d9a <__udivmoddi4+0x10a>
20005d94:	45a0      	cmp	r8, r4
20005d96:	f200 80d7 	bhi.w	20005f48 <__udivmoddi4+0x2b8>
20005d9a:	4618      	mov	r0, r3
20005d9c:	eba4 0408 	sub.w	r4, r4, r8
20005da0:	ea40 400c 	orr.w	r0, r0, ip, lsl #16
20005da4:	e7c0      	b.n	20005d28 <__udivmoddi4+0x98>
20005da6:	428b      	cmp	r3, r1
20005da8:	d908      	bls.n	20005dbc <__udivmoddi4+0x12c>
20005daa:	2e00      	cmp	r6, #0
20005dac:	f000 80af 	beq.w	20005f0e <__udivmoddi4+0x27e>
20005db0:	2100      	movs	r1, #0
20005db2:	e9c6 0500 	strd	r0, r5, [r6]
20005db6:	4608      	mov	r0, r1
20005db8:	e8bd 87f0 	ldmia.w	sp!, {r4, r5, r6, r7, r8, r9, sl, pc}
20005dbc:	fab3 f183 	clz	r1, r3
20005dc0:	2900      	cmp	r1, #0
20005dc2:	d14b      	bne.n	20005e5c <__udivmoddi4+0x1cc>
20005dc4:	42ab      	cmp	r3, r5
20005dc6:	d302      	bcc.n	20005dce <__udivmoddi4+0x13e>
20005dc8:	4282      	cmp	r2, r0
20005dca:	f200 80b7 	bhi.w	20005f3c <__udivmoddi4+0x2ac>
20005dce:	1a84      	subs	r4, r0, r2
20005dd0:	eb65 0303 	sbc.w	r3, r5, r3
20005dd4:	2001      	movs	r0, #1
20005dd6:	469e      	mov	lr, r3
20005dd8:	2e00      	cmp	r6, #0
20005dda:	d0aa      	beq.n	20005d32 <__udivmoddi4+0xa2>
20005ddc:	e9c6 4e00 	strd	r4, lr, [r6]
20005de0:	e7a7      	b.n	20005d32 <__udivmoddi4+0xa2>
20005de2:	f1c2 0c20 	rsb	ip, r2, #32
20005de6:	fa01 f302 	lsl.w	r3, r1, r2
20005dea:	4097      	lsls	r7, r2
20005dec:	fa20 f00c 	lsr.w	r0, r0, ip
20005df0:	ea4f 4e17 	mov.w	lr, r7, lsr #16
20005df4:	fa21 fc0c 	lsr.w	ip, r1, ip
20005df8:	4318      	orrs	r0, r3
20005dfa:	fbbc f1fe 	udiv	r1, ip, lr
20005dfe:	0c05      	lsrs	r5, r0, #16
20005e00:	fb0e cc11 	mls	ip, lr, r1, ip
20005e04:	fa1f f887 	uxth.w	r8, r7
20005e08:	ea45 450c 	orr.w	r5, r5, ip, lsl #16
20005e0c:	fb01 f308 	mul.w	r3, r1, r8
20005e10:	42ab      	cmp	r3, r5
20005e12:	fa04 f402 	lsl.w	r4, r4, r2
20005e16:	d909      	bls.n	20005e2c <__udivmoddi4+0x19c>
20005e18:	197d      	adds	r5, r7, r5
20005e1a:	f101 3cff 	add.w	ip, r1, #4294967295
20005e1e:	f080 808b 	bcs.w	20005f38 <__udivmoddi4+0x2a8>
20005e22:	42ab      	cmp	r3, r5
20005e24:	f240 8088 	bls.w	20005f38 <__udivmoddi4+0x2a8>
20005e28:	3902      	subs	r1, #2
20005e2a:	443d      	add	r5, r7
20005e2c:	1aeb      	subs	r3, r5, r3
20005e2e:	b285      	uxth	r5, r0
20005e30:	fbb3 f0fe 	udiv	r0, r3, lr
20005e34:	fb0e 3310 	mls	r3, lr, r0, r3
20005e38:	ea45 4503 	orr.w	r5, r5, r3, lsl #16
20005e3c:	fb00 f308 	mul.w	r3, r0, r8
20005e40:	42ab      	cmp	r3, r5
20005e42:	d907      	bls.n	20005e54 <__udivmoddi4+0x1c4>
20005e44:	197d      	adds	r5, r7, r5
20005e46:	f100 3cff 	add.w	ip, r0, #4294967295
20005e4a:	d271      	bcs.n	20005f30 <__udivmoddi4+0x2a0>
20005e4c:	42ab      	cmp	r3, r5
20005e4e:	d96f      	bls.n	20005f30 <__udivmoddi4+0x2a0>
20005e50:	3802      	subs	r0, #2
20005e52:	443d      	add	r5, r7
20005e54:	1aeb      	subs	r3, r5, r3
20005e56:	ea40 4101 	orr.w	r1, r0, r1, lsl #16
20005e5a:	e778      	b.n	20005d4e <__udivmoddi4+0xbe>
20005e5c:	f1c1 0c20 	rsb	ip, r1, #32
20005e60:	408b      	lsls	r3, r1
20005e62:	fa22 f70c 	lsr.w	r7, r2, ip
20005e66:	431f      	orrs	r7, r3
20005e68:	fa20 f40c 	lsr.w	r4, r0, ip
20005e6c:	fa05 f301 	lsl.w	r3, r5, r1
20005e70:	ea4f 4e17 	mov.w	lr, r7, lsr #16
20005e74:	fa25 f50c 	lsr.w	r5, r5, ip
20005e78:	431c      	orrs	r4, r3
20005e7a:	0c23      	lsrs	r3, r4, #16
20005e7c:	fbb5 f9fe 	udiv	r9, r5, lr
20005e80:	fa1f f887 	uxth.w	r8, r7
20005e84:	fb0e 5519 	mls	r5, lr, r9, r5
20005e88:	ea43 4505 	orr.w	r5, r3, r5, lsl #16
20005e8c:	fb09 fa08 	mul.w	sl, r9, r8
20005e90:	45aa      	cmp	sl, r5
20005e92:	fa02 f201 	lsl.w	r2, r2, r1
20005e96:	fa00 f301 	lsl.w	r3, r0, r1
20005e9a:	d908      	bls.n	20005eae <__udivmoddi4+0x21e>
20005e9c:	197d      	adds	r5, r7, r5
20005e9e:	f109 30ff 	add.w	r0, r9, #4294967295
20005ea2:	d247      	bcs.n	20005f34 <__udivmoddi4+0x2a4>
20005ea4:	45aa      	cmp	sl, r5
20005ea6:	d945      	bls.n	20005f34 <__udivmoddi4+0x2a4>
20005ea8:	f1a9 0902 	sub.w	r9, r9, #2
20005eac:	443d      	add	r5, r7
20005eae:	eba5 050a 	sub.w	r5, r5, sl
20005eb2:	b2a4      	uxth	r4, r4
20005eb4:	fbb5 f0fe 	udiv	r0, r5, lr
20005eb8:	fb0e 5510 	mls	r5, lr, r0, r5
20005ebc:	ea44 4405 	orr.w	r4, r4, r5, lsl #16
20005ec0:	fb00 f808 	mul.w	r8, r0, r8
20005ec4:	45a0      	cmp	r8, r4
20005ec6:	d907      	bls.n	20005ed8 <__udivmoddi4+0x248>
20005ec8:	193c      	adds	r4, r7, r4
20005eca:	f100 35ff 	add.w	r5, r0, #4294967295
20005ece:	d22d      	bcs.n	20005f2c <__udivmoddi4+0x29c>
20005ed0:	45a0      	cmp	r8, r4
20005ed2:	d92b      	bls.n	20005f2c <__udivmoddi4+0x29c>
20005ed4:	3802      	subs	r0, #2
20005ed6:	443c      	add	r4, r7
20005ed8:	ea40 4009 	orr.w	r0, r0, r9, lsl #16
20005edc:	eba4 0408 	sub.w	r4, r4, r8
20005ee0:	fba0 8902 	umull	r8, r9, r0, r2
20005ee4:	454c      	cmp	r4, r9
20005ee6:	46c6      	mov	lr, r8
20005ee8:	464d      	mov	r5, r9
20005eea:	d319      	bcc.n	20005f20 <__udivmoddi4+0x290>
20005eec:	d016      	beq.n	20005f1c <__udivmoddi4+0x28c>
20005eee:	b15e      	cbz	r6, 20005f08 <__udivmoddi4+0x278>
20005ef0:	ebb3 020e 	subs.w	r2, r3, lr
20005ef4:	eb64 0405 	sbc.w	r4, r4, r5
20005ef8:	fa04 fc0c 	lsl.w	ip, r4, ip
20005efc:	40ca      	lsrs	r2, r1
20005efe:	ea4c 0202 	orr.w	r2, ip, r2
20005f02:	40cc      	lsrs	r4, r1
20005f04:	e9c6 2400 	strd	r2, r4, [r6]
20005f08:	2100      	movs	r1, #0
20005f0a:	e8bd 87f0 	ldmia.w	sp!, {r4, r5, r6, r7, r8, r9, sl, pc}
20005f0e:	4631      	mov	r1, r6
20005f10:	4630      	mov	r0, r6
20005f12:	e70e      	b.n	20005d32 <__udivmoddi4+0xa2>
20005f14:	46ac      	mov	ip, r5
20005f16:	e6ed      	b.n	20005cf4 <__udivmoddi4+0x64>
20005f18:	4618      	mov	r0, r3
20005f1a:	e701      	b.n	20005d20 <__udivmoddi4+0x90>
20005f1c:	4543      	cmp	r3, r8
20005f1e:	d2e6      	bcs.n	20005eee <__udivmoddi4+0x25e>
20005f20:	ebb8 0e02 	subs.w	lr, r8, r2
20005f24:	eb69 0507 	sbc.w	r5, r9, r7
20005f28:	3801      	subs	r0, #1
20005f2a:	e7e0      	b.n	20005eee <__udivmoddi4+0x25e>
20005f2c:	4628      	mov	r0, r5
20005f2e:	e7d3      	b.n	20005ed8 <__udivmoddi4+0x248>
20005f30:	4660      	mov	r0, ip
20005f32:	e78f      	b.n	20005e54 <__udivmoddi4+0x1c4>
20005f34:	4681      	mov	r9, r0
20005f36:	e7ba      	b.n	20005eae <__udivmoddi4+0x21e>
20005f38:	4661      	mov	r1, ip
20005f3a:	e777      	b.n	20005e2c <__udivmoddi4+0x19c>
20005f3c:	4608      	mov	r0, r1
20005f3e:	e74b      	b.n	20005dd8 <__udivmoddi4+0x148>
20005f40:	f1ac 0c02 	sub.w	ip, ip, #2
20005f44:	443d      	add	r5, r7
20005f46:	e715      	b.n	20005d74 <__udivmoddi4+0xe4>
20005f48:	3802      	subs	r0, #2
20005f4a:	443c      	add	r4, r7
20005f4c:	e726      	b.n	20005d9c <__udivmoddi4+0x10c>
20005f4e:	bf00      	nop

20005f50 <__aeabi_idiv0>:
20005f50:	4770      	bx	lr
20005f52:	bf00      	nop

20005f54 <memset>:
20005f54:	4402      	add	r2, r0
20005f56:	4603      	mov	r3, r0
20005f58:	4293      	cmp	r3, r2
20005f5a:	d100      	bne.n	20005f5e <memset+0xa>
20005f5c:	4770      	bx	lr
20005f5e:	f803 1b01 	strb.w	r1, [r3], #1
20005f62:	e7f9      	b.n	20005f58 <memset+0x4>

20005f64 <_init>:
20005f64:	b5f8      	push	{r3, r4, r5, r6, r7, lr}
20005f66:	bf00      	nop
20005f68:	bcf8      	pop	{r3, r4, r5, r6, r7}
20005f6a:	bc08      	pop	{r3}
20005f6c:	469e      	mov	lr, r3
20005f6e:	4770      	bx	lr

20005f70 <_fini>:
20005f70:	b5f8      	push	{r3, r4, r5, r6, r7, lr}
20005f72:	bf00      	nop
20005f74:	bcf8      	pop	{r3, r4, r5, r6, r7}
20005f76:	bc08      	pop	{r3}
20005f78:	469e      	mov	lr, r3
20005f7a:	4770      	bx	lr
